16901	0091	THE FOLLOWING REMARK HAS BEEN ADDED ON 1998/11/03 AT 10:58 BY PETER GAIGAL : SUBJECT ON THE DATE OF REGISTRATION 98/03/02 TO SUBSECTION 44(1) OF THE LAND TITLES ACT EXCEPT PARAGRAPHS 3 AND 14 THEREOF AND PROVINIAL SUCCESSION DUTIES:.
16901	0095	THE FOLLOWING REMARK HAS BEEN ADDED ON 1998/11/03 AT 10:58 BY PETER GAIGAL : SUBJECT ON THE DATE OF REGISTRATION 98/03/02 TO SUBSECTION 44(1) OF THE LAND TITLES ACT EXCEPT PARAGRAPHS 3 AND 14 THEREOF AND PROVINIAL SUCCESSION DUTIES:.
16901	0096	THE FOLLOWING REMARK HAS BEEN ADDED ON 1998/11/03 AT 10:58 BY PETER GAIGAL : SUBJECT ON THE DATE OF REGISTRATION 98/03/02 TO SUBSECTION 44(1) OF THE LAND TITLES ACT EXCEPT PARAGRAPHS 3 AND 14 THEREOF AND PROVINIAL SUCCESSION DUTIES:.
16901	0097	THE FOLLOWING REMARK HAS BEEN ADDED ON 1998/11/03 AT 10:58 BY PETER GAIGAL : SUBJECT ON THE DATE OF REGISTRATION 98/03/02 TO SUBSECTION 44(1) OF THE LAND TITLES ACT EXCEPT PARAGRAPHS 3 AND 14 THEREOF AND PROVINIAL SUCCESSION DUTIES:.
16901	0098	THE FOLLOWING REMARK HAS BEEN ADDED ON 1998/11/03 AT 10:58 BY PETER GAIGAL : SUBJECT ON THE DATE OF REGISTRATION 98/03/02 TO SUBSECTION 44(1) OF THE LAND TITLES ACT EXCEPT PARAGRAPHS 3 AND 14 THEREOF AND PROVINIAL SUCCESSION DUTIES:.
16901	0099	THE FOLLOWING REMARK HAS BEEN ADDED ON 1998/11/03 AT 10:58 BY PETER GAIGAL : SUBJECT ON THE DATE OF REGISTRATION 98/03/02 TO SUBSECTION 44(1) OF THE LAND TITLES ACT EXCEPT PARAGRAPHS 3 AND 14 THEREOF AND PROVINIAL SUCCESSION DUTIES:.
16901	0100	THE FOLLOWING REMARK HAS BEEN ADDED ON 1998/11/03 AT 10:58 BY PETER GAIGAL : SUBJECT ON THE DATE OF REGISTRATION 98/03/02 TO SUBSECTION 44(1) OF THE LAND TITLES ACT EXCEPT PARAGRAPHS 3 AND 14 THEREOF AND PROVINIAL SUCCESSION DUTIES:.
16901	0101	THE FOLLOWING REMARK HAS BEEN ADDED ON 1998/11/03 AT 10:58 BY PETER GAIGAL : SUBJECT ON THE DATE OF REGISTRATION 98/03/02 TO SUBSECTION 44(1) OF THE LAND TITLES ACT EXCEPT PARAGRAPHS 3 AND 14 THEREOF AND PROVINIAL SUCCESSION DUTIES:.
16901	0102	THE FOLLOWING REMARK HAS BEEN ADDED ON 1998/11/03 AT 10:58 BY PETER GAIGAL : SUBJECT ON THE DATE OF REGISTRATION 98/03/02 TO SUBSECTION 44(1) OF THE LAND TITLES ACT EXCEPT PARAGRAPHS 3 AND 14 THEREOF AND PROVINIAL SUCCESSION DUTIES:.
16901	0103	THE FOLLOWING REMARK HAS BEEN ADDED ON 1998/11/03 AT 10:58 BY PETER GAIGAL : SUBJECT ON THE DATE OF REGISTRATION 98/03/02 TO SUBSECTION 44(1) OF THE LAND TITLES ACT EXCEPT PARAGRAPHS 3 AND 14 THEREOF AND PROVINIAL SUCCESSION DUTIES:.
16901	0104	THE FOLLOWING REMARK HAS BEEN ADDED ON 1998/11/03 AT 10:58 BY PETER GAIGAL : SUBJECT ON THE DATE OF REGISTRATION 98/03/02 TO SUBSECTION 44(1) OF THE LAND TITLES ACT EXCEPT PARAGRAPHS 3 AND 14 THEREOF AND PROVINIAL SUCCESSION DUTIES:.
16901	0105	THE FOLLOWING REMARK HAS BEEN ADDED ON 1998/11/03 AT 10:58 BY PETER GAIGAL : SUBJECT ON THE DATE OF REGISTRATION 98/03/02 TO SUBSECTION 44(1) OF THE LAND TITLES ACT EXCEPT PARAGRAPHS 3 AND 14 THEREOF AND PROVINIAL SUCCESSION DUTIES:.
16901	0106	THE FOLLOWING REMARK HAS BEEN ADDED ON 1998/11/03 AT 10:58 BY PETER GAIGAL : SUBJECT ON THE DATE OF REGISTRATION 98/03/02 TO SUBSECTION 44(1) OF THE LAND TITLES ACT EXCEPT PARAGRAPHS 3 AND 14 THEREOF AND PROVINIAL SUCCESSION DUTIES:.
16901	0107	THE FOLLOWING REMARK HAS BEEN ADDED ON 1998/11/03 AT 10:58 BY PETER GAIGAL : SUBJECT ON THE DATE OF REGISTRATION 98/03/02 TO SUBSECTION 44(1) OF THE LAND TITLES ACT EXCEPT PARAGRAPHS 3 AND 14 THEREOF AND PROVINIAL SUCCESSION DUTIES:.
16901	0108	THE FOLLOWING REMARK HAS BEEN ADDED ON 1998/11/03 AT 10:58 BY PETER GAIGAL : SUBJECT ON THE DATE OF REGISTRATION 98/03/02 TO SUBSECTION 44(1) OF THE LAND TITLES ACT EXCEPT PARAGRAPHS 3 AND 14 THEREOF AND PROVINIAL SUCCESSION DUTIES:.
16901	0109	THE FOLLOWING REMARK HAS BEEN ADDED ON 1998/11/03 AT 10:58 BY PETER GAIGAL : SUBJECT ON THE DATE OF REGISTRATION 98/03/02 TO SUBSECTION 44(1) OF THE LAND TITLES ACT EXCEPT PARAGRAPHS 3 AND 14 THEREOF AND PROVINIAL SUCCESSION DUTIES:.
16901	0110	THE FOLLOWING REMARK HAS BEEN ADDED ON 1998/11/03 AT 10:58 BY PETER GAIGAL : SUBJECT ON THE DATE OF REGISTRATION 98/03/02 TO SUBSECTION 44(1) OF THE LAND TITLES ACT EXCEPT PARAGRAPHS 3 AND 14 THEREOF AND PROVINIAL SUCCESSION DUTIES:.
16901	0111	THE FOLLOWING REMARK HAS BEEN ADDED ON 1998/11/03 AT 10:58 BY PETER GAIGAL : SUBJECT ON THE DATE OF REGISTRATION 98/03/02 TO SUBSECTION 44(1) OF THE LAND TITLES ACT EXCEPT PARAGRAPHS 3 AND 14 THEREOF AND PROVINIAL SUCCESSION DUTIES:.
16901	0112	THE FOLLOWING REMARK HAS BEEN ADDED ON 1998/11/03 AT 10:58 BY PETER GAIGAL : SUBJECT ON THE DATE OF REGISTRATION 98/03/02 TO SUBSECTION 44(1) OF THE LAND TITLES ACT EXCEPT PARAGRAPHS 3 AND 14 THEREOF AND PROVINIAL SUCCESSION DUTIES:.
16901	0113	THE FOLLOWING REMARK HAS BEEN ADDED ON 1998/11/03 AT 10:58 BY PETER GAIGAL : SUBJECT ON THE DATE OF REGISTRATION 98/03/02 TO SUBSECTION 44(1) OF THE LAND TITLES ACT EXCEPT PARAGRAPHS 3 AND 14 THEREOF AND PROVINIAL SUCCESSION DUTIES:.
16901	0114	THE FOLLOWING REMARK HAS BEEN ADDED ON 1998/11/03 AT 10:58 BY PETER GAIGAL : SUBJECT ON THE DATE OF REGISTRATION 98/03/02 TO SUBSECTION 44(1) OF THE LAND TITLES ACT EXCEPT PARAGRAPHS 3 AND 14 THEREOF AND PROVINIAL SUCCESSION DUTIES:.
16901	0115	THE FOLLOWING REMARK HAS BEEN ADDED ON 1998/11/03 AT 10:58 BY PETER GAIGAL : SUBJECT ON THE DATE OF REGISTRATION 98/03/02 TO SUBSECTION 44(1) OF THE LAND TITLES ACT EXCEPT PARAGRAPHS 3 AND 14 THEREOF AND PROVINIAL SUCCESSION DUTIES:.
16901	0116	THE FOLLOWING REMARK HAS BEEN ADDED ON 1998/11/03 AT 10:58 BY PETER GAIGAL : SUBJECT ON THE DATE OF REGISTRATION 98/03/02 TO SUBSECTION 44(1) OF THE LAND TITLES ACT EXCEPT PARAGRAPHS 3 AND 14 THEREOF AND PROVINIAL SUCCESSION DUTIES:.
16901	0117	THE FOLLOWING REMARK HAS BEEN ADDED ON 1998/11/03 AT 10:58 BY PETER GAIGAL : SUBJECT ON THE DATE OF REGISTRATION 98/03/02 TO SUBSECTION 44(1) OF THE LAND TITLES ACT EXCEPT PARAGRAPHS 3 AND 14 THEREOF AND PROVINIAL SUCCESSION DUTIES:.
16901	0118	THE FOLLOWING REMARK HAS BEEN ADDED ON 1998/11/03 AT 10:58 BY PETER GAIGAL : SUBJECT ON THE DATE OF REGISTRATION 98/03/02 TO SUBSECTION 44(1) OF THE LAND TITLES ACT EXCEPT PARAGRAPHS 3 AND 14 THEREOF AND PROVINIAL SUCCESSION DUTIES:.
16901	0119	THE FOLLOWING REMARK HAS BEEN ADDED ON 1998/11/03 AT 10:58 BY PETER GAIGAL : SUBJECT ON THE DATE OF REGISTRATION 98/03/02 TO SUBSECTION 44(1) OF THE LAND TITLES ACT EXCEPT PARAGRAPHS 3 AND 14 THEREOF AND PROVINIAL SUCCESSION DUTIES:.
16901	0120	THE FOLLOWING REMARK HAS BEEN ADDED ON 1998/11/03 AT 10:58 BY PETER GAIGAL : SUBJECT ON THE DATE OF REGISTRATION 98/03/02 TO SUBSECTION 44(1) OF THE LAND TITLES ACT EXCEPT PARAGRAPHS 3 AND 14 THEREOF AND PROVINIAL SUCCESSION DUTIES:.
16901	0121	THE FOLLOWING REMARK HAS BEEN ADDED ON 1998/11/03 AT 10:58 BY PETER GAIGAL : SUBJECT ON THE DATE OF REGISTRATION 98/03/02 TO SUBSECTION 44(1) OF THE LAND TITLES ACT EXCEPT PARAGRAPHS 3 AND 14 THEREOF AND PROVINIAL SUCCESSION DUTIES:.
16901	0122	THE FOLLOWING REMARK HAS BEEN ADDED ON 1998/11/03 AT 10:58 BY PETER GAIGAL : SUBJECT ON THE DATE OF REGISTRATION 98/03/02 TO SUBSECTION 44(1) OF THE LAND TITLES ACT EXCEPT PARAGRAPHS 3 AND 14 THEREOF AND PROVINIAL SUCCESSION DUTIES:. THE FOLLOWING REMARK
16901	0123	THE FOLLOWING REMARK HAS BEEN ADDED ON 1998/11/03 AT 10:58 BY PETER GAIGAL : SUBJECT ON THE DATE OF REGISTRATION 98/03/02 TO SUBSECTION 44(1) OF THE LAND TITLES ACT EXCEPT PARAGRAPHS 3 AND 14 THEREOF AND PROVINIAL SUCCESSION DUTIES:.
16901	0124	THE FOLLOWING REMARK HAS BEEN ADDED ON 1998/11/03 AT 10:58 BY PETER GAIGAL : SUBJECT ON THE DATE OF REGISTRATION 98/03/02 TO SUBSECTION 44(1) OF THE LAND TITLES ACT EXCEPT PARAGRAPHS 3 AND 14 THEREOF AND PROVINIAL SUCCESSION DUTIES:.
16901	0125	THE FOLLOWING REMARK HAS BEEN ADDED ON 1998/11/03 AT 10:58 BY PETER GAIGAL : SUBJECT ON THE DATE OF REGISTRATION 98/03/02 TO SUBSECTION 44(1) OF THE LAND TITLES ACT EXCEPT PARAGRAPHS 3 AND 14 THEREOF AND PROVINIAL SUCCESSION DUTIES:.
16901	0126	THE FOLLOWING REMARK HAS BEEN ADDED ON 1998/11/03 AT 10:58 BY PETER GAIGAL : SUBJECT ON THE DATE OF REGISTRATION 98/03/02 TO SUBSECTION 44(1) OF THE LAND TITLES ACT EXCEPT PARAGRAPHS 3 AND 14 THEREOF AND PROVINIAL SUCCESSION DUTIES:.
16901	0127	THE FOLLOWING REMARK HAS BEEN ADDED ON 1998/11/03 AT 10:58 BY PETER GAIGAL : SUBJECT ON THE DATE OF REGISTRATION 98/03/02 TO SUBSECTION 44(1) OF THE LAND TITLES ACT EXCEPT PARAGRAPHS 3 AND 14 THEREOF AND PROVINIAL SUCCESSION DUTIES:.
16901	0128	THE FOLLOWING REMARK HAS BEEN ADDED ON 1998/11/03 AT 10:58 BY PETER GAIGAL : SUBJECT ON THE DATE OF REGISTRATION 98/03/02 TO SUBSECTION 44(1) OF THE LAND TITLES ACT EXCEPT PARAGRAPHS 3 AND 14 THEREOF AND PROVINIAL SUCCESSION DUTIES:.
16901	0129	THE FOLLOWING REMARK HAS BEEN ADDED ON 1998/11/03 AT 10:58 BY PETER GAIGAL : SUBJECT ON THE DATE OF REGISTRATION 98/03/02 TO SUBSECTION 44(1) OF THE LAND TITLES ACT EXCEPT PARAGRAPHS 3 AND 14 THEREOF AND PROVINIAL SUCCESSION DUTIES:.
16901	0130	THE FOLLOWING REMARK HAS BEEN ADDED ON 1998/11/03 AT 10:58 BY PETER GAIGAL : SUBJECT ON THE DATE OF REGISTRATION 98/03/02 TO SUBSECTION 44(1) OF THE LAND TITLES ACT EXCEPT PARAGRAPHS 3 AND 14 THEREOF AND PROVINIAL SUCCESSION DUTIES:.
16901	0131	THE FOLLOWING REMARK HAS BEEN ADDED ON 1998/11/03 AT 10:58 BY PETER GAIGAL : SUBJECT ON THE DATE OF REGISTRATION 98/03/02 TO SUBSECTION 44(1) OF THE LAND TITLES ACT EXCEPT PARAGRAPHS 3 AND 14 THEREOF AND PROVINIAL SUCCESSION DUTIES:.
16901	0132	THE FOLLOWING REMARK HAS BEEN ADDED ON 1998/11/03 AT 10:58 BY PETER GAIGAL : SUBJECT ON THE DATE OF REGISTRATION 98/03/02 TO SUBSECTION 44(1) OF THE LAND TITLES ACT EXCEPT PARAGRAPHS 3 AND 14 THEREOF AND PROVINIAL SUCCESSION DUTIES:.
16901	0133	THE FOLLOWING REMARK HAS BEEN ADDED ON 1998/11/03 AT 10:58 BY PETER GAIGAL : SUBJECT ON THE DATE OF REGISTRATION 98/03/02 TO SUBSECTION 44(1) OF THE LAND TITLES ACT EXCEPT PARAGRAPHS 3 AND 14 THEREOF AND PROVINIAL SUCCESSION DUTIES:.
16901	0134	THE FOLLOWING REMARK HAS BEEN ADDED ON 1998/11/03 AT 10:58 BY PETER GAIGAL : SUBJECT ON THE DATE OF REGISTRATION 98/03/02 TO SUBSECTION 44(1) OF THE LAND TITLES ACT EXCEPT PARAGRAPHS 3 AND 14 THEREOF AND PROVINIAL SUCCESSION DUTIES:.
16901	0135	THE FOLLOWING REMARK HAS BEEN ADDED ON 1998/11/03 AT 10:58 BY PETER GAIGAL : SUBJECT ON THE DATE OF REGISTRATION 98/03/02 TO SUBSECTION 44(1) OF THE LAND TITLES ACT EXCEPT PARAGRAPHS 3 AND 14 THEREOF AND PROVINIAL SUCCESSION DUTIES:.
16901	0136	THE FOLLOWING REMARK HAS BEEN ADDED ON 1998/11/03 AT 10:58 BY PETER GAIGAL : SUBJECT ON THE DATE OF REGISTRATION 98/03/02 TO SUBSECTION 44(1) OF THE LAND TITLES ACT EXCEPT PARAGRAPHS 3 AND 14 THEREOF AND PROVINIAL SUCCESSION DUTIES:.
16901	0137	THE FOLLOWING REMARK HAS BEEN ADDED ON 1998/11/03 AT 10:58 BY PETER GAIGAL : SUBJECT ON THE DATE OF REGISTRATION 98/03/02 TO SUBSECTION 44(1) OF THE LAND TITLES ACT EXCEPT PARAGRAPHS 3 AND 14 THEREOF AND PROVINIAL SUCCESSION DUTIES:.
16901	0138	THE FOLLOWING REMARK HAS BEEN ADDED ON 1998/11/03 AT 10:58 BY PETER GAIGAL : SUBJECT ON THE DATE OF REGISTRATION 98/03/02 TO SUBSECTION 44(1) OF THE LAND TITLES ACT EXCEPT PARAGRAPHS 3 AND 14 THEREOF AND PROVINIAL SUCCESSION DUTIES:.
16901	0139	THE FOLLOWING REMARK HAS BEEN ADDED ON 1998/11/03 AT 10:58 BY PETER GAIGAL : SUBJECT ON THE DATE OF REGISTRATION 98/03/02 TO SUBSECTION 44(1) OF THE LAND TITLES ACT EXCEPT PARAGRAPHS 3 AND 14 THEREOF AND PROVINIAL SUCCESSION DUTIES:.
16901	0159	CORRECTION: INSTRUMENT NUMBER LT583311 WAS OMITTED FROM THIS PROPERTY IN ERROR AND WAS ADDED AND CERTIFIED ON 2000/05/24 BY PETER GAIGAL. THE FOLLOWING REMARK HAS BEEN ADDED ON 2000/06/13 AT 11:04 BY LYN WEAVER : S/T THE RT TO ENTER WITHIN 5 YRS.FROM 2000
16901	0160	CORRECTION: INSTRUMENT NUMBER LT583311 WAS OMITTED FROM THIS PROPERTY IN ERROR AND WAS ADDED AND CERTIFIED ON 2000/05/24 BY PETER GAIGAL. THE FOLLOWING REMARK HAS BEEN ADDED ON 2000/07/24 AT 14:23 BY LYN WEAVER : S/T TO RT OF WAY WITHIN 5 YRS. FROM 2000 0
16901	0161	CORRECTION: INSTRUMENT NUMBER LT583311 WAS OMITTED FROM THIS PROPERTY IN ERROR AND WAS ADDED AND CERTIFIED ON 2000/05/24 BY PETER GAIGAL.
16901	0162	CORRECTION: INSTRUMENT NUMBER LT583311 WAS OMITTED FROM THIS PROPERTY IN ERROR AND WAS ADDED AND CERTIFIED ON 2000/05/24 BY PETER GAIGAL.
16901	0163	CORRECTION: INSTRUMENT NUMBER LT583311 WAS OMITTED FROM THIS PROPERTY IN ERROR AND WAS ADDED AND CERTIFIED ON 2000/05/24 BY PETER GAIGAL.
16901	0164	CORRECTION: INSTRUMENT NUMBER LT583311 WAS OMITTED FROM THIS PROPERTY IN ERROR AND WAS ADDED AND CERTIFIED ON 2000/05/24 BY PETER GAIGAL.
16901	0167	CORRECTION: INSTRUMENT NUMBER LT583311 WAS OMITTED FROM THIS PROPERTY IN ERROR AND WAS ADDED AND CERTIFIED ON 2000/05/24 BY PETER GAIGAL.
16901	0170	CORRECTION: INSTRUMENT NUMBER LT583311 WAS OMITTED FROM THIS PROPERTY IN ERROR AND WAS ADDED AND CERTIFIED ON 2000/05/24 BY PETER GAIGAL.
16901	0321	SUBSECTION 44 (1) OF THE LAND TITLES ACT, EXCEPT PARAGRAPH 11, PARAGRAPH 14, PROVINCIAL SUCCESSION DUTIES AND ESCHEATS OR FORFEITURE TO THE CROWN, UP TO THE DATE OF CONVERSION AND EXCEPT PARAGRAPH 3 AND PARAGRAPH 14 THEREAFTER.
16901	0322	SUBSECTION 44 (1) OF THE LAND TITLES ACT, EXCEPT PARAGRAPH 11, PARAGRAPH 14, PROVINCIAL SUCCESSION DUTIES AND ESCHEATS OR FORFEITURE TO THE CROWN, UP TO THE DATE OF CONVERSION AND EXCEPT PARAGRAPH 3 AND PARAGRAPH 14 THEREAFTER.
16901	0323	SUBSECTION 44 (1) OF THE LAND TITLES ACT, EXCEPT PARAGRAPH 11, PARAGRAPH 14, PROVINCIAL SUCCESSION DUTIES AND ESCHEATS OR FORFEITURE TO THE CROWN, UP TO THE DATE OF CONVERSION AND EXCEPT PARAGRAPH 3 AND PARAGRAPH 14 THEREAFTER.
16901	0324	SUBSECTION 44 (1) OF THE LAND TITLES ACT, EXCEPT PARAGRAPH 11, PARAGRAPH 14, PROVINCIAL SUCCESSION DUTIES AND ESCHEATS OR FORFEITURE TO THE CROWN, UP TO THE DATE OF CONVERSION AND EXCEPT PARAGRAPH 3 AND PARAGRAPH 14 THEREAFTER.
16901	0325	SUBSECTION 44 (1) OF THE LAND TITLES ACT, EXCEPT PARAGRAPH 11, PARAGRAPH 14, PROVINCIAL SUCCESSION DUTIES AND ESCHEATS OR FORFEITURE TO THE CROWN, UP TO THE DATE OF CONVERSION AND EXCEPT PARAGRAPH 3 AND PARAGRAPH 14 THEREAFTER.
16901	0326	SUBSECTION 44 (1) OF THE LAND TITLES ACT, EXCEPT PARAGRAPH 11, PARAGRAPH 14, PROVINCIAL SUCCESSION DUTIES AND ESCHEATS OR FORFEITURE TO THE CROWN, UP TO THE DATE OF CONVERSION AND EXCEPT PARAGRAPH 3 AND PARAGRAPH 14 THEREAFTER.
16901	0327	SUBSECTION 44 (1) OF THE LAND TITLES ACT, EXCEPT PARAGRAPH 11, PARAGRAPH 14, PROVINCIAL SUCCESSION DUTIES AND ESCHEATS OR FORFEITURE TO THE CROWN, UP TO THE DATE OF CONVERSION AND EXCEPT PARAGRAPH 3 AND PARAGRAPH 14 THEREAFTER.
16901	0328	SUBSECTION 44 (1) OF THE LAND TITLES ACT, EXCEPT PARAGRAPH 11, PARAGRAPH 14, PROVINCIAL SUCCESSION DUTIES AND ESCHEATS OR FORFEITURE TO THE CROWN, UP TO THE DATE OF CONVERSION AND EXCEPT PARAGRAPH 3 AND PARAGRAPH 14 THEREAFTER.
16901	0329	SUBSECTION 44 (1) OF THE LAND TITLES ACT, EXCEPT PARAGRAPH 11, PARAGRAPH 14, PROVINCIAL SUCCESSION DUTIES AND ESCHEATS OR FORFEITURE TO THE CROWN, UP TO THE DATE OF CONVERSION AND EXCEPT PARAGRAPH 3 AND PARAGRAPH 14 THEREAFTER.
16901	0330	SUBSECTION 44 (1) OF THE LAND TITLES ACT, EXCEPT PARAGRAPH 11, PARAGRAPH 14, PROVINCIAL SUCCESSION DUTIES AND ESCHEATS OR FORFEITURE TO THE CROWN, UP TO THE DATE OF CONVERSION AND EXCEPT PARAGRAPH 3 AND PARAGRAPH 14 THEREAFTER.
16901	0331	SUBSECTION 44 (1) OF THE LAND TITLES ACT, EXCEPT PARAGRAPH 11, PARAGRAPH 14, PROVINCIAL SUCCESSION DUTIES AND ESCHEATS OR FORFEITURE TO THE CROWN, UP TO THE DATE OF CONVERSION AND EXCEPT PARAGRAPH 3 AND PARAGRAPH 14 THEREAFTER.
16901	0332	SUBSECTION 44 (1) OF THE LAND TITLES ACT, EXCEPT PARAGRAPH 11, PARAGRAPH 14, PROVINCIAL SUCCESSION DUTIES AND ESCHEATS OR FORFEITURE TO THE CROWN, UP TO THE DATE OF CONVERSION AND EXCEPT PARAGRAPH 3 AND PARAGRAPH 14 THEREAFTER.
16901	0333	SUBSECTION 44 (1) OF THE LAND TITLES ACT, EXCEPT PARAGRAPH 11, PARAGRAPH 14, PROVINCIAL SUCCESSION DUTIES AND ESCHEATS OR FORFEITURE TO THE CROWN, UP TO THE DATE OF CONVERSION AND EXCEPT PARAGRAPH 3 AND PARAGRAPH 14 THEREAFTER.
16901	0334	SUBSECTION 44 (1) OF THE LAND TITLES ACT, EXCEPT PARAGRAPH 11, PARAGRAPH 14, PROVINCIAL SUCCESSION DUTIES AND ESCHEATS OR FORFEITURE TO THE CROWN, UP TO THE DATE OF CONVERSION AND EXCEPT PARAGRAPH 3 AND PARAGRAPH 14 THEREAFTER.
16901	0335	SUBSECTION 44 (1) OF THE LAND TITLES ACT, EXCEPT PARAGRAPH 11, PARAGRAPH 14, PROVINCIAL SUCCESSION DUTIES AND ESCHEATS OR FORFEITURE TO THE CROWN, UP TO THE DATE OF CONVERSION AND EXCEPT PARAGRAPH 3 AND PARAGRAPH 14 THEREAFTER.
16901	0336	SUBSECTION 44 (1) OF THE LAND TITLES ACT, EXCEPT PARAGRAPH 11, PARAGRAPH 14, PROVINCIAL SUCCESSION DUTIES AND ESCHEATS OR FORFEITURE TO THE CROWN, UP TO THE DATE OF CONVERSION AND EXCEPT PARAGRAPH 3 AND PARAGRAPH 14 THEREAFTER.
16901	0337	SUBSECTION 44 (1) OF THE LAND TITLES ACT, EXCEPT PARAGRAPH 11, PARAGRAPH 14, PROVINCIAL SUCCESSION DUTIES AND ESCHEATS OR FORFEITURE TO THE CROWN, UP TO THE DATE OF CONVERSION AND EXCEPT PARAGRAPH 3 AND PARAGRAPH 14 THEREAFTER.
16901	0338	SUBJECT TO SUBSECTION 44(1) OF THE LAND TITLES ACT, EXCEPT PARAGRAPHS 11 AND 14, PROVINCIAL SUCCESSION DUTIES AND ESCHEATS OR FORFEITURE TO THE CROWN, UP TO THE DATE OF CONVERSION AND EXCEPT PARAGRAPHS 3 AND 14 THEREAFTER.
16901	0339	SUBSECTION 44 (1) OF THE LAND TITLES ACT, EXCEPT PARAGRAPH 11, PARAGRAPH 14, PROVINCIAL SUCCESSION DUTIES AND ESCHEATS OR FORFEITURE TO THE CROWN, UP TO THE DATE OF CONVERSION AND EXCEPT PARAGRAPH 3 AND PARAGRAPH 14 THEREAFTER.
16901	0340	SUBSECTION 44 (1) OF THE LAND TITLES ACT, EXCEPT PARAGRAPH 11, PARAGRAPH 14, PROVINCIAL SUCCESSION DUTIES AND ESCHEATS OR FORFEITURE TO THE CROWN, UP TO THE DATE OF CONVERSION AND EXCEPT PARAGRAPH 3 AND PARAGRAPH 14 THEREAFTER.
16901	0341	SUBJECT TO SUBSECTION 44(1) OF THE LAND TITLES ACT, EXCEPT PARAGRAPH 11, PARAGRAPH 14, PROVINCIAL SUCCESSION DUTIES AND ESCHEATS OR FORFEITURE TO THE CROWN, UP TO THE DATE OF CONVERSION AND EXCEPT PARAGRAPHS 3 AND 14 THEREAFTER.
16901	0342	SUBJECT TO SUBSECTION 44(1) OF THE LAND TITLES ACT, EXCEPT PARAGRAPHS 11 AND 14, PROVINCIAL SUCCESSION DUTIES AND ESCHEATS OR FORFEITURE TO THE CROWN, UP TO THE DATE OF CONVERSION AND EXCEPT PARAGRAPHS 3 AND 14 THEREAFTER.
16901	0343	SUBJECT TO SUBSECTION 44(1) OF THE LAND TITLES ACT, EXCEPT PARAGRAPHS 11 AND 14, PROVINCIAL SUCCESSION DUTIES AND ESCHEATS OR FORFEITURE TO THE CROWN, UP TO THE DATE OF CONVERSION AND EXCEPT PARAGRAPHS 3 AND 14 THEREAFTER.
16901	0346	SUBJECT TO SUBSECTION 44(1) OF THE LAND TITLES ACT, EXCEPT PARAGRAPH 11, PARAGRAPH 14, PROVINCIAL SUCCESSION DUTIES AND ESCHEATS OR FORFEITURE TO THE CROWN, UP TO THE DATE OF CONVERSION, AND EXCEPT PARAGRAPH 3 AND PARAGRAPH 14 THEREAFTER. CORRECTION: INST
16901	0471	CORRECTION: INSTRUMENT NUMBER WE48655 WAS OMITTED FROM THIS PROPERTY IN ERROR AND WAS ADDED AND CERTIFIED ON 2001/11/30 BY HELEN MACMILLAN.
16901	0494	SUBJECT TO SUBSECTION 44(1) OF THE LAND TITLES ACT, EXCEPT PARAGRAPHS 11 AND 14 PROVINCIAL SUCCESSION DUTIES AND ESCHEATS OR FORFEITURE TO THE CROWN UP TO THE DATE OF CONVERSION AND EXCEPT PARAGRAPHS 3 AND 14 THEREAFTER.
16901	0496	SUBJECT TO SUBSECTION 44(1) OF THE LAND TITLES ACT, EXCEPT PARAGRAPHS 11 AND 14 PROVINCIAL SUCCESSION DUTIES AND ESCHEATS OR FORFEITURE TO THE CROWN UP TO THE DATE OF CONVERSION AND EXCEPT PARAGRAPHS 3 AND 14 THEREAFTER.
16901	0497	SUBJECT TO SUBSECTION 44(1) OF THE LAND TITLES ACT, EXCEPT PARAGRAPHS 11 AND 14 PROVINCIAL SUCCESSION DUTIES AND ESCHEATS OR FORFEITURE TO THE CROWN UP TO THE DATE OF CONVERSION AND EXCEPT PARAGRAPHS 3 AND 14 THEREAFTER.
16901	0498	SUBJECT TO SUBSECTION 44(1) OF THE LAND TITLES ACT, EXCEPT PARAGRAPHS 11 AND 14 PROVINCIAL SUCCESSION DUTIES AND ESCHEATS OR FORFEITURE TO THE CROWN UP TO THE DATE OF CONVERSION AND EXCEPT PARAGRAPHS 3 AND 14 THEREAFTER.
16901	0499	SUBJECT TO SUBSECTION 44(1) OF THE LAND TITLES ACT, EXCEPT PARAGRAPHS 11 AND 14 PROVINCIAL SUCCESSION DUTIES AND ESCHEATS OR FORFEITURE TO THE CROWN UP TO THE DATE OF CONVERSION AND EXCEPT PARAGRAPHS 3 AND 14 THEREAFTER.
16901	0500	SUBJECT TO SUBSECTION 44(1) OF THE LAND TITLES ACT, EXCEPT PARAGRAPHS 11 AND 14 PROVINCIAL SUCCESSION DUTIES AND ESCHEATS OR FORFEITURE TO THE CROWN UP TO THE DATE OF CONVERSION AND EXCEPT PARAGRAPHS 3 AND 14 THEREAFTER.
16901	0501	SUBJECT TO SUBSECTION 44(1) OF THE LAND TITLES ACT, EXCEPT PARAGRAPHS 11 AND 14 PROVINCIAL SUCCESSION DUTIES AND ESCHEATS OR FORFEITURE TO THE CROWN UP TO THE DATE OF CONVERSION AND EXCEPT PARAGRAPHS 3 AND 14 THEREAFTER.
16901	0502	SUBJECT TO SUBSECTION 44(1) OF THE LAND TITLES ACT, EXCEPT PARAGRAPHS 11 AND 14 PROVINCIAL SUCCESSION DUTIES AND ESCHEATS OR FORFEITURE TO THE CROWN UP TO THE DATE OF CONVERSION AND EXCEPT PARAGRAPHS 3 AND 14 THEREAFTER.
16901	0503	SUBJECT TO SUBSECTION 44(1) OF THE LAND TITLES ACT, EXCEPT PARAGRAPHS 11 AND 14 PROVINCIAL SUCCESSION DUTIES AND ESCHEATS OR FORFEITURE TO THE CROWN UP TO THE DATE OF CONVERSION AND EXCEPT PARAGRAPHS 3 AND 14 THEREAFTER.
16901	0504	SUBJECT TO SUBSECTION 44(1) OF THE LAND TITLES ACT, EXCEPT PARAGRAPHS 11 AND 14 PROVINCIAL SUCCESSION DUTIES AND ESCHEATS OR FORFEITURE TO THE CROWN UP TO THE DATE OF CONVERSION AND EXCEPT PARAGRAPHS 3 AND 14 THEREAFTER.
16901	0505	SUBJECT TO SUBSECTION 44(1) OF THE LAND TITLES ACT, EXCEPT PARAGRAPHS 11 AND 14 PROVINCIAL SUCCESSION DUTIES AND ESCHEATS OR FORFEITURE TO THE CROWN UP TO THE DATE OF CONVERSION AND EXCEPT PARAGRAPHS 3 AND 14 THEREAFTER.
16901	0506	SUBJECT TO SUBSECTION 44(1) OF THE LAND TITLES ACT, EXCEPT PARAGRAPHS 11 AND 14 PROVINCIAL SUCCESSION DUTIES AND ESCHEATS OR FORFEITURE TO THE CROWN UP TO THE DATE OF CONVERSION AND EXCEPT PARAGRAPHS 3 AND 14 THEREAFTER.
16901	0507	SUBJECT TO SUBSECTION 44(1) OF THE LAND TITLES ACT, EXCEPT PARAGRAPHS 11 AND 14 PROVINCIAL SUCCESSION DUTIES AND ESCHEATS OR FORFEITURE TO THE CROWN UP TO THE DATE OF CONVERSION AND EXCEPT PARAGRAPHS 3 AND 14 THEREAFTER.
16901	0508	SUBJECT TO SUBSECTION 44(1) OF THE LAND TITLES ACT, EXCEPT PARAGRAPHS 11 AND 14 PROVINCIAL SUCCESSION DUTIES AND ESCHEATS OR FORFEITURE TO THE CROWN UP TO THE DATE OF CONVERSION AND EXCEPT PARAGRAPHS 3 AND 14 THEREAFTER.
16901	0509	SUBJECT TO SUBSECTION 44(1) OF THE LAND TITLES ACT, EXCEPT PARAGRAPHS 11 AND 14 PROVINCIAL SUCCESSION DUTIES AND ESCHEATS OR FORFEITURE TO THE CROWN UP TO THE DATE OF CONVERSION AND EXCEPT PARAGRAPHS 3 AND 14 THEREAFTER.
16901	0510	SUBJECT TO SUBSECTION 44(1) OF THE LAND TITLES ACT, EXCEPT PARAGRAPHS 11 AND 14 PROVINCIAL SUCCESSION DUTIES AND ESCHEATS OR FORFEITURE TO THE CROWN UP TO THE DATE OF CONVERSION AND EXCEPT PARAGRAPHS 3 AND 14 THEREAFTER.
16901	0511	SUBJECT TO SUBSECTION 44(1) OF THE LAND TITLES ACT, EXCEPT PARAGRAPHS 11 AND 14 PROVINCIAL SUCCESSION DUTIES AND ESCHEATS OR FORFEITURE TO THE CROWN UP TO THE DATE OF CONVERSION AND EXCEPT PARAGRAPHS 3 AND 14 THEREAFTER.
16901	0512	SUBJECT TO SUBSECTION 44(1) OF THE LAND TITLES ACT, EXCEPT PARAGRAPHS 11 AND 14 PROVINCIAL SUCCESSION DUTIES AND ESCHEATS OR FORFEITURE TO THE CROWN UP TO THE DATE OF CONVERSION AND EXCEPT PARAGRAPHS 3 AND 14 THEREAFTER.
16901	0513	SUBJECT TO SUBSECTION 44(1) OF THE LAND TITLES ACT, EXCEPT PARAGRAPHS 11 AND 14 PROVINCIAL SUCCESSION DUTIES AND ESCHEATS OR FORFEITURE TO THE CROWN UP TO THE DATE OF CONVERSION AND EXCEPT PARAGRAPHS 3 AND 14 THEREAFTER.
16901	0514	SUBJECT TO SUBSECTION 44(1) OF THE LAND TITLES ACT, EXCEPT PARAGRAPHS 11 AND 14 PROVINCIAL SUCCESSION DUTIES AND ESCHEATS OR FORFEITURE TO THE CROWN UP TO THE DATE OF CONVERSION AND EXCEPT PARAGRAPHS 3 AND 14 THEREAFTER.
16901	0515	SUBJECT TO SUBSECTION 44(1) OF THE LAND TITLES ACT, EXCEPT PARAGRAPHS 11 AND 14 PROVINCIAL SUCCESSION DUTIES AND ESCHEATS OR FORFEITURE TO THE CROWN UP TO THE DATE OF CONVERSION AND EXCEPT PARAGRAPHS 3 AND 14 THEREAFTER.
16901	0516	SUBJECT TO SUBSECTION 44(1) OF THE LAND TITLES ACT, EXCEPT PARAGRAPHS 11 AND 14 PROVINCIAL SUCCESSION DUTIES AND ESCHEATS OR FORFEITURE TO THE CROWN UP TO THE DATE OF CONVERSION AND EXCEPT PARAGRAPHS 3 AND 14 THEREAFTER.
16901	0517	SUBJECT TO SUBSECTION 44(1) OF THE LAND TITLES ACT, EXCEPT PARAGRAPHS 11 AND 14 PROVINCIAL SUCCESSION DUTIES AND ESCHEATS OR FORFEITURE TO THE CROWN UP TO THE DATE OF CONVERSION AND EXCEPT PARAGRAPHS 3 AND 14 THEREAFTER.
16901	0518	SUBJECT TO SUBSECTION 44(1) OF THE LAND TITLES ACT, EXCEPT PARAGRAPHS 11 AND 14 PROVINCIAL SUCCESSION DUTIES AND ESCHEATS OR FORFEITURE TO THE CROWN UP TO THE DATE OF CONVERSION AND EXCEPT PARAGRAPHS 3 AND 14 THEREAFTER.
16901	0519	SUBJECT TO SUBSECTION 44(1) OF THE LAND TITLES ACT, EXCEPT PARAGRAPHS 11 AND 14 PROVINCIAL SUCCESSION DUTIES AND ESCHEATS OR FORFEITURE TO THE CROWN UP TO THE DATE OF CONVERSION AND EXCEPT PARAGRAPHS 3 AND 14 THEREAFTER.
16901	0520	SUBJECT TO SUBSECTION 44(1) OF THE LAND TITLES ACT, EXCEPT PARAGRAPHS 11 AND 14 PROVINCIAL SUCCESSION DUTIES AND ESCHEATS OR FORFEITURE TO THE CROWN UP TO THE DATE OF CONVERSION AND EXCEPT PARAGRAPHS 3 AND 14 THEREAFTER.
16901	0521	SUBJECT TO SUBSECTION 44(1) OF THE LAND TITLES ACT, EXCEPT PARAGRAPHS 11 AND 14 PROVINCIAL SUCCESSION DUTIES AND ESCHEATS OR FORFEITURE TO THE CROWN UP TO THE DATE OF CONVERSION AND EXCEPT PARAGRAPHS 3 AND 14 THEREAFTER.
16901	0522	SUBJECT TO SUBSECTION 44(1) OF THE LAND TITLES ACT, EXCEPT PARAGRAPHS 11 AND 14 PROVINCIAL SUCCESSION DUTIES AND ESCHEATS OR FORFEITURE TO THE CROWN UP TO THE DATE OF CONVERSION AND EXCEPT PARAGRAPHS 3 AND 14 THEREAFTER.
16901	0523	SUBJECT TO SUBSECTION 44(1) OF THE LAND TITLES ACT, EXCEPT PARAGRAPHS 11 AND 14 PROVINCIAL SUCCESSION DUTIES AND ESCHEATS OR FORFEITURE TO THE CROWN UP TO THE DATE OF CONVERSION AND EXCEPT PARAGRAPHS 3 AND 14 THEREAFTER.
16901	0524	SUBJECT TO SUBSECTION 44(1) OF THE LAND TITLES ACT, EXCEPT PARAGRAPHS 11 AND 14 PROVINCIAL SUCCESSION DUTIES AND ESCHEATS OR FORFEITURE TO THE CROWN UP TO THE DATE OF CONVERSION AND EXCEPT PARAGRAPHS 3 AND 14 THEREAFTER.
16901	0525	SUBJECT TO SUBSECTION 44(1) OF THE LAND TITLES ACT, EXCEPT PARAGRAPHS 11 AND 14 PROVINCIAL SUCCESSION DUTIES AND ESCHEATS OR FORFEITURE TO THE CROWN UP TO THE DATE OF CONVERSION AND EXCEPT PARAGRAPHS 3 AND 14 THEREAFTER.
16901	0526	SUBJECT TO SUBSECTION 44(1) OF THE LAND TITLES ACT, EXCEPT PARAGRAPHS 11 AND 14 PROVINCIAL SUCCESSION DUTIES AND ESCHEATS OR FORFEITURE TO THE CROWN UP TO THE DATE OF CONVERSION AND EXCEPT PARAGRAPHS 3 AND 14 THEREAFTER.
16901	0527	SUBJECT TO SUBSECTION 44(1) OF THE LAND TITLES ACT, EXCEPT PARAGRAPHS 11 AND 14 PROVINCIAL SUCCESSION DUTIES AND ESCHEATS OR FORFEITURE TO THE CROWN UP TO THE DATE OF CONVERSION AND EXCEPT PARAGRAPHS 3 AND 14 THEREAFTER.
16901	0528	SUBJECT TO SUBSECTION 44(1) OF THE LAND TITLES ACT, EXCEPT PARAGRAPHS 11 AND 14 PROVINCIAL SUCCESSION DUTIES AND ESCHEATS OR FORFEITURE TO THE CROWN UP TO THE DATE OF CONVERSION AND EXCEPT PARAGRAPHS 3 AND 14 THEREAFTER.
16901	0529	SUBJECT TO SUBSECTION 44(1) OF THE LAND TITLES ACT, EXCEPT PARAGRAPHS 11 AND 14 PROVINCIAL SUCCESSION DUTIES AND ESCHEATS OR FORFEITURE TO THE CROWN UP TO THE DATE OF CONVERSION AND EXCEPT PARAGRAPHS 3 AND 14 THEREAFTER.
16901	0530	SUBJECT TO SUBSECTION 44(1) OF THE LAND TITLES ACT, EXCEPT PARAGRAPHS 11 AND 14 PROVINCIAL SUCCESSION DUTIES AND ESCHEATS OR FORFEITURE TO THE CROWN UP TO THE DATE OF CONVERSION AND EXCEPT PARAGRAPHS 3 AND 14 THEREAFTER.
16901	0531	SUBJECT TO SUBSECTION 44(1) OF THE LAND TITLES ACT, EXCEPT PARAGRAPHS 11 AND 14 PROVINCIAL SUCCESSION DUTIES AND ESCHEATS OR FORFEITURE TO THE CROWN UP TO THE DATE OF CONVERSION AND EXCEPT PARAGRAPHS 3 AND 14 THEREAFTER.
16901	0532	SUBJECT TO SUBSECTION 44(1) OF THE LAND TITLES ACT, EXCEPT PARAGRAPHS 11 AND 14 PROVINCIAL SUCCESSION DUTIES AND ESCHEATS OR FORFEITURE TO THE CROWN UP TO THE DATE OF CONVERSION AND EXCEPT PARAGRAPHS 3 AND 14 THEREAFTER.
16901	0533	SUBJECT TO SUBSECTION 44(1) OF THE LAND TITLES ACT, EXCEPT PARAGRAPHS 11 AND 14 PROVINCIAL SUCCESSION DUTIES AND ESCHEATS OR FORFEITURE TO THE CROWN UP TO THE DATE OF CONVERSION AND EXCEPT PARAGRAPHS 3 AND 14 THEREAFTER.
16901	0534	SUBJECT TO SUBSECTION 44(1) OF THE LAND TITLES ACT, EXCEPT PARAGRAPHS 11 AND 14 PROVINCIAL SUCCESSION DUTIES AND ESCHEATS OR FORFEITURE TO THE CROWN UP TO THE DATE OF CONVERSION AND EXCEPT PARAGRAPHS 3 AND 14 THEREAFTER.
16901	0535	SUBJECT TO SUBSECTION 44(1) OF THE LAND TITLES ACT, EXCEPT PARAGRAPHS 11 AND 14 PROVINCIAL SUCCESSION DUTIES AND ESCHEATS OR FORFEITURE TO THE CROWN UP TO THE DATE OF CONVERSION AND EXCEPT PARAGRAPHS 3 AND 14 THEREAFTER.
16901	0536	SUBJECT TO SUBSECTION 44(1) OF THE LAND TITLES ACT, EXCEPT PARAGRAPHS 11 AND 14 PROVINCIAL SUCCESSION DUTIES AND ESCHEATS OR FORFEITURE TO THE CROWN UP TO THE DATE OF CONVERSION AND EXCEPT PARAGRAPHS 3 AND 14 THEREAFTER.
16901	0537	SUBJECT TO SUBSECTION 44(1) OF THE LAND TITLES ACT, EXCEPT PARAGRAPHS 11 AND 14 PROVINCIAL SUCCESSION DUTIES AND ESCHEATS OR FORFEITURE TO THE CROWN UP TO THE DATE OF CONVERSION AND EXCEPT PARAGRAPHS 3 AND 14 THEREAFTER.
16901	0538	SUBJECT TO SUBSECTION 44(1) OF THE LAND TITLES ACT, EXCEPT PARAGRAPHS 11 AND 14 PROVINCIAL SUCCESSION DUTIES AND ESCHEATS OR FORFEITURE TO THE CROWN UP TO THE DATE OF CONVERSION AND EXCEPT PARAGRAPHS 3 AND 14 THEREAFTER.
16901	0539	SUBJECT TO SUBSECTION 44(1) OF THE LAND TITLES ACT, EXCEPT PARAGRAPHS 11 AND 14 PROVINCIAL SUCCESSION DUTIES AND ESCHEATS OR FORFEITURE TO THE CROWN UP TO THE DATE OF CONVERSION AND EXCEPT PARAGRAPHS 3 AND 14 THEREAFTER.
16901	0540	SUBJECT TO SUBSECTION 44(1) OF THE LAND TITLES ACT, EXCEPT PARAGRAPHS 11 AND 14 PROVINCIAL SUCCESSION DUTIES AND ESCHEATS OR FORFEITURE TO THE CROWN UP TO THE DATE OF CONVERSION AND EXCEPT PARAGRAPHS 3 AND 14 THEREAFTER.
16901	0541	SUBJECT TO SUBSECTION 44(1) OF THE LAND TITLES ACT, EXCEPT PARAGRAPHS 11 AND 14 PROVINCIAL SUCCESSION DUTIES AND ESCHEATS OR FORFEITURE TO THE CROWN UP TO THE DATE OF CONVERSION AND EXCEPT PARAGRAPHS 3 AND 14 THEREAFTER.
16901	0542	SUBJECT TO SUBSECTION 44(1) OF THE LAND TITLES ACT, EXCEPT PARAGRAPHS 11 AND 14 PROVINCIAL SUCCESSION DUTIES AND ESCHEATS OR FORFEITURE TO THE CROWN UP TO THE DATE OF CONVERSION AND EXCEPT PARAGRAPHS 3 AND 14 THEREAFTER.
16901	0543	SUBJECT TO SUBSECTION 44(1) OF THE LAND TITLES ACT, EXCEPT PARAGRAPHS 11 AND 14 PROVINCIAL SUCCESSION DUTIES AND ESCHEATS OR FORFEITURE TO THE CROWN UP TO THE DATE OF CONVERSION AND EXCEPT PARAGRAPHS 3 AND 14 THEREAFTER.
16901	0544	SUBJECT TO SUBSECTION 44(1) OF THE LAND TITLES ACT, EXCEPT PARAGRAPHS 11 AND 14 PROVINCIAL SUCCESSION DUTIES AND ESCHEATS OR FORFEITURE TO THE CROWN UP TO THE DATE OF CONVERSION AND EXCEPT PARAGRAPHS 3 AND 14 THEREAFTER.
16901	0545	SUBJECT TO SUBSECTION 44(1) OF THE LAND TITLES ACT, EXCEPT PARAGRAPHS 11 AND 14 PROVINCIAL SUCCESSION DUTIES AND ESCHEATS OR FORFEITURE TO THE CROWN UP TO THE DATE OF CONVERSION AND EXCEPT PARAGRAPHS 3 AND 14 THEREAFTER.
16901	0546	SUBJECT TO SUBSECTION 44(1) OF THE LAND TITLES ACT, EXCEPT PARAGRAPHS 11 AND 14 PROVINCIAL SUCCESSION DUTIES AND ESCHEATS OR FORFEITURE TO THE CROWN UP TO THE DATE OF CONVERSION AND EXCEPT PARAGRAPHS 3 AND 14 THEREAFTER.
16901	0547	SUBJECT TO SUBSECTION 44(1) OF THE LAND TITLES ACT, EXCEPT PARAGRAPHS 11 AND 14 PROVINCIAL SUCCESSION DUTIES AND ESCHEATS OR FORFEITURE TO THE CROWN UP TO THE DATE OF CONVERSION AND EXCEPT PARAGRAPHS 3 AND 14 THEREAFTER.
16901	0548	SUBJECT TO SUBSECTION 44(1) OF THE LAND TITLES ACT, EXCEPT PARAGRAPHS 11 AND 14 PROVINCIAL SUCCESSION DUTIES AND ESCHEATS OR FORFEITURE TO THE CROWN UP TO THE DATE OF CONVERSION AND EXCEPT PARAGRAPHS 3 AND 14 THEREAFTER.
16901	0549	SUBJECT TO SUBSECTION 44(1) OF THE LAND TITLES ACT, EXCEPT PARAGRAPHS 11 AND 14 PROVINCIAL SUCCESSION DUTIES AND ESCHEATS OR FORFEITURE TO THE CROWN UP TO THE DATE OF CONVERSION AND EXCEPT PARAGRAPHS 3 AND 14 THEREAFTER.
16901	0550	SUBJECT TO SUBSECTION 44(1) OF THE LAND TITLES ACT, EXCEPT PARAGRAPHS 11 AND 14 PROVINCIAL SUCCESSION DUTIES AND ESCHEATS OR FORFEITURE TO THE CROWN UP TO THE DATE OF CONVERSION AND EXCEPT PARAGRAPHS 3 AND 14 THEREAFTER.
16901	0551	SUBJECT TO SUBSECTION 44(1) OF THE LAND TITLES ACT, EXCEPT PARAGRAPHS 11 AND 14 PROVINCIAL SUCCESSION DUTIES AND ESCHEATS OR FORFEITURE TO THE CROWN UP TO THE DATE OF CONVERSION AND EXCEPT PARAGRAPHS 3 AND 14 THEREAFTER.
16901	0552	SUBJECT TO SUBSECTION 44(1) OF THE LAND TITLES ACT, EXCEPT PARAGRAPHS 11 AND 14 PROVINCIAL SUCCESSION DUTIES AND ESCHEATS OR FORFEITURE TO THE CROWN UP TO THE DATE OF CONVERSION AND EXCEPT PARAGRAPHS 3 AND 14 THEREAFTER.
16901	0553	SUBJECT TO SUBSECTION 44(1) OF THE LAND TITLES ACT, EXCEPT PARAGRAPHS 11 AND 14 PROVINCIAL SUCCESSION DUTIES AND ESCHEATS OR FORFEITURE TO THE CROWN UP TO THE DATE OF CONVERSION AND EXCEPT PARAGRAPHS 3 AND 14 THEREAFTER.
16901	0554	SUBJECT TO SUBSECTION 44(1) OF THE LAND TITLES ACT, EXCEPT PARAGRAPHS 11 AND 14 PROVINCIAL SUCCESSION DUTIES AND ESCHEATS OR FORFEITURE TO THE CROWN UP TO THE DATE OF CONVERSION AND EXCEPT PARAGRAPHS 3 AND 14 THEREAFTER.
16901	0555	SUBJECT TO SUBSECTION 44(1) OF THE LAND TITLES ACT, EXCEPT PARAGRAPHS 11 AND 14 PROVINCIAL SUCCESSION DUTIES AND ESCHEATS OR FORFEITURE TO THE CROWN UP TO THE DATE OF CONVERSION AND EXCEPT PARAGRAPHS 3 AND 14 THEREAFTER.
16901	0556	SUBJECT TO SUBSECTION 44(1) OF THE LAND TITLES ACT, EXCEPT PARAGRAPHS 11 AND 14 PROVINCIAL SUCCESSION DUTIES AND ESCHEATS OR FORFEITURE TO THE CROWN UP TO THE DATE OF CONVERSION AND EXCEPT PARAGRAPHS 3 AND 14 THEREAFTER.
16901	0557	SUBJECT TO SUBSECTION 44(1) OF THE LAND TITLES ACT, EXCEPT PARAGRAPHS 11 AND 14 PROVINCIAL SUCCESSION DUTIES AND ESCHEATS OR FORFEITURE TO THE CROWN UP TO THE DATE OF CONVERSION AND EXCEPT PARAGRAPHS 3 AND 14 THEREAFTER.
16901	0558	SUBJECT TO SUBSECTION 44(1) OF THE LAND TITLES ACT, EXCEPT PARAGRAPHS 11 AND 14 PROVINCIAL SUCCESSION DUTIES AND ESCHEATS OR FORFEITURE TO THE CROWN UP TO THE DATE OF CONVERSION AND EXCEPT PARAGRAPHS 3 AND 14 THEREAFTER.
16901	0559	SUBJECT TO SUBSECTION 44(1) OF THE LAND TITLES ACT, EXCEPT PARAGRAPHS 11 AND 14 PROVINCIAL SUCCESSION DUTIES AND ESCHEATS OR FORFEITURE TO THE CROWN UP TO THE DATE OF CONVERSION AND EXCEPT PARAGRAPHS 3 AND 14 THEREAFTER.
16901	0560	SUBJECT TO SUBSECTION 44(1) OF THE LAND TITLES ACT, EXCEPT PARAGRAPHS 11 AND 14 PROVINCIAL SUCCESSION DUTIES AND ESCHEATS OR FORFEITURE TO THE CROWN UP TO THE DATE OF CONVERSION AND EXCEPT PARAGRAPHS 3 AND 14 THEREAFTER.
16901	0561	SUBJECT TO SUBSECTION 44(1) OF THE LAND TITLES ACT, EXCEPT PARAGRAPHS 11 AND 14 PROVINCIAL SUCCESSION DUTIES AND ESCHEATS OR FORFEITURE TO THE CROWN UP TO THE DATE OF CONVERSION AND EXCEPT PARAGRAPHS 3 AND 14 THEREAFTER.
16901	0562	SUBJECT TO SUBSECTION 44(1) OF THE LAND TITLES ACT, EXCEPT PARAGRAPHS 11 AND 14 PROVINCIAL SUCCESSION DUTIES AND ESCHEATS OR FORFEITURE TO THE CROWN UP TO THE DATE OF CONVERSION AND EXCEPT PARAGRAPHS 3 AND 14 THEREAFTER.
16901	0563	SUBJECT TO SUBSECTION 44(1) OF THE LAND TITLES ACT, EXCEPT PARAGRAPHS 11 AND 14 PROVINCIAL SUCCESSION DUTIES AND ESCHEATS OR FORFEITURE TO THE CROWN UP TO THE DATE OF CONVERSION AND EXCEPT PARAGRAPHS 3 AND 14 THEREAFTER.
16901	0564	SUBJECT TO SUBSECTION 44(1) OF THE LAND TITLES ACT, EXCEPT PARAGRAPHS 11 AND 14 PROVINCIAL SUCCESSION DUTIES AND ESCHEATS OR FORFEITURE TO THE CROWN UP TO THE DATE OF CONVERSION AND EXCEPT PARAGRAPHS 3 AND 14 THEREAFTER.
16901	0565	SUBJECT TO SUBSECTION 44(1) OF THE LAND TITLES ACT, EXCEPT PARAGRAPHS 11 AND 14 PROVINCIAL SUCCESSION DUTIES AND ESCHEATS OR FORFEITURE TO THE CROWN UP TO THE DATE OF CONVERSION AND EXCEPT PARAGRAPHS 3 AND 14 THEREAFTER.
16901	0566	SUBJECT TO SUBSECTION 44(1) OF THE LAND TITLES ACT, EXCEPT PARAGRAPHS 11 AND 14 PROVINCIAL SUCCESSION DUTIES AND ESCHEATS OR FORFEITURE TO THE CROWN UP TO THE DATE OF CONVERSION AND EXCEPT PARAGRAPHS 3 AND 14 THEREAFTER. CORRECTION: INSTRUMENT NUMBER VM20
16901	0567	SUBJECT TO SUBSECTION 44(1) OF THE LAND TITLES ACT, EXCEPT PARAGRAPHS 11 & 14, PROVINCIAL SUCCESSION DUTIES AND ESCHEATS OR FORFEITURE TO THE CROWN UP TO THE DATE OF CONVERSION, AND EXCEPT PARAGRAPHS 3 AND 14 THEREAFTER.
16901	0568	SUBJECT TO SUBSECTION 44(1) OF THE LAND TITLES ACT, EXCEPT PARAGRAPHS 11 AND 14 PROVINCIAL SUCCESSION DUTIES AND ESCHEATS OR FORFEITURE TO THE CROWN UP TO THE DATE OF CONVERSION AND EXCEPT PARAGRAPHS 3 AND 14 THEREAFTER. CORRECTION: INSTRUMENT NUMBER VM20
16901	0569	SUBJECT TO SUBSECTION 44(1) OF THE LAND TITLES ACT, EXCEPT PARAGRAPHS 11 AND 14 PROVINCIAL SUCCESSION DUTIES AND ESCHEATS OR FORFEITURE TO THE CROWN UP TO THE DATE OF CONVERSION AND EXCEPT PARAGRAPHS 3 AND 14 THEREAFTER.
16901	0570	SUBJECT TO SUBSECTION 44(1) OF THE LAND TITLES ACT, EXCEPT PARAGRAPHS 11 AND 14 PROVINCIAL SUCCESSION DUTIES AND ESCHEATS OR FORFEITURE TO THE CROWN UP TO THE DATE OF CONVERSION AND EXCEPT PARAGRAPHS 3 AND 14 THEREAFTER.
16901	0571	SUBJECT TO SUBSECTION 44(1) OF THE LAND TITLES ACT, EXCEPT PARAGRAPHS 11 AND 14 PROVINCIAL SUCCESSION DUTIES AND ESCHEATS OR FORFEITURE TO THE CROWN UP TO THE DATE OF CONVERSION AND EXCEPT PARAGRAPHS 3 AND 14 THEREAFTER.
16901	0572	SUBJECT TO SUBSECTION 44(1) OF THE LAND TITLES ACT, EXCEPT PARAGRAPHS 11 AND 14 PROVINCIAL SUCCESSION DUTIES AND ESCHEATS OR FORFEITURE TO THE CROWN UP TO THE DATE OF CONVERSION AND EXCEPT PARAGRAPHS 3 AND 14 THEREAFTER.
16901	0573	SUBJECT TO SUBSECTION 44(1) OF THE LAND TITLES ACT, EXCEPT PARAGRAPHS 11 AND 14 PROVINCIAL SUCCESSION DUTIES AND ESCHEATS OR FORFEITURE TO THE CROWN UP TO THE DATE OF CONVERSION AND EXCEPT PARAGRAPHS 3 AND 14 THEREAFTER.
16901	0574	SUBJECT TO SUBSECTION 44(1) OF THE LAND TITLES ACT, EXCEPT PARAGRAPHS 11 AND 14 PROVINCIAL SUCCESSION DUTIES AND ESCHEATS OR FORFEITURE TO THE CROWN UP TO THE DATE OF CONVERSION AND EXCEPT PARAGRAPHS 3 AND 14 THEREAFTER.
16901	0575	SUBJECT TO SUBSECTION 44(1) OF THE LAND TITLES ACT EXCEPT PARAGRAPHS 11 AND 14, PROVINCIAL SUCCESSION DUTIES AND ESCHEATS OR FORFEITURE TO THE CROWN UP TO THE DATE OF CONVERSION AND EXCEPT PARAGRAPHS 3 AND 14 THEREAFTER.
16901	0576	SUBJECT TO SUBSECTION 44(1) OF THE LAND TITLES ACT EXCEPT PARAGRAPHS 11 AND 14 PROVINCIAL SUCCESSION DUTIES AND ESCHEATS OR FORFEITURE TO THE CROWN UP TO THE DATE OF CONVERSION AND EXCEPT PARAGRAPHS 3 AND 14 THEREAFTER.
16901	0577	SUBJECT TO SUBSECTION 44(1) OF THE LAND TITLES ACT, EXCEPT PARAGRAPHS 11 AND 14, PROVINCIAL SUCCESSION DUTIES AND ESCHEATS OR FORFEITURE TO THE CROWN UP TO THE DATE OF CONVERSION AND EXCEPT PARAGRAPHS 3 AND 14 THEREAFTER.
16901	0583	SUBJECT TO SUBSECTION 44(1) OF THE LAND TITLES ACT, EXCEPT PARAGRAPHS 11 AND 14, PROVINCIAL SUCCESSION DUTIES AND ESCHEATS OR FORFEITURE TO THE CROWN UP TO THE DATE OF CONVERSION AND EXCEPT PARAGRAPHS 3 AND 14 THEREAFTER.
16901	0584	SUBJECT TO SUBSECTION 44(1) OF THE LAND TITLES ACT, EXCEPT PARAGRAPHS 11 AND 14, PROVINCIAL SUCCESSION DUTIES AND ESCHEATS OR FORFEITURE TO THE CROWN UP TO THE DATE OF CONVERSION AND EXCEPT PARAGRAPHS 3 AND 14 THEREAFTER.
16901	0585	SUBJECT TO SUBSECTION 44(1) OF THE LAND TITLES ACT, EXCEPT PARAGRAPHS 11 AND 14, PROVINCIAL SUCCESSION DUTIES AND ESCHEATS OR FORFEITURE TO THE CROWN UP TO THE DATE OF CONVERSION AND EXCEPT PARAGRAPHS 3 AND 14 THEREAFTER.
16901	0594	CORRECTION: INSTRUMENT NUMBER WE298791 WAS OMITTED FROM THIS PROPERTY IN ERROR AND WAS ADDED AND CERTIFIED ON 2005/03/29 BY CHRISTINE HOARAN.
16901	0604	"FOR THE PURPOSE OF THE QUALIFIER THE DATE OF REGISTRATION OF ABSOLUTE TITLE IS 2005/11/18".
16901	0605	"FOR THE PURPOSE OF THE QUALIFIER THE DATE OF REGISTRATION OF ABSOLUTE TITLE IS 2005/11/18".
16901	0616	CONSENT COMMITTEE OF ADJUSTMENT IN WE424811.
16902	0005	CORRECTION: DOCUMENT WE10056121 ADDED TO 16902-0005 ON 2023/01/14 AT 23:16 BY STURINO, NADINE. CORRECTION: DOCUMENT WE10056121 REMOVED FROM 16902-0005 ON 2023/01/14 AT 23:17 BY STURINO, NADINE. CORRECTION: DOCUMENT WE10056121 ADDED TO 16902-0005 ON 2023/0
16902	0008	CORRECTION: DOCUMENT WE10056121 REMOVED FROM 16902-0008 ON 2023/01/16 AT 10:18 BY STURINO, NADINE. CORRECTION: DOCUMENT WE10056121 ADDED TO 16902-0008 ON 2023/01/16 AT 15:07 BY STURINO, NADINE. CORRECTION: DOCUMENT WE10056121 REMOVED FROM 16902-0008 ON 20
16902	0035	CORRECTION: INSTRUMENT NUMBER HL82795 WAS OMITTED FROM THIS PROPERTY IN ERROR AND WAS ADDED AND CERTIFIED ON 1997/01/07 BY MARLENE HUNTER.
16902	0192	CORRECTION: INSTRUMENT NUMBER HL82795 WAS OMITTED FROM THIS PROPERTY IN ERROR AND WAS ADDED AND CERTIFIED ON 1997/01/07 BY MARLENE HUNTER.
16902	0193	CORRECTION: INSTRUMENT NUMBER HL82795 WAS OMITEED FROM THIS PROPERTY IN ERROR AND WAS ADDED AND CERTIFIED ON 1997/01/07 BY MARLENE HUNTER.
16902	0200	CORRECTION: INSTRUMENT NUMBER WE38736 WAS OMITTED FROM THIS PROPERTY IN ERROR AND WAS ADDED AND CERTIFIED ON 2002/05/30 BY ANNE MARIE BERTRAND.
16905	0035	THE FOLLOWING REMARK HAS BEEN ADDED ON 2003/07/22 AT 11:22 BY HELEN MACMILLAN : CONSENT LAND DIVISION COMMITTEE AS IN LT363692.
16905	0079	CORRECTION: INSTRUMENT NUMBER LT344983 WAS OMITTED FROM THIS PROPERTY IN ERROR AND WAS ADDED AND CERTIFIED ON 1996/02/02 BY MARLENE HUNTER.
16905	0352	THE FOLLOWING REMARK HAS BEEN ADDED ON 2000/07/13 AT 16:48 BY LYN WEAVER : S/T RT TO ENTER WITHIN 3 YS FROM 2000 06 22 IN LT606413 AFTER COMPLE TION DATE OF FINISHED RDS.INCL'D RT YO ENTER AS IN LT526777.
16905	0371	THE FOLLOWING REMARK HAS BEEN ADDED ON 2000/07/10 AT 14:15 BY LYN WEAVER : S/T RT TO ENTER UPON WITHIN 3 YEARS AFTER COMPLETION DATE OF FINISHED ROADS AS OF 2000 06 16 AS IN LT605557.
16905	0417	SUBJECT ON THE DATE OF REGISTRATION 97/10/22 TO SUBSECTION 44(1) OF THE LAND TITLES ACT EXCEPT PARAGRAPHS 3 AND 14 THEREOF AND PROVINCIAL SUCCESSION DUTIES.
16905	0418	SUBJECT ON THE DATE OF REGISTRATION 97/10/22 TO SUBSECTION 44(1) OF THE LAND TITLES ACT EXCEPT PARAGRAPHS 3 AND 14 THEREOF AND PROVINCIAL SUCCESSION DUTIES.
16905	0419	SUBJECT ON THE DATE OF REGISTRATION 97/10/22 TO SUBSECTION 44(1) OF THE LAND TITLES ACT EXCEPT PARAGRAPHS 3 AND 14 THEREOF AND PROVINCIAL SUCCESSION DUTIES.
16905	0420	SUBJECT ON THE DATE OF REGISTRATION 97/10/22 TO SUBSECTION 44(1) OF THE LAND TITLES ACT EXCEPT PARAGRAPHS 3 AND 14 THEREOF AND PROVINCIAL SUCCESSION DUTIES.
16905	0421	SUBJECT ON THE DATE OF REGISTRATION 97/10/22 TO SUBSECTION 44(1) OF THE LAND TITLES ACT EXCEPT PARAGRAPHS 3 AND 14 THEREOF AND PROVINCIAL SUCCESSION DUTIES.
16905	0422	SUBJECT ON THE DATE OF REGISTRATION 97/10/22 TO SUBSECTION 44(1) OF THE LAND TITLES ACT EXCEPT PARAGRAPHS 3 AND 14 THEREOF AND PROVINCIAL SUCCESSION DUTIES.
16905	0423	SUBJECT ON THE DATE OF REGISTRATION 97/10/22 TO SUBSECTION 44(1) OF THE LAND TITLES ACT EXCEPT PARAGRAPHS 3 AND 14 THEREOF AND PROVINCIAL SUCCESSION DUTIES.
16905	0424	SUBJECT ON THE DATE OF REGISTRATION 97/10/22 TO SUBSECTION 44(1) OF THE LAND TITLES ACT EXCEPT PARAGRAPHS 3 AND 14 THEREOF AND PROVINCIAL SUCCESSION DUTIES.
16905	0425	SUBJECT ON THE DATE OF REGISTRATION 97/10/22 TO SUBSECTION 44(1) OF THE LAND TITLES ACT EXCEPT PARAGRAPHS 3 AND 14 THEREOF AND PROVINCIAL SUCCESSION DUTIES.
16905	0426	SUBJECT ON THE DATE OF REGISTRATION 97/10/22 TO SUBSECTION 44(1) OF THE LAND TITLES ACT EXCEPT PARAGRAPHS 3 AND 14 THEREOF AND PROVINCIAL SUCCESSION DUTIES.
16905	0427	SUBJECT ON THE DATE OF REGISTRATION 97/10/22 TO SUBSECTION 44(1) OF THE LAND TITLES ACT EXCEPT PARAGRAPHS 3 AND 14 THEREOF AND PROVINCIAL SUCCESSION DUTIES.
16905	0428	SUBJECT ON THE DATE OF REGISTRATION 97/10/22 TO SUBSECTION 44(1) OF THE LAND TITLES ACT EXCEPT PARAGRAPHS 3 AND 14 THEREOF AND PROVINCIAL SUCCESSION DUTIES.
16905	0429	SUBJECT ON THE DATE OF REGISTRATION 97/10/22 TO SUBSECTION 44(1) OF THE LAND TITLES ACT EXCEPT PARAGRAPHS 3 AND 14 THEREOF AND PROVINCIAL SUCCESSION DUTIES.
16905	0430	SUBJECT ON THE DATE OF REGISTRATION 97/10/22 TO SUBSECTION 44(1) OF THE LAND TITLES ACT EXCEPT PARAGRAPHS 3 AND 14 THEREOF AND PROVINCIAL SUCCESSION DUTIES.
16905	0431	SUBJECT ON THE DATE OF REGISTRATION 97/10/22 TO SUBSECTION 44(1) OF THE LAND TITLES ACT EXCEPT PARAGRAPHS 3 AND 14 THEREOF AND PROVINCIAL SUCCESSION DUTIES.
16905	0432	SUBJECT ON THE DATE OF REGISTRATION 97/10/22 TO SUBSECTION 44(1) OF THE LAND TITLES ACT EXCEPT PARAGRAPHS 3 AND 14 THEREOF AND PROVINCIAL SUCCESSION DUTIES.
16905	0433	SUBJECT ON THE DATE OF REGISTRATION 97/10/22 TO SUBSECTION 44(1) OF THE LAND TITLES ACT EXCEPT PARAGRAPHS 3 AND 14 THEREOF AND PROVINCIAL SUCCESSION DUTIES.
16905	0434	SUBJECT ON THE DATE OF REGISTRATION 97/10/22 TO SUBSECTION 44(1) OF THE LAND TITLES ACT EXCEPT PARAGRAPHS 3 AND 14 THEREOF AND PROVINCIAL SUCCESSION DUTIES.
16905	0435	SUBJECT ON THE DATE OF REGISTRATION 97/10/22 TO SUBSECTION 44(1) OF THE LAND TITLES ACT EXCEPT PARAGRAPHS 3 AND 14 THEREOF AND PROVINCIAL SUCCESSION DUTIES.
16905	0436	SUBJECT ON THE DATE OF REGISTRATION 97/10/22 TO SUBSECTION 44(1) OF THE LAND TITLES ACT EXCEPT PARAGRAPHS 3 AND 14 THEREOF AND PROVINCIAL SUCCESSION DUTIES.
16905	0437	SUBJECT ON THE DATE OF REGISTRATION 97/10/22 TO SUBSECTION 44(1) OF THE LAND TITLES ACT EXCEPT PARAGRAPHS 3 AND 14 THEREOF AND PROVINCIAL SUCCESSION DUTIES.
16905	0438	SUBJECT ON THE DATE OF REGISTRATION 97/10/22 TO SUBSECTION 44(1) OF THE LAND TITLES ACT EXCEPT PARAGRAPHS 3 AND 14 THEREOF AND PROVINCIAL SUCCESSION DUTIES.
16905	0439	SUBJECT ON THE DATE OF REGISTRATION 97/10/22 TO SUBSECTION 44(1) OF THE LAND TITLES ACT EXCEPT PARAGRAPHS 3 AND 14 THEREOF AND PROVINCIAL SUCCESSION DUTIES.
16905	0440	SUBJECT ON THE DATE OF REGISTRATION 97/10/22 TO SUBSECTION 44(1) OF THE LAND TITLES ACT EXCEPT PARAGRAPHS 3 AND 14 THEREOF AND PROVINCIAL SUCCESSION DUTIES.
16905	0441	SUBJECT ON THE DATE OF REGISTRATION 97/10/22 TO SUBSECTION 44(1) OF THE LAND TITLES ACT EXCEPT PARAGRAPHS 3 AND 14 THEREOF AND PROVINCIAL SUCCESSION DUTIES.
16905	0442	SUBJECT ON THE DATE OF REGISTRATION 97/10/22 TO SUBSECTION 44(1) OF THE LAND TITLES ACT EXCEPT PARAGRAPHS 3 AND 14 THEREOF AND PROVINCIAL SUCCESSION DUTIES.
16905	0443	SUBJECT ON THE DATE OF REGISTRATION 97/10/22 TO SUBSECTION 44(1) OF THE LAND TITLES ACT EXCEPT PARAGRAPHS 3 AND 14 THEREOF AND PROVINCIAL SUCCESSION DUTIES. CORRECTION: INSTRUMENT NUMBER WE187328 WAS OMITTED FROM THIS PROPERTY IN ERROR AND WAS ADDED AND C
16905	0444	SUBJECT ON THE DATE OF REGISTRATION 97/10/22 TO SUBSECTION 44(1) OF THE LAND TITLES ACT EXCEPT PARAGRAPHS 3 AND 14 THEREOF AND PROVINCIAL SUCCESSION DUTIES.
16905	0445	SUBJECT ON THE DATE OF REGISTRATION 97/10/22 TO SUBSECTION 44(1) OF THE LAND TITLES ACT EXCEPT PARAGRAPHS 3 AND 14 THEREOF AND PROVINCIAL SUCCESSION DUTIES.
16905	0446	SUBJECT ON THE DATE OF REGISTRATION 97/10/22 TO SUBSECTION 44(1) OF THE LAND TITLES ACT EXCEPT PARAGRAPHS 3 AND 14 THEREOF AND PROVINCIAL SUCCESSION DUTIES.
16905	0447	SUBJECT ON THE DATE OF REGISTRATION 97/10/22 TO SUBSECTION 44(1) OF THE LAND TITLES ACT EXCEPT PARAGRAPHS 3 AND 14 THEREOF AND PROVINCIAL SUCCESSION DUTIES.
16905	0448	SUBJECT ON THE DATE OF REGISTRATION 97/10/22 TO SUBSECTION 44(1) OF THE LAND TITLES ACT EXCEPT PARAGRAPHS 3 AND 14 THEREOF AND PROVINCIAL SUCCESSION DUTIES.
16905	0531	SUBJECT ON THE DATE OF REGISTRATION 97/10/22 TO SUBSECTION 44(1) OF THE LAND TITLES ACT EXCEPT PARAGRAPHS 3 AND 14 THEREOF AND PROVINCIAL SUCCESSION DUTIES.
16905	0535	SUBJECT ON THE DATE OF REGISTRATION 97/10/22 TO SUBSECTION 44(1) OF THE LAND TITLES ACT EXCEPT PARAGRAPHS 3 AND 14 THEREOF AND PROVINCIAL SUCCESSION DUTIES.
16905	0536	SUBJECT ON THE DATE OF REGISTRATION 97/10/22 TO SUBSECTION 44(1) OF THE LAND TITLES ACT EXCEPT PARAGRAPHS 3 AND 14 THEREOF AND PROVINCIAL SUCCESSION DUTIES.
16905	0537	SUBJECT ON THE DATE OF REGISTRATION 97/10/22 TO SUBSECTION 44(1) OF THE LAND TITLES ACT EXCEPT PARAGRAPHS 3 AND 14 THEREOF AND PROVINCIAL SUCCESSION DUTIES.
16905	0538	SUBJECT ON THE DATE OF REGISTRATION 97/10/22 TO SUBSECTION 44(1) OF THE LAND TITLES ACT EXCEPT PARAGRAPHS 3 AND 14 THEREOF AND PROVINCIAL SUCCESSION DUTIES.
16905	0539	SUBJECT ON THE DATE OF REGISTRATION 97/10/22 TO SUBSECTION 44(1) OF THE LAND TITLES ACT EXCEPT PARAGRAPHS 3 AND 14 THEREOF AND PROVINCIAL SUCCESSION DUTIES.
16905	0540	SUBJECT ON THE DATE OF REGISTRATION 97/10/22 TO SUBSECTION 44(1) OF THE LAND TITLES ACT EXCEPT PARAGRAPHS 3 AND 14 THEREOF AND PROVINCIAL SUCCESSION DUTIES.
16905	0541	SUBJECT ON THE DATE OF REGISTRATION 97/10/22 TO SUBSECTION 44(1) OF THE LAND TITLES ACT EXCEPT PARAGRAPHS 3 AND 14 THEREOF AND PROVINCIAL SUCCESSION DUTIES.
16905	0553	SUBJECT ON THE DATE OF REGISTRATION 97/10/22 TO SUBSECTION 44 (1) OF THE LAND TITLES ACT EXCEPT PARAGRAPHS 3 AND 14 THEREOF AND PROVINCIAL SUCCESSION DUTIES.
16905	0554	SUBJECT ON THE DATE OF REGISTRATION 97/10/22 TO SUBSECTION 44 (1) OF THE LAND TITLES ACT EXCEPT PARAGRAPHS 3 AND 14 THEREOF AND PROVINCIAL SUCCESSION DUTIES.
16905	0555	SUBJECT ON THE DATE OF REGISTRATION 97/10/22 TO SUBSECTION 44 (1) OF THE LAND TITLES ACT EXCEPT PARAGRAPHS 3 AND 14 THEREOF AND PROVINCIAL SUCCESSION DUTIES.
16905	0556	SUBJECT ON THE DATE OF REGISTRATION 97/10/22 TO SUBSECTION 44 (1) OF THE LAND TITLES ACT EXCEPT PARAGRAPHS 3 AND 14 THEREOF AND PROVINCIAL SUCCESSION DUTIES.
16905	0557	SUBJECT ON THE DATE OF REGISTRATION 97/10/22 TO SUBSECTION 44 (1) OF THE LAND TITLES ACT EXCEPT PARAGRAPHS 3 AND 14 THEREOF AND PROVINCIAL SUCCESSION DUTIES.
16905	0558	SUBJECT ON THE DATE OF REGISTRATION 97/10/22 TO SUBSECTION 44 (1) OF THE LAND TITLES ACT EXCEPT PARAGRAPHS 3 AND 14 THEREOF AND PROVINCIAL SUCCESSION DUTIES.
16905	0559	SUBJECT ON THE DATE OF REGISTRATION 97/10/22 TO SUBSECTION 44 (1) OF THE LAND TITLES ACT EXCEPT PARAGRAPHS 3 AND 14 THEREOF AND PROVINCIAL SUCCESSION DUTIES.
16905	0560	SUBJECT ON THE DATE OF REGISTRATION 97/10/22 TO SUBSECTION 44 (1) OF THE LAND TITLES ACT EXCEPT PARAGRAPHS 3 AND 14 THEREOF AND PROVINCIAL SUCCESSION DUTIES.
16905	0561	SUBJECT ON THE DATE OF REGISTRATION 97/10/22 TO SUBSECTION 44 (1) OF THE LAND TITLES ACT EXCEPT PARAGRAPHS 3 AND 14 THEREOF AND PROVINCIAL SUCCESSION DUTIES.
16905	0562	SUBJECT ON THE DATE OF REGISTRATION 97/10/22 TO SUBSECTION 44 (1) OF THE LAND TITLES ACT EXCEPT PARAGRAPHS 3 AND 14 THEREOF AND PROVINCIAL SUCCESSION DUTIES.
16905	0563	SUBJECT ON THE DATE OF REGISTRATION 97/10/22 TO SUBSECTION 44 (1) OF THE LAND TITLES ACT EXCEPT PARAGRAPHS 3 AND 14 THEREOF AND PROVINCIAL SUCCESSION DUTIES.
16905	0564	SUBJECT ON THE DATE OF REGISTRATION 97/10/22 TO SUBSECTION 44 (1) OF THE LAND TITLES ACT EXCEPT PARAGRAPHS 3 AND 14 THEREOF AND PROVINCIAL SUCCESSION DUTIES.
16905	0565	SUBJECT ON THE DATE OF REGISTRATION 97/10/22 TO SUBSECTION 44 (1) OF THE LAND TITLES ACT EXCEPT PARAGRAPHS 3 AND 14 THEREOF AND PROVINCIAL SUCCESSION DUTIES.
16905	0566	SUBJECT ON THE DATE OF REGISTRATION 97/10/22 TO SUBSECTION 44 (1) OF THE LAND TITLES ACT EXCEPT PARAGRAPHS 3 AND 14 THEREOF AND PROVINCIAL SUCCESSION DUTIES.
16905	0567	SUBJECT ON THE DATE OF REGISTRATION 97/10/22 TO SUBSECTION 44 (1) OF THE LAND TITLES ACT EXCEPT PARAGRAPHS 3 AND 14 THEREOF AND PROVINCIAL SUCCESSION DUTIES.
16905	0568	SUBJECT ON THE DATE OF REGISTRATION 97/10/22 TO SUBSECTION 44 (1) OF THE LAND TITLES ACT EXCEPT PARAGRAPHS 3 AND 14 THEREOF AND PROVINCIAL SUCCESSION DUTIES.
16905	0602	CORRECTION: INSTRUMENT NUMBER 62M951 WAS OMITTED FROM THIS PROPERTY IN ERROR AND WAS ADDED AND CERTIFIED ON 2002/02/26 BY BELLE FIAMELLI. CORRECTION: INSTRUMENT NUMBER WE80931 WAS OMITTED FROM THIS PROPERTY IN ERROR AND WAS ADDED AND CERTIFIED ON 2002/02/
16905	0605	SUBJECT TO SUBSECTION 44 (1) OF THE LAND TITLES ACT EXCEPT PARAGRAPHS 11 AND 14, PROVINCIAL SUCCESSION DUTIES AND ESCHEATS OR FORFEITURE TO THE CROWN UP TO THE DATE OF CONVERSION AND EXCEPT PARAGRAPHS 3 AND 14 THEREAFTER.
16905	0606	SUBJECT TO SUBSECTION 44 (1) OF THE LAND TITLES ACT EXCEPT PARAGRAPHS 11 AND 14, PROVINCIAL SUCCESSION DUTIES AND ESCHEATS OR FORFEITURE TO THE CROWN UP TO THE DATE OF CONVERSION AND EXCEPT PARAGRAPHS 3 AND 14 THEREAFTER.
16905	0607	SUBJECT TO SUBSECTION 44 (1) OF THE LAND TITLES ACT EXCEPT PARAGRAPHS 11 AND 14, PROVINCIAL SUCCESSION DUTIES AND ESCHEATS OR FORFEITURE TO THE CROWN UP TO THE DATE OF CONVERSION AND EXCEPT PARAGRAPHS 3 AND 14 THEREAFTER.
16905	0608	SUBJECT TO SUBSECTION 44 (1) OF THE LAND TITLES ACT EXCEPT PARAGRAPHS 11 AND 14, PROVINCIAL SUCCESSION DUTIES AND ESCHEATS OR FORFEITURE TO THE CROWN UP TO THE DATE OF CONVERSION AND EXCEPT PARAGRAPHS 3 AND 14 THEREAFTER.
16905	0609	SUBJECT TO SUBSECTION 44 (1) OF THE LAND TITLES ACT EXCEPT PARAGRAPHS 11 AND 14, PROVINCIAL SUCCESSION DUTIES AND ESCHEATS OR FORFEITURE TO THE CROWN UP TO THE DATE OF CONVERSION AND EXCEPT PARAGRAPHS 3 AND 14 THEREAFTER.
16905	0610	SUBJECT TO SUBSECTION 44 (1) OF THE LAND TITLES ACT EXCEPT PARAGRAPHS 11 AND 14, PROVINCIAL SUCCESSION DUTIES AND ESCHEATS OR FORFEITURE TO THE CROWN UP TO THE DATE OF CONVERSION AND EXCEPT PARAGRAPHS 3 AND 14 THEREAFTER.
16905	0611	SUBJECT TO SUBSECTION 44 (1) OF THE LAND TITLES ACT EXCEPT PARAGRAPHS 11 AND 14, PROVINCIAL SUCCESSION DUTIES AND ESCHEATS OR FORFEITURE TO THE CROWN UP TO THE DATE OF CONVERSION AND EXCEPT PARAGRAPHS 3 AND 14 THEREAFTER.
16905	0612	SUBJECT TO SUBSECTION 44 (1) OF THE LAND TITLES ACT EXCEPT PARAGRAPHS 11 AND 14, PROVINCIAL SUCCESSION DUTIES AND ESCHEATS OR FORFEITURE TO THE CROWN UP TO THE DATE OF CONVERSION AND EXCEPT PARAGRAPHS 3 AND 14 THEREAFTER.
16905	0613	SUBJECT TO SUBSECTION 44 (1) OF THE LAND TITLES ACT EXCEPT PARAGRAPHS 11 AND 14, PROVINCIAL SUCCESSION DUTIES AND ESCHEATS OR FORFEITURE TO THE CROWN UP TO THE DATE OF CONVERSION AND EXCEPT PARAGRAPHS 3 AND 14 THEREAFTER.
16905	0614	SUBJECT TO SUBSECTION 44 (1) OF THE LAND TITLES ACT EXCEPT PARAGRAPHS 11 AND 14, PROVINCIAL SUCCESSION DUTIES AND ESCHEATS OR FORFEITURE TO THE CROWN UP TO THE DATE OF CONVERSION AND EXCEPT PARAGRAPHS 3 AND 14 THEREAFTER.
16905	0615	SUBJECT TO SUBSECTION 44 (1) OF THE LAND TITLES ACT EXCEPT PARAGRAPHS 11 AND 14, PROVINCIAL SUCCESSION DUTIES AND ESCHEATS OR FORFEITURE TO THE CROWN UP TO THE DATE OF CONVERSION AND EXCEPT PARAGRAPHS 3 AND 14 THEREAFTER.
16905	0616	SUBJECT TO SUBSECTION 44 (1) OF THE LAND TITLES ACT EXCEPT PARAGRAPHS 11 AND 14, PROVINCIAL SUCCESSION DUTIES AND ESCHEATS OR FORFEITURE TO THE CROWN UP TO THE DATE OF CONVERSION AND EXCEPT PARAGRAPHS 3 AND 14 THEREAFTER.
16905	0617	SUBJECT TO SUBSECTION 44 (1) OF THE LAND TITLES ACT EXCEPT PARAGRAPHS 11 AND 14, PROVINCIAL SUCCESSION DUTIES AND ESCHEATS OR FORFEITURE TO THE CROWN UP TO THE DATE OF CONVERSION AND EXCEPT PARAGRAPHS 3 AND 14 THEREAFTER.
16905	0618	SUBJECT TO SUBSECTION 44 (1) OF THE LAND TITLES ACT EXCEPT PARAGRAPHS 11 AND 14, PROVINCIAL SUCCESSION DUTIES AND ESCHEATS OR FORFEITURE TO THE CROWN UP TO THE DATE OF CONVERSION AND EXCEPT PARAGRAPHS 3 AND 14 THEREAFTER.
16905	0619	SUBJECT TO SUBSECTION 44 (1) OF THE LAND TITLES ACT EXCEPT PARAGRAPHS 11 AND 14, PROVINCIAL SUCCESSION DUTIES AND ESCHEATS OR FORFEITURE TO THE CROWN UP TO THE DATE OF CONVERSION AND EXCEPT PARAGRAPHS 3 AND 14 THEREAFTER.
16905	0620	SUBJECT TO SUBSECTION 44 (1) OF THE LAND TITLES ACT EXCEPT PARAGRAPHS 11 AND 14, PROVINCIAL SUCCESSION DUTIES AND ESCHEATS OR FORFEITURE TO THE CROWN UP TO THE DATE OF CONVERSION AND EXCEPT PARAGRAPHS 3 AND 14 THEREAFTER.
16905	0621	SUBJECT TO SUBSECTION 44 (1) OF THE LAND TITLES ACT EXCEPT PARAGRAPHS 11 AND 14, PROVINCIAL SUCCESSION DUTIES AND ESCHEATS OR FORFEITURE TO THE CROWN UP TO THE DATE OF CONVERSION AND EXCEPT PARAGRAPHS 3 AND 14 THEREAFTER.
16905	0622	SUBJECT TO SUBSECTION 44 (1) OF THE LAND TITLES ACT EXCEPT PARAGRAPHS 11 AND 14, PROVINCIAL SUCCESSION DUTIES AND ESCHEATS OR FORFEITURE TO THE CROWN UP TO THE DATE OF CONVERSION AND EXCEPT PARAGRAPHS 3 AND 14 THEREAFTER.
16905	0623	SUBJECT TO SUBSECTION 44 (1) OF THE LAND TITLES ACT EXCEPT PARAGRAPHS 11 AND 14, PROVINCIAL SUCCESSION DUTIES AND ESCHEATS OR FORFEITURE TO THE CROWN UP TO THE DATE OF CONVERSION AND EXCEPT PARAGRAPHS 3 AND 14 THEREAFTER.
16905	0624	SUBJECT TO SUBSECTION 44 (1) OF THE LAND TITLES ACT EXCEPT PARAGRAPHS 11 AND 14, PROVINCIAL SUCCESSION DUTIES AND ESCHEATS OR FORFEITURE TO THE CROWN UP TO THE DATE OF CONVERSION AND EXCEPT PARAGRAPHS 3 AND 14 THEREAFTER.
16905	0626	SUBJECT TO SUBSECTION 44 (1) OF THE LAND TITLES ACT EXCEPT PARAGRAPHS 11 AND 14, PROVINCIAL SUCCESSION DUTIES AND ESCHEATS OR FORFEITURE TO THE CROWN UP TO THE DATE OF CONVERSION AND EXCEPT PARAGRAPHS 3 AND 14 THEREAFTER.
16905	0627	SUBJECT TO SUBSECTION 44 (1) OF THE LAND TITLES ACT EXCEPT PARAGRAPHS 11 AND 14, PROVINCIAL SUCCESSION DUTIES AND ESCHEATS OR FORFEITURE TO THE CROWN UP TO THE DATE OF CONVERSION AND EXCEPT PARAGRAPHS 3 AND 14 THEREAFTER.
16905	0628	SUBJECT TO SUBSECTION 44 (1) OF THE LAND TITLES ACT EXCEPT PARAGRAPHS 11 AND 14, PROVINCIAL SUCCESSION DUTIES AND ESCHEATS OR FORFEITURE TO THE CROWN UP TO THE DATE OF CONVERSION AND EXCEPT PARAGRAPHS 3 AND 14 THEREAFTER.
16905	0629	SUBJECT TO SUBSECTION 44 (1) OF THE LAND TITLES ACT EXCEPT PARAGRAPHS 11 AND 14, PROVINCIAL SUCCESSION DUTIES AND ESCHEATS OR FORFEITURE TO THE CROWN UP TO THE DATE OF CONVERSION AND EXCEPT PARAGRAPHS 3 AND 14 THEREAFTER.
16905	0630	SUBJECT TO SUBSECTION 44 (1) OF THE LAND TITLES ACT EXCEPT PARAGRAPHS 11 AND 14, PROVINCIAL SUCCESSION DUTIES AND ESCHEATS OR FORFEITURE TO THE CROWN UP TO THE DATE OF CONVERSION AND EXCEPT PARAGRAPHS 3 AND 14 THEREAFTER.
16905	0631	SUBJECT TO SUBSECTION 44 (1) OF THE LAND TITLES ACT EXCEPT PARAGRAPHS 11 AND 14, PROVINCIAL SUCCESSION DUTIES AND ESCHEATS OR FORFEITURE TO THE CROWN UP TO THE DATE OF CONVERSION AND EXCEPT PARAGRAPHS 3 AND 14 THEREAFTER.
16905	0632	SUBJECT TO SUBSECTION 44 (1) OF THE LAND TITLES ACT EXCEPT PARAGRAPHS 11 AND 14, PROVINCIAL SUCCESSION DUTIES AND ESCHEATS OR FORFEITURE TO THE CROWN UP TO THE DATE OF CONVERSION AND EXCEPT PARAGRAPHS 3 AND 14 THEREAFTER.
16905	0633	SUBJECT TO SUBSECTION 44 (1) OF THE LAND TITLES ACT EXCEPT PARAGRAPHS 11 AND 14, PROVINCIAL SUCCESSION DUTIES AND ESCHEATS OR FORFEITURE TO THE CROWN UP TO THE DATE OF CONVERSION AND EXCEPT PARAGRAPHS 3 AND 14 THEREAFTER.
16905	0634	SUBJECT TO SUBSECTION 44 (1) OF THE LAND TITLES ACT EXCEPT PARAGRAPHS 11 AND 14, PROVINCIAL SUCCESSION DUTIES AND ESCHEATS OR FORFEITURE TO THE CROWN UP TO THE DATE OF CONVERSION AND EXCEPT PARAGRAPHS 3 AND 14 THEREAFTER.
16905	0635	SUBJECT TO SUBSECTION 44 (1) OF THE LAND TITLES ACT EXCEPT PARAGRAPHS 11 AND 14, PROVINCIAL SUCCESSION DUTIES AND ESCHEATS OR FORFEITURE TO THE CROWN UP TO THE DATE OF CONVERSION AND EXCEPT PARAGRAPHS 3 AND 14 THEREAFTER.
16905	0636	SUBJECT TO SUBSECTION 44 (1) OF THE LAND TITLES ACT EXCEPT PARAGRAPHS 11 AND 14, PROVINCIAL SUCCESSION DUTIES AND ESCHEATS OR FORFEITURE TO THE CROWN UP TO THE DATE OF CONVERSION AND EXCEPT PARAGRAPHS 3 AND 14 THEREAFTER.
16905	0637	SUBJECT TO SUBSECTION 44 (1) OF THE LAND TITLES ACT EXCEPT PARAGRAPHS 11 AND 14, PROVINCIAL SUCCESSION DUTIES AND ESCHEATS OR FORFEITURE TO THE CROWN UP TO THE DATE OF CONVERSION AND EXCEPT PARAGRAPHS 3 AND 14 THEREAFTER.
16905	0638	SUBJECT TO SUBSECTION 44 (1) OF THE LAND TITLES ACT EXCEPT PARAGRAPHS 11 AND 14, PROVINCIAL SUCCESSION DUTIES AND ESCHEATS OR FORFEITURE TO THE CROWN UP TO THE DATE OF CONVERSION AND EXCEPT PARAGRAPHS 3 AND 14 THEREAFTER.
16905	0639	SUBJECT TO SUBSECTION 44 (1) OF THE LAND TITLES ACT EXCEPT PARAGRAPHS 11 AND 14, PROVINCIAL SUCCESSION DUTIES AND ESCHEATS OR FORFEITURE TO THE CROWN UP TO THE DATE OF CONVERSION AND EXCEPT PARAGRAPHS 3 AND 14 THEREAFTER.
16905	0640	SUBJECT TO SUBSECTION 44 (1) OF THE LAND TITLES ACT EXCEPT PARAGRAPHS 11 AND 14, PROVINCIAL SUCCESSION DUTIES AND ESCHEATS OR FORFEITURE TO THE CROWN UP TO THE DATE OF CONVERSION AND EXCEPT PARAGRAPHS 3 AND 14 THEREAFTER.
16905	0641	SUBJECT TO SUBSECTION 44 (1) OF THE LAND TITLES ACT EXCEPT PARAGRAPHS 11 AND 14, PROVINCIAL SUCCESSION DUTIES AND ESCHEATS OR FORFEITURE TO THE CROWN UP TO THE DATE OF CONVERSION AND EXCEPT PARAGRAPHS 3 AND 14 THEREAFTER.
16905	0642	SUBJECT TO SUBSECTION 44 (1) OF THE LAND TITLES ACT EXCEPT PARAGRAPHS 11 AND 14, PROVINCIAL SUCCESSION DUTIES AND ESCHEATS OR FORFEITURE TO THE CROWN UP TO THE DATE OF CONVERSION AND EXCEPT PARAGRAPHS 3 AND 14 THEREAFTER.
16905	0643	SUBJECT TO SUBSECTION 44 (1) OF THE LAND TITLES ACT EXCEPT PARAGRAPHS 11 AND 14, PROVINCIAL SUCCESSION DUTIES AND ESCHEATS OR FORFEITURE TO THE CROWN UP TO THE DATE OF CONVERSION AND EXCEPT PARAGRAPHS 3 AND 14 THEREAFTER.
16905	0644	SUBJECT TO SUBSECTION 44 (1) OF THE LAND TITLES ACT EXCEPT PARAGRAPHS 11 AND 14, PROVINCIAL SUCCESSION DUTIES AND ESCHEATS OR FORFEITURE TO THE CROWN UP TO THE DATE OF CONVERSION AND EXCEPT PARAGRAPHS 3 AND 14 THEREAFTER.
16905	0645	SUBJECT TO SUBSECTION 44 (1) OF THE LAND TITLES ACT EXCEPT PARAGRAPHS 11 AND 14, PROVINCIAL SUCCESSION DUTIES AND ESCHEATS OR FORFEITURE TO THE CROWN UP TO THE DATE OF CONVERSION AND EXCEPT PARAGRAPHS 3 AND 14 THEREAFTER.
16905	0646	SUBJECT TO SUBSECTION 44 (1) OF THE LAND TITLES ACT EXCEPT PARAGRAPHS 11 AND 14, PROVINCIAL SUCCESSION DUTIES AND ESCHEATS OR FORFEITURE TO THE CROWN UP TO THE DATE OF CONVERSION AND EXCEPT PARAGRAPHS 3 AND 14 THEREAFTER.
16905	0647	SUBJECT TO SUBSECTION 44 (1) OF THE LAND TITLES ACT EXCEPT PARAGRAPHS 11 AND 14, PROVINCIAL SUCCESSION DUTIES AND ESCHEATS OR FORFEITURE TO THE CROWN UP TO THE DATE OF CONVERSION AND EXCEPT PARAGRAPHS 3 AND 14 THEREAFTER.
16905	0648	SUBJECT TO SUBSECTION 44 (1) OF THE LAND TITLES ACT EXCEPT PARAGRAPHS 11 AND 14, PROVINCIAL SUCCESSION DUTIES AND ESCHEATS OR FORFEITURE TO THE CROWN UP TO THE DATE OF CONVERSION AND EXCEPT PARAGRAPHS 3 AND 14 THEREAFTER.
16905	0649	SUBJECT TO SUBSECTION 44 (1) OF THE LAND TITLES ACT EXCEPT PARAGRAPHS 11 AND 14, PROVINCIAL SUCCESSION DUTIES AND ESCHEATS OR FORFEITURE TO THE CROWN UP TO THE DATE OF CONVERSION AND EXCEPT PARAGRAPHS 3 AND 14 THEREAFTER.
16905	0650	SUBJECT TO SUBSECTION 44 (1) OF THE LAND TITLES ACT EXCEPT PARAGRAPHS 11 AND 14, PROVINCIAL SUCCESSION DUTIES AND ESCHEATS OR FORFEITURE TO THE CROWN UP TO THE DATE OF CONVERSION AND EXCEPT PARAGRAPHS 3 AND 14 THEREAFTER.
16905	0651	SUBJECT TO SUBSECTION 44 (1) OF THE LAND TITLES ACT EXCEPT PARAGRAPHS 11 AND 14, PROVINCIAL SUCCESSION DUTIES AND ESCHEATS OR FORFEITURE TO THE CROWN UP TO THE DATE OF CONVERSION AND EXCEPT PARAGRAPHS 3 AND 14 THEREAFTER.
16905	0653	SUBJECT TO SUBSECTION 44 (1) OF THE LAND TITLES ACT EXCEPT PARAGRAPHS 11 AND 14, PROVINCIAL SUCCESSION DUTIES AND ESCHEATS OR FORFEITURE TO THE CROWN UP TO THE DATE OF CONVERSION AND EXCEPT PARAGRAPHS 3 AND 14 THEREAFTER.
16905	0654	SUBJECT TO SUBSECTION 44 (1) OF THE LAND TITLES ACT EXCEPT PARAGRAPHS 11 AND 14, PROVINCIAL SUCCESSION DUTIES AND ESCHEATS OR FORFEITURE TO THE CROWN UP TO THE DATE OF CONVERSION AND EXCEPT PARAGRAPHS 3 AND 14 THEREAFTER.
16905	0655	SUBJECT TO SUBSECTION 44 (1) OF THE LAND TITLES ACT EXCEPT PARAGRAPHS 11 AND 14, PROVINCIAL SUCCESSION DUTIES AND ESCHEATS OR FORFEITURE TO THE CROWN UP TO THE DATE OF CONVERSION AND EXCEPT PARAGRAPHS 3 AND 14 THEREAFTER.
16905	0656	SUBJECT TO SUBSECTION 44 (1) OF THE LAND TITLES ACT EXCEPT PARAGRAPHS 11 AND 14, PROVINCIAL SUCCESSION DUTIES AND ESCHEATS OR FORFEITURE TO THE CROWN UP TO THE DATE OF CONVERSION AND EXCEPT PARAGRAPHS 3 AND 14 THEREAFTER.
16905	0665	SUBJECT TO SUBSECTION 44 (1) OF THE LAND TITLES ACT EXCEPT PARAGRAPH 11 AND 14, PROVINCIAL SUCCESSION DUTIES AND ESCHEATS OF FORFEITURE TO THE CROWN UP TO THE DATE OF CONVERSION AND EXCEPT PARAGRAPHS 3 AND 14 THEREAFTER.
16905	0699	SUBJECT TO SUBSECTION 44(1) OF THE LAND TITLES ACT, EXCEPT PARAGRAPHS 3 AND 14 AND PROVINCIAL SUCCESSION DUTIES AND EXCEPT PARAGRAPH 11 AND ESCHEATS OR FORFEITURE TO THE CROWN UP TO THE DATE OF REGISTRATION WITH AN ABSOLUTE TITLE.
16905	0700	SUBJECT TO SUBSECTION 44(1) OF THE LAND TITLES ACT, EXCEPT PARAGRAPHS 3 AND 14 AND PROVINCIAL SUCCESSION DUTIES AND EXCEPT PARAGRAPH 11 AND ESCHEATS OR FORFEITURE TO THE CROWN UP TO THE DATE OF REGISTRATION WITH AN ABSOLUTE TITLE.
16905	0702	S/T SUBSECTION 44(1) OF THE LAND TITLES ACT, EXCEPT PARAGRAPHS 3 & 14 PROVINCIAL SUCCESSION DUTIES & EXCEPT PARAGRAPH 11 & ESCHEATS OR FORFEITURE TO THE CROWN UP TO THE DATE OF REGISTRATION WITH AN ABSOLUTE TITLE.
16905	0703	S/T SUBSECTION 44(1) OF THE LAND TITLES ACT, EXCEPT PARAGRAPHS 3 & 14 PROVINCIAL SUCCESSION DUTIES & EXCEPT PARAGRAPH 11 & ESCHEATS OR FORFEITURE TO THE CROWN UP TO THE DATE OF REGISTRATION WITH AN ABSOLUTE TITLE.
16905	0704	S/T SUBSECTION 44(1) OF THE LAND TITLES ACT, EXCEPT PARAGRAPHS 3 & 14 PROVINCIAL SUCCESSION DUTIES & EXCEPT PARAGRAPH 11 & ESCHEATS OR FORFEITURE TO THE CROWN UP TO THE DATE OF REGISTRATION WITH AN ABSOLUTE TITLE.
16905	0705	S/T SUBSECTION 44(1) OF THE LAND TITLES ACT, EXCEPT PARAGRAPHS 3 & 14 PROVINCIAL SUCCESSION DUTIES & EXCEPT PARAGRAPH 11 & ESCHEATS OR FORFEITURE TO THE CROWN UP TO THE DATE OF REGISTRATION WITH AN ABSOLUTE TITLE.
16905	0706	S/T SUBSECTION 44(1) OF THE LAND TITLES ACT, EXCEPT PARAGRAPHS 3 & 14 PROVINCIAL SUCCESSION DUTIES & EXCEPT PARAGRAPH 11 & ESCHEATS OR FORFEITURE TO THE CROWN UP TO THE DATE OF REGISTRATION WITH AN ABSOLUTE TITLE.
16905	0707	S/T SUBSECTION 44(1) OF THE LAND TITLES ACT, EXCEPT PARAGRAPHS 3 & 14 PROVINCIAL SUCCESSION DUTIES & EXCEPT PARAGRAPH 11 & ESCHEATS OR FORFEITURE TO THE CROWN UP TO THE DATE OF REGISTRATION WITH AN ABSOLUTE TITLE.
16905	0708	S/T SUBSECTION 44(1) OF THE LAND TITLES ACT, EXCEPT PARAGRAPHS 3 & 14 PROVINCIAL SUCCESSION DUTIES & EXCEPT PARAGRAPH 11 & ESCHEATS OR FORFEITURE TO THE CROWN UP TO THE DATE OF REGISTRATION WITH AN ABSOLUTE TITLE.
16905	0709	S/T SUBSECTION 44(1) OF THE LAND TITLES ACT, EXCEPT PARAGRAPHS 3 & 14 PROVINCIAL SUCCESSION DUTIES & EXCEPT PARAGRAPH 11 & ESCHEATS OR FORFEITURE TO THE CROWN UP TO THE DATE OF REGISTRATION WITH AN ABSOLUTE TITLE.
16905	0710	S/T SUBSECTION 44(1) OF THE LAND TITLES ACT, EXCEPT PARAGRAPHS 3 & 14 PROVINCIAL SUCCESSION DUTIES & EXCEPT PARAGRAPH 11 & ESCHEATS OR FORFEITURE TO THE CROWN UP TO THE DATE OF REGISTRATION WITH AN ABSOLUTE TITLE.
16905	0711	S/T SUBSECTION 44(1) OF THE LAND TITLES ACT, EXCEPT PARAGRAPHS 3 & 14 PROVINCIAL SUCCESSION DUTIES & EXCEPT PARAGRAPH 11 & ESCHEATS OR FORFEITURE TO THE CROWN UP TO THE DATE OF REGISTRATION WITH AN ABSOLUTE TITLE.
16905	0712	S/T SUBSECTION 44(1) OF THE LAND TITLES ACT, EXCEPT PARAGRAPHS 3 & 14 PROVINCIAL SUCCESSION DUTIES & EXCEPT PARAGRAPH 11 & ESCHEATS OR FORFEITURE TO THE CROWN UP TO THE DATE OF REGISTRATION WITH AN ABSOLUTE TITLE.
16905	0713	S/T SUBSECTION 44(1) OF THE LAND TITLES ACT, EXCEPT PARAGRAPHS 3 & 14 PROVINCIAL SUCCESSION DUTIES & EXCEPT PARAGRAPH 11 & ESCHEATS OR FORFEITURE TO THE CROWN UP TO THE DATE OF REGISTRATION WITH AN ABSOLUTE TITLE.
16905	0714	S/T SUBSECTION 44(1) OF THE LAND TITLES ACT, EXCEPT PARAGRAPHS 3 & 14 PROVINCIAL SUCCESSION DUTIES & EXCEPT PARAGRAPH 11 & ESCHEATS OR FORFEITURE TO THE CROWN UP TO THE DATE OF REGISTRATION WITH AN ABSOLUTE TITLE.
16905	0715	S/T SUBSECTION 44(1) OF THE LAND TITLES ACT, EXCEPT PARAGRAPHS 3 & 14 PROVINCIAL SUCCESSION DUTIES & EXCEPT PARAGRAPH 11 & ESCHEATS OR FORFEITURE TO THE CROWN UP TO THE DATE OF REGISTRATION WITH AN ABSOLUTE TITLE.
16905	0716	S/T SUBSECTION 44(1) OF THE LAND TITLES ACT, EXCEPT PARAGRAPHS 3 & 14 PROVINCIAL SUCCESSION DUTIES & EXCEPT PARAGRAPH 11 & ESCHEATS OR FORFEITURE TO THE CROWN UP TO THE DATE OF REGISTRATION WITH AN ABSOLUTE TITLE.
16905	0717	S/T SUBSECTION 44(1) OF THE LAND TITLES ACT, EXCEPT PARAGRAPHS 3 & 14 PROVINCIAL SUCCESSION DUTIES & EXCEPT PARAGRAPH 11 & ESCHEATS OR FORFEITURE TO THE CROWN UP TO THE DATE OF REGISTRATION WITH AN ABSOLUTE TITLE.
16905	0718	S/T SUBSECTION 44(1) OF THE LAND TITLES ACT, EXCEPT PARAGRAPHS 3 & 14 PROVINCIAL SUCCESSION DUTIES & EXCEPT PARAGRAPH 11 & ESCHEATS OR FORFEITURE TO THE CROWN UP TO THE DATE OF REGISTRATION WITH AN ABSOLUTE TITLE.
16905	0719	S/T SUBSECTION 44(1) OF THE LAND TITLES ACT, EXCEPT PARAGRAPHS 3 & 14 PROVINCIAL SUCCESSION DUTIES & EXCEPT PARAGRAPH 11 & ESCHEATS OR FORFEITURE TO THE CROWN UP TO THE DATE OF REGISTRATION WITH AN ABSOLUTE TITLE.
16905	0720	S/T SUBSECTION 44(1) OF THE LAND TITLES ACT, EXCEPT PARAGRAPHS 3 & 14 PROVINCIAL SUCCESSION DUTIES & EXCEPT PARAGRAPH 11 & ESCHEATS OR FORFEITURE TO THE CROWN UP TO THE DATE OF REGISTRATION WITH AN ABSOLUTE TITLE.
16905	0721	S/T SUBSECTION 44(1) OF THE LAND TITLES ACT, EXCEPT PARAGRAPHS 3 & 14 PROVINCIAL SUCCESSION DUTIES & EXCEPT PARAGRAPH 11 & ESCHEATS OR FORFEITURE TO THE CROWN UP TO THE DATE OF REGISTRATION WITH AN ABSOLUTE TITLE.
16905	0722	S/T SUBSECTION 44(1) OF THE LAND TITLES ACT, EXCEPT PARAGRAPHS 3 & 14 PROVINCIAL SUCCESSION DUTIES & EXCEPT PARAGRAPH 11 & ESCHEATS OR FORFEITURE TO THE CROWN UP TO THE DATE OF REGISTRATION WITH AN ABSOLUTE TITLE.
16905	0723	S/T SUBSECTION 44(1) OF THE LAND TITLES ACT, EXCEPT PARAGRAPHS 3 & 14 PROVINCIAL SUCCESSION DUTIES & EXCEPT PARAGRAPH 11 & ESCHEATS OR FORFEITURE TO THE CROWN UP TO THE DATE OF REGISTRATION WITH AN ABSOLUTE TITLE.
16905	0724	S/T SUBSECTION 44(1) OF THE LAND TITLES ACT, EXCEPT PARAGRAPHS 3 & 14 PROVINCIAL SUCCESSION DUTIES & EXCEPT PARAGRAPH 11 & ESCHEATS OR FORFEITURE TO THE CROWN UP TO THE DATE OF REGISTRATION WITH AN ABSOLUTE TITLE.
16905	0725	S/T SUBSECTION 44(1) OF THE LAND TITLES ACT, EXCEPT PARAGRAPHS 3 & 14 PROVINCIAL SUCCESSION DUTIES & EXCEPT PARAGRAPH 11 & ESCHEATS OR FORFEITURE TO THE CROWN UP TO THE DATE OF REGISTRATION WITH AN ABSOLUTE TITLE.
16905	0726	S/T SUBSECTION 44(1) OF THE LAND TITLES ACT, EXCEPT PARAGRAPHS 3 & 14 PROVINCIAL SUCCESSION DUTIES & EXCEPT PARAGRAPH 11 & ESCHEATS OR FORFEITURE TO THE CROWN UP TO THE DATE OF REGISTRATION WITH AN ABSOLUTE TITLE.
16905	0727	S/T SUBSECTION 44(1) OF THE LAND TITLES ACT, EXCEPT PARAGRAPHS 3 & 14 PROVINCIAL SUCCESSION DUTIES & EXCEPT PARAGRAPH 11 & ESCHEATS OR FORFEITURE TO THE CROWN UP TO THE DATE OF REGISTRATION WITH AN ABSOLUTE TITLE.
16905	0728	S/T SUBSECTION 44(1) OF THE LAND TITLES ACT, EXCEPT PARAGRAPHS 3 & 14 PROVINCIAL SUCCESSION DUTIES & EXCEPT PARAGRAPH 11 & ESCHEATS OR FORFEITURE TO THE CROWN UP TO THE DATE OF REGISTRATION WITH AN ABSOLUTE TITLE.
16905	0729	S/T SUBSECTION 44(1) OF THE LAND TITLES ACT, EXCEPT PARAGRAPHS 3 & 14 PROVINCIAL SUCCESSION DUTIES & EXCEPT PARAGRAPH 11 & ESCHEATS OR FORFEITURE TO THE CROWN UP TO THE DATE OF REGISTRATION WITH AN ABSOLUTE TITLE.
16905	0730	S/T SUBSECTION 44(1) OF THE LAND TITLES ACT, EXCEPT PARAGRAPHS 3 & 14 PROVINCIAL SUCCESSION DUTIES & EXCEPT PARAGRAPH 11 & ESCHEATS OR FORFEITURE TO THE CROWN UP TO THE DATE OF REGISTRATION WITH AN ABSOLUTE TITLE.
16905	0731	S/T SUBSECTION 44(1) OF THE LAND TITLES ACT, EXCEPT PARAGRAPHS 3 & 14 PROVINCIAL SUCCESSION DUTIES & EXCEPT PARAGRAPH 11 & ESCHEATS OR FORFEITURE TO THE CROWN UP TO THE DATE OF REGISTRATION WITH AN ABSOLUTE TITLE.
16905	0732	S/T SUBSECTION 44(1) OF THE LAND TITLES ACT, EXCEPT PARAGRAPHS 3 & 14 PROVINCIAL SUCCESSION DUTIES & EXCEPT PARAGRAPH 11 & ESCHEATS OR FORFEITURE TO THE CROWN UP TO THE DATE OF REGISTRATION WITH AN ABSOLUTE TITLE.
16905	0733	S/T SUBSECTION 44(1) OF THE LAND TITLES ACT, EXCEPT PARAGRAPHS 3 & 14 PROVINCIAL SUCCESSION DUTIES & EXCEPT PARAGRAPH 11 & ESCHEATS OR FORFEITURE TO THE CROWN UP TO THE DATE OF REGISTRATION WITH AN ABSOLUTE TITLE.
16905	0734	S/T SUBSECTION 44(1) OF THE LAND TITLES ACT, EXCEPT PARAGRAPHS 3 & 14 PROVINCIAL SUCCESSION DUTIES & EXCEPT PARAGRAPH 11 & ESCHEATS OR FORFEITURE TO THE CROWN UP TO THE DATE OF REGISTRATION WITH AN ABSOLUTE TITLE.
16905	0735	S/T SUBSECTION 44(1) OF THE LAND TITLES ACT, EXCEPT PARAGRAPHS 3 & 14 PROVINCIAL SUCCESSION DUTIES & EXCEPT PARAGRAPH 11 & ESCHEATS OR FORFEITURE TO THE CROWN UP TO THE DATE OF REGISTRATION WITH AN ABSOLUTE TITLE.
16905	0736	S/T SUBSECTION 44(1) OF THE LAND TITLES ACT, EXCEPT PARAGRAPHS 3 & 14 PROVINCIAL SUCCESSION DUTIES & EXCEPT PARAGRAPH 11 & ESCHEATS OR FORFEITURE TO THE CROWN UP TO THE DATE OF REGISTRATION WITH AN ABSOLUTE TITLE.
16905	0737	S/T SUBSECTION 44(1) OF THE LAND TITLES ACT, EXCEPT PARAGRAPHS 3 & 14 PROVINCIAL SUCCESSION DUTIES & EXCEPT PARAGRAPH 11 & ESCHEATS OR FORFEITURE TO THE CROWN UP TO THE DATE OF REGISTRATION WITH AN ABSOLUTE TITLE.
16905	0739	SUBJECT TO SUBSECTION 44(1) OF THE LAND TITLES ACT, EXCEPT PARAGRAPHS 3 AND 14 AND PROVINCIAL SUCCESSION DUTIES AND EXCEPT PARAGRAPH 11 AND ESCHEATS OR FORFEITURE TO THE CROWN UP TO THE DATE OF REGISTRATION WITH AN ABSOLUTE TITLE.
16905	0746	SUBJECT TO SUBSECTION 44(1) OF THE LAND TITLES ACT, EXCEPT PARAGRAPHS 3 AND 14 AND PROVINCIAL SUCCESSION DUTIES AND EXCEPT PARAGRAPH 11 AND ESCHEATS OR FORFEITURE TO THE CROWN UP TO THE DATE OF REGISTRATION WITH AN ABSOLUTE TITLE.
16905	0747	SUBJECT TO SUBSECTION 44(1) OF THE LAND TITLES ACT, EXCEPT PARAGRAPHS 3 AND 14 AND PROVINCIAL SUCCESSION DUTIES AND EXCEPT PARAGRAPH 11 AND ESCHEATS OR FORFEITURE TO THE CROWN UP TO THE DATE OF REGISTRATION WITH AN ABSOLUTE TITLE.
16905	0767	ON 2004/03/19 AT 11:04 THE ESTATE/QUALIFIER WERE CHANGED TO FEE SIMPLE LT ABSOLUTE PLUS FROM FEE SIMPLE ABSOLUTE BY KATHY CECE . THE FOLLOWING REMARK HAS BEEN ADDED ON 2004/03/19 AT 11:04 BY KATHY CECE : "FOR THE PURPOSE OF THE QUALIFIER THE DATE OF REGIS
16905	0769	"FOR THE PURPOSE OF THE QUALIFIER THE DATE OF REGISTRATION OF ABSOLUTE TITLE IS 2001/06/20".
16905	0770	"FOR THE PURPOSE OF THE QUALIFIER THE DATE OF REGISTRATION OF ABSOLUTE TITLE IS 2001/06/20".
16905	0772	"FOR THE PURPOSE OF THE QUALIFIER THE DATE OF REGISTRATION OF ABSOLUTE TITLE IS 2001/06/20".
16905	0773	"FOR THE PURPOSE OF THE QUALIFIER THE DATE OF REGISTRATION OF ABSOLUTE TITLE IS 2001/06/20".
16905	0774	"FOR THE PURPOSE OF THE QUALIFIER THE DATE OF REGISTRATION OF ABSOLUTE TITLE IS 2001/06/20".
16905	0775	"FOR THE PURPOSE OF THE QUALIFIER THE DATE OF REGISTRATION OF ABSOLUTE TITLE IS 2001/06/20".
16905	0776	"FOR THE PURPOSE OF THE QUALIFIER THE DATE OF REGISTRATION OF ABSOLUTE TITLE IS 2001/06/20".
16905	0777	"FOR THE PURPOSE OF THE QUALIFIER THE DATE OF REGISTRATION OF ABSOLUTE TITLE IS 2001/06/20".
16905	0778	"FOR THE PURPOSE OF THE QUALIFIER THE DATE OF REGISTRATION OF ABSOLUTE TITLE IS 2001/06/20".
16905	0779	"FOR THE PURPOSE OF THE QUALIFIER THE DATE OF REGISTRATION OF ABSOLUTE TITLE IS 2001/06/20".
16905	0780	"FOR THE PURPOSE OF THE QUALIFIER THE DATE OF REGISTRATION OF ABSOLUTE TITLE IS 2001/06/20".
16905	0781	"FOR THE PURPOSE OF THE QUALIFIER THE DATE OF REGISTRATION OF ABSOLUTE TITLE IS 2001/06/20".
16905	0782	"FOR THE PURPOSE OF THE QUALIFIER THE DATE OF REGISTRATION OF ABSOLUTE TITLE IS 2001/06/20".
16905	0783	"FOR THE PURPOSE OF THE QUALIFIER THE DATE OF REGISTRATION OF ABSOLUTE TITLE IS 2001/06/20".
16905	0784	"FOR THE PURPOSE OF THE QUALIFIER THE DATE OF REGISTRATION OF ABSOLUTE TITLE IS 2001/06/20".
16905	0785	"FOR THE PURPOSE OF THE QUALIFIER THE DATE OF REGISTRATION OF ABSOLUTE TITLE IS 2001/06/20".
16905	0786	"FOR THE PURPOSE OF THE QUALIFIER THE DATE OF REGISTRATION OF ABSOLUTE TITLE IS 2001/06/20".
16905	0787	"FOR THE PURPOSE OF THE QUALIFIER THE DATE OF REGISTRATION OF ABSOLUTE TITLE IS 2001/06/20".
16905	0788	"FOR THE PURPOSE OF THE QUALIFIER THE DATE OF REGISTRATION OF ABSOLUTE TITLE IS 2001/06/20".
16905	0789	"FOR THE PURPOSE OF THE QUALIFIER THE DATE OF REGISTRATION OF ABSOLUTE TITLE IS 2001/06/20".
16905	0790	"FOR THE PURPOSE OF THE QUALIFIER THE DATE OF REGISTRATION OF ABSOLUTE TITLE IS 2001/06/20".
16905	0791	"FOR THE PURPOSE OF THE QUALIFIER THE DATE OF REGISTRATION OF ABSOLUTE TITLE IS 2001/06/20".
16905	0792	"FOR THE PURPOSE OF THE QUALIFIER THE DATE OF REGISTRATION OF ABSOLUTE TITLE IS 2001/06/20".
16905	0793	"FOR THE PURPOSE OF THE QUALIFIER THE DATE OF REGISTRATION OF ABSOLUTE TITLE IS 2001/06/20".
16905	0794	"FOR THE PURPOSE OF THE QUALIFIER THE DATE OF REGISTRATION OF ABSOLUTE TITLE IS 2001/06/20".
16905	0795	"FOR THE PURPOSE OF THE QUALIFIER THE DATE OF REGISTRATION OF ABSOLUTE TITLE IS 2001/06/20".
16905	0796	"FOR THE PURPOSE OF THE QUALIFIER THE DATE OF REGISTRATION OF ABSOLUTE TITLE IS 2001/06/20".
16905	0797	"FOR THE PURPOSE OF THE QUALIFIER THE DATE OF REGISTRATION OF ABSOLUTE TITLE IS 2001/06/20".
16905	0798	"FOR THE PURPOSE OF THE QUALIFIER THE DATE OF REGISTRATION OF ABSOLUTE TITLE IS 2001/06/20".
16905	0799	"FOR THE PURPOSE OF THE QUALIFIER THE DATE OF REGISTRATION OF ABSOLUTE TITLE IS 2001/06/20".
16905	0800	SUBJECT TO SUBSECTION 44(1) OF THE LAND TITLES ACT, EXCEPT PARAGRAPHS 3 AND 14 AND PROVINCIAL SUCCESSION DUTIES AND EXCEPT PARAGRAPH 11 AND ESCHEATS OR FORFEITURE TO THE CROWN UP TO THE DATE OF REGISTRATION WITH AN ABSOLUTE TITLE FOR THE PURPOSE OF THE QU
16905	0801	SUBJECT TO SUBSECTION 44(1) OF THE LAND TITLES ACT, EXCEPT PARAGRAPHS 3 AND 14 AND PROVINCIAL SUCCESSION DUTIES AND EXCEPT PARAGRAPH 11 AND ESCHEATS OR FORFEITURE TO THE CROWN UP TO THE DATE OF REGISTRATION WITH AN ABSOLUTE TITLE FOR THE PURPOSE OF THE QU
16905	0802	SUBJECT TO SUBSECTION 44(1) OF THE LAND TITLES ACT, EXCEPT PARAGRAPHS 3 AND 14 AND PROVINCIAL SUCCESSION DUTIES AND EXCEPT PARAGRAPH 11 AND ESCHEATS OR FORFEITURE TO THE CROWN UP TO THE DATE OF REGISTRATION WITH AN ABSOLUTE TITLE FOR THE PURPOSE OF THE QU
16905	0803	SUBJECT TO SUBSECTION 44(1) OF THE LAND TITLES ACT, EXCEPT PARAGRAPHS 3 AND 14 AND PROVINCIAL SUCCESSION DUTIES AND EXCEPT PARAGRAPH 11 AND ESCHEATS OR FORFEITURE TO THE CROWN UP TO THE DATE OF REGISTRATION WITH AN ABSOLUTE TITLE FOR THE PURPOSE OF THE QU
16905	0804	SUBJECT TO SUBSECTION 44(1) OF THE LAND TITLES ACT, EXCEPT PARAGRAPHS 3 AND 14 AND PROVINCIAL SUCCESSION DUTIES AND EXCEPT PARAGRAPH 11 AND ESCHEATS OR FORFEITURE TO THE CROWN UP TO THE DATE OF REGISTRATION WITH AN ABSOLUTE TITLE FOR THE PURPOSE OF THE QU
16905	0805	SUBJECT TO SUBSECTION 44(1) OF THE LAND TITLES ACT, EXCEPT PARAGRAPHS 3 AND 14 AND PROVINCIAL SUCCESSION DUTIES AND EXCEPT PARAGRAPH 11 AND ESCHEATS OR FORFEITURE TO THE CROWN UP TO THE DATE OF REGISTRATION WITH AN ABSOLUTE TITLE FOR THE PURPOSE OF THE QU
16905	0806	SUBJECT TO SUBSECTION 44(1) OF THE LAND TITLES ACT, EXCEPT PARAGRAPHS 3 AND 14 AND PROVINCIAL SUCCESSION DUTIES AND EXCEPT PARAGRAPH 11 AND ESCHEATS OR FORFEITURE TO THE CROWN UP TO THE DATE OF REGISTRATION WITH AN ABSOLUTE TITLE FOR THE PURPOSE OF THE QU
16905	0807	SUBJECT TO SUBSECTION 44(1) OF THE LAND TITLES ACT, EXCEPT PARAGRAPHS 3 AND 14 AND PROVINCIAL SUCCESSION DUTIES AND EXCEPT PARAGRAPH 11 AND ESCHEATS OR FORFEITURE TO THE CROWN UP TO THE DATE OF REGISTRATION WITH AN ABSOLUTE TITLE FOR THE PURPOSE OF THE QU
16905	0810	PLANNING ACT CONSENT ATTACHED TO WE246834.
16905	0812	PLANNING ACT CONSENT OBTAINED IN WE259481.
16905	0817	"FOR THE PURPOSE OF THE QUALIFIER THE DATE OF REGISTRATION OF ABSOLUTE TITLE IS 2003/01/09".
16905	0818	"FOR THE PURPOSE OF THE QUALIFIER THE DATE OF REGISTRATION OF ABSOLUTE TITLE IS 2003/01/09".
16905	0819	"FOR THE PURPOSE OF THE QUALIFIER THE DATE OF REGISTRATION OF ABSOLUTE TITLE IS 2003/01/09".
16905	0820	"FOR THE PURPOSE OF THE QUALIFIER THE DATE OF REGISTRATION OF ABSOLUTE TITLE IS 2003/01/09".
16905	0821	"FOR THE PURPOSE OF THE QUALIFIER THE DATE OF REGISTRATION OF ABSOLUTE TITLE IS 2003/01/09".
16905	0822	"FOR THE PURPOSE OF THE QUALIFIER THE DATE OF REGISTRATION OF ABSOLUTE TITLE IS 2003/01/09".
16905	0823	"FOR THE PURPOSE OF THE QUALIFIER THE DATE OF REGISTRATION OF ABSOLUTE TITLE IS 2003/01/09".
16905	0824	"FOR THE PURPOSE OF THE QUALIFIER THE DATE OF REGISTRATION OF ABSOLUTE TITLE IS 2003/01/09".
16905	0825	"FOR THE PURPOSE OF THE QUALIFIER THE DATE OF REGISTRATION OF ABSOLUTE TITLE IS 2003/01/09".
16905	0826	"FOR THE PURPOSE OF THE QUALIFIER THE DATE OF REGISTRATION OF ABSOLUTE TITLE IS 2003/01/09".
16905	0842	COMMITTEE OF ADJUSTMENT CONSENT IN WE381815.
16905	0849	PLANNING ACT CONSENT ATTACHED TO WE391479.
16905	0851	PLANNING ACT CONSENT ATTACHED TO WE391481.
16905	0853	PLANNING ACT CONSENT ATTACHED TO WE391480.
16905	0855	SC36	SC6:  RETRIEVE WIP FOR ALREADY CERTIFIED CONDOMINIUM AMENDMENT. JELENA.
16905	0856	SC36	SC6:  RETRIEVE WIP FOR ALREADY CERTIFIED CONDOMINIUM AMENDMENT. JELENA.
16907	0047	CORRECTION: INSTRUMENT NUMBER LT355351 WAS OMITTED FROM THIS PROPERTY IN ERROR AND WAS ADDED AND CERTIFIED ON 1995/12/04 BY MARLENE HUNTER.
16907	0062	CORRECTION: INSTRUMENT NUMBER LT355351 WAS OMITTED FROM THIS PROPERTY IN ERROR AND WAS ADDED AND CERTIFIED ON 1995/12/04 BY MARLENE HUNTER.
16907	0064	CORRECTION: INSTRUMENT NUMBER LT355351 WAS OMITTED FROM THIS PROPERTY IN ERROR AND WAS ADDED AND CERTIFIED ON 1995/12/04 BY MARLENE HUNTER.
16907	0072	CORRECTION: INSTRUMENT NUMBER LT355351 WAS OMITTED FROM THIS PROPERTY IN ERROR AND WAS ADDED AND CERTIFIED ON 1995/12/04 BY MARLENE HUNTER.
16907	0075	CORRECTION: INSTRUMENT NUMBER LT355351 WAS OMITTED FROM THIS PROPERTY IN ERROR AND WAS ADDED AND CERTIFIED ON 1995/12/04 BY MARLENE HUNTER.
16907	0076	CORRECTION: INSTRUMENT NUMBER LT355351 WAS OMITTED FROM THIS PROPERTY IN ERROR AND WAS ADDED AND CERTIFIED ON 1995/12/04 BY MARLENE HUNTER.
16907	0078	CORRECTION: INSTRUMENT NUMBER LT355351 WAS OMITTED FROM THIS PROPERTY IN ERROR AND WAS ADDED AND CERTIFIED ON 1995/12/04 BY MARLENE HUNTER.
16907	0079	CORRECTION: INSTRUMENT NUMBER LT355351 WAS OMITTED FROM THIS PROPERTY IN ERROR AND WAS ADDED AND CERTIFIED ON 1995/12/04 BY MARLENE HUNTER.
16907	0084	CORRECTION: INSTRUMENT NUMBER LT355351 WAS OMITTED FROM THIS PROPERTY IN ERROR AND WAS ADDED AND CERTIFIED ON 1995/12/04 BY MARLENE HUNTER.
16907	0085	CORRECTION: INSTRUMENT NUMBER LT355351 WAS OMITTED FROM THIS PROPERTY IN ERROR AND WAS ADDED AND CERTIFIED ON 1995/12/04 BY MARLENE HUNTER.
16907	0087	CORRECTION: INSTRUMENT NUMBER LT355351 WAS OMITTED FROM THIS PROPERTY IN ERROR AND WAS ADDED AND CERTIFIED ON 1995/12/04 BY MARLENE HUNTER.
16907	0089	CORRECTION: INSTRUMENT NUMBER LT355351 WAS OMITTED FROM THIS PROPERTY IN ERROR AND WAS ADDED AND CERTIFIED ON 1995/12/04 BY MARLENE HUNTER.
16907	0096	CORRECTION: INSTRUMENT NUMBER LT355351 WAS OMITTED FROM THIS PROPERTY IN ERROR AND WAS ADDED AND CERTIFIED ON 1995/12/04 BY MARLENE HUNTER.
16907	0097	CORRECTION: INSTRUMENT NUMBER LT355351 WAS OMITTED FROM THIS PROPERTY IN ERROR AND WAS ADDED AND CERTIFIED ON 1995/12/04 BY MARLENE HUNTER.
16907	0098	CORRECTION: INSTRUMENT NUMBER LT355351 WAS OMITTED FROM THIS PROPERTY IN ERROR AND WAS ADDED AND CERTIFIED ON 1995/12/08 BY ELGIN FAREWELL. THE FOLLOWING REMARK HAS BEEN ADDED ON 1998/08/27 AT 10:02 BY ERIC CANNON : DELETED UNDER LT470969.
16907	0099	CORRECTION: INSTRUMENT NUMBER LT355351 WAS OMITTED FROM THIS PROPERTY IN ERROR AND WAS ADDED AND CERTIFIED ON 1995/12/04 BY MARLENE HUNTER.
16907	0100	CORRECTION: INSTRUMENT NUMBER LT355351 WAS OMITTED FROM THIS PROPERTY IN ERROR AND WAS ADDED AND CERTIFIED ON 1995/12/04 BY MARLENE HUNTER.
16907	0101	CORRECTION: INSTRUMENT NUMBER LT355351 WAS OMITTED FROM THIS PROPERTY IN ERROR AND WAS ADDED AND CERTIFIED ON 1995/12/04 BY MARLENE HUNTER.
16907	0122	SC97	SC19: ENTER VALID PARENT PIN AND BLOCK NUMBER. ENTER ACTIVE CONDOMINIUM AMENDMENT REGISTRATION NUMBER. PARENT PIN WITH FULL NAME, SHARE AND RETIRED FRENCH CAPACITY. PROCEED. JELENA.
16907	0127	CORRECTION: INSTRUMENT NUMBER VM2512 WAS ENTERED IN ERROR AGAINST THIS PROPERTY AND WAS REMOVED AND CERTIFIED ON 1999/12/30 BY ANNETTE VAN DUYN.
16907	0143	CORRECTION: INSTRUMENT NUMBER 62R7507 WAS OMITTED FROM THIS PROPERTY IN ERROR AND WAS ADDED AND CERTIFIED ON 1996/08/20 BY DORRIE MORLEY.
16907	0214	SUBJECT TO EXECUTION NUMBER 1 - 2 , IF APPLICABLE, AS IN SC89TR. SUBJECT TO EXECUTION NUMBER 3 - 4 , IF APPLICABLE, AS IN SC89TR.
16907	0289	SUBJECT TO DEBTS OF SC140 TEST FRENCH CT_T__ , IF ANY, AS IN SC140. SC140	SC8:  ENTER VALID PARENT PIN AND BLOCK NUMBER. ENTER ACTIVE CONDOMINIUM PLAN. PARENT PIN WITH FRENCH ESTATE/QUALIFIER. PROCEED. JELENA.
16907	0388	CORRECTION: INSTRUMENT NUMBER LT333131 WAS OMITTED FROM THIS PROPERTY IN ERROR AND WAS ADDED AND CERTIFIED ON 1996/10/15 BY ERIC CANNON.
16907	0389	CORRECTION: INSTRUMENT NUMBER LT333131 WAS ENTERED IN ERROR AGAINST THIS PROPERTY AND WAS REMOVED AND CERTIFIED ON 1996/10/15 BY ERIC CANNON.
16907	0397	SUBJECT TO EXECUTION NUMBER 1 - 2 , IF APPLICABLE, AS IN SC151. SUBJECT TO DEBTS OF SC151 , IF ANY, AS IN SC151. SUBJECT TO SPOUSAL RIGHTS OF THE SPOUSE OF SC151 , IF ANY, AS IN SC151. SC151	SC19: ENTER VALID PARENT PIN AND BLOCK NUMBER. ENTER ACTIVE CON
16907	0418	CORRECTION: INSTRUMENT NUMBER LT355351 WAS OMITTED FROM THIS PROPERTY IN ERROR AND WAS ADDED AND CERTIFIED ON 1995/12/15 BY ELGIN FAREWELL.
16907	0419	CORRECTION: INSTRUMENT NUMBER LT355351 WAS OMITTED FROM THIS PROPERTY IN ERROR AND WAS ADDED AND CERTIFIED ON 1995/12/15 BY ELGIN FAREWELL.
16907	0420	CORRECTION: INSTRUMENT NUMBER LT355351 WAS OMITTED FROM THIS PROPERTY IN ERROR AND WAS ADDED AND CERTIFIED ON 1995/12/15 BY ELGIN FAREWELL.
16907	0421	CORRECTION: INSTRUMENT NUMBER LT355351 WAS OMITTED FROM THIS PROPERTY IN ERROR AND WAS ADDED AND CERTIFIED ON 1995/12/15 BY ELGIN FAREWELL.
16907	0422	CORRECTION: INSTRUMENT NUMBER LT355351 WAS OMITTED FROM THIS PROPERTY IN ERROR AND WAS ADDED AND CERTIFIED ON 1995/12/15 BY ELGIN FAREWELL. CORRECTION: INSTRUMENT NUMBER LT374573 WAS OMITTED FROM THIS PROPERTY IN ERROR AND WAS ADDED AND CERTIFIED ON 2004/
16907	0423	CORRECTION: INSTRUMENT NUMBER LT355351 WAS OMITTED FROM THIS PROPERTY IN ERROR AND WAS ADDED AND CERTIFIED ON 1995/12/15 BY ELGIN FAREWELL.
16907	0424	CORRECTION: INSTRUMENT NUMBER LT355351 WAS OMITTED FROM THIS PROPERTY IN ERROR AND WAS ADDED AND CERTIFIED ON 1995/12/15 BY ELGIN FAREWELL.
16907	0425	CORRECTION: INSTRUMENT NUMBER LT355351 WAS OMITTED FROM THIS PROPERTY IN ERROR AND WAS ADDED AND CERTIFIED ON 1995/12/15 BY ELGIN FAREWELL.
16907	0426	CORRECTION: INSTRUMENT NUMBER LT355351 WAS OMITTED FROM THIS PROPERTY IN ERROR AND WAS ADDED AND CERTIFIED ON 1995/12/15 BY ELGIN FAREWELL.
16907	0427	CORRECTION: INSTRUMENT NUMBER LT355351 WAS OMITTED FROM THIS PROPERTY IN ERROR AND WAS ADDED AND CERTIFIED ON 1995/12/15 BY ELGIN FAREWELL.
16907	0428	CORRECTION: INSTRUMENT NUMBER LT355351 WAS OMITTED FROM THIS PROPERTY IN ERROR AND WAS ADDED AND CERTIFIED ON 1995/12/15 BY ELGIN FAREWELL.
16907	0429	CORRECTION: INSTRUMENT NUMBER LT355351 WAS OMITTED FROM THIS PROPERTY IN ERROR AND WAS ADDED AND CERTIFIED ON 1995/12/15 BY ELGIN FAREWELL.
16907	0430	CORRECTION: INSTRUMENT NUMBER LT355351 WAS OMITTED FROM THIS PROPERTY IN ERROR AND WAS ADDED AND CERTIFIED ON 1995/12/13 BY MARLENE HUNTER.
16907	0432	CORRECTION: INSTRUMENT NUMBER LT355351 WAS OMITTED FROM THIS PROPERTY IN ERROR AND WAS ADDED AND CERTIFIED ON 1995/12/15 BY ELGIN FAREWELL.
16907	0433	CORRECTION: INSTRUMENT NUMBER LT355351 WAS OMITTED FROM THIS PROPERTY IN ERROR AND WAS ADDED AND CERTIFIED ON 1995/12/04 BY MARLENE HUNTER.
16907	0434	CORRECTION: INSTRUMENT NUMBER LT355351 WAS OMITTED FROM THIS PROPERTY IN ERROR AND WAS ADDED AND CERTIFIED ON 1995/12/15 BY ELGIN FAREWELL.
16907	0435	CORRECTION: INSTRUMENT NUMBER LT355351 WAS OMITTED FROM THIS PROPERTY IN ERROR AND WAS ADDED AND CERTIFIED ON 1995/12/15 BY ELGIN FAREWELL.
16907	0436	CORRECTION: INSTRUMENT NUMBER LT355351 WAS OMITTED FROM THIS PROPERTY IN ERROR AND WAS ADDED AND CERTIFIED ON 1995/12/15 BY ELGIN FAREWELL.
16907	0437	CORRECTION: INSTRUMENT NUMBER LT355351 WAS OMITTED FROM THIS PROPERTY IN ERROR AND WAS ADDED AND CERTIFIED ON 1995/12/15 BY ELGIN FAREWELL.
16907	0438	CORRECTION: INSTRUMENT NUMBER LT355351 WAS OMITTED FROM THIS PROPERTY IN ERROR AND WAS ADDED AND CERTIFIED ON 1995/12/15 BY ELGIN FAREWELL.
16907	0439	CORRECTION: INSTRUMENT NUMBER LT355351 WAS OMITTED FROM THIS PROPERTY IN ERROR AND WAS ADDED AND CERTIFIED ON 1995/12/15 BY ELGIN FAREWELL.
16907	0440	CORRECTION: INSTRUMENT NUMBER LT355351 WAS OMITTED FROM THIS PROPERTY IN ERROR AND WAS ADDED AND CERTIFIED ON 1995/12/15 BY ELGIN FAREWELL.
16907	0441	CORRECTION: INSTRUMENT NUMBER LT355351 WAS OMITTED FROM THIS PROPERTY IN ERROR AND WAS ADDED AND CERTIFIED ON 1995/12/15 BY ELGIN FAREWELL.
16907	0442	CORRECTION: INSTRUMENT NUMBER LT355351 WAS OMITTED FROM THIS PROPERTY IN ERROR AND WAS ADDED AND CERTIFIED ON 1995/12/15 BY ELGIN FAREWELL.
16907	0444	CORRECTION: INSTRUMENT NUMBER LT355351 WAS OMITTED FROM THIS PROPERTY IN ERROR AND WAS ADDED AND CERTIFIED ON 1995/12/15 BY ELGIN FAREWELL.
16907	0445	CORRECTION: INSTRUMENT NUMBER LT355351 WAS OMITTED FROM THIS PROPERTY IN ERROR AND WAS ADDED AND CERTIFIED ON 1995/12/15 BY ELGIN FAREWELL.
16907	0499	CORRECTION: INSTRUMENT NUMBER WE16751 WAS ENTERED IN ERROR AGAINST THIS PROPERTY AND WAS REMOVED AND CERTIFIED ON 2001/01/24 BY BELLE FIAMELLI.
16907	0522	CORRECTION: INSTRUMENT NUMBER LT355351 WAS OMITTED FROM THIS PROPERTY IN ERROR AND WAS ADDED AND CERTIFIED ON 1999/03/02 BY ERIC CANNON.
16907	0523	CORRECTION: INSTRUMENT NUMBER LT355351 WAS OMITTED FROM THIS PROPERTY IN ERROR AND WAS ADDED AND CERTIFIED ON 1999/03/02 BY ERIC CANNON.
16907	0524	CORRECTION: INSTRUMENT NUMBER LT355351 WAS OMITTED FROM THIS PROPERTY IN ERROR AND WAS ADDED AND CERTIFIED ON 1999/03/02 BY ERIC CANNON.
16907	0525	CORRECTION: INSTRUMENT NUMBER LT355351 WAS OMITTED FROM THIS PROPERTY IN ERROR AND WAS ADDED AND CERTIFIED ON 1999/03/02 BY ERIC CANNON.
16907	0526	CORRECTION: INSTRUMENT NUMBER LT355351 WAS OMITTED FROM THIS PROPERTY IN ERROR AND WAS ADDED AND CERTIFIED ON 1999/03/02 BY ERIC CANNON.
16907	0527	CORRECTION: INSTRUMENT NUMBER LT355351 WAS OMITTED FROM THIS PROPERTY IN ERROR AND WAS ADDED AND CERTIFIED ON 1999/03/02 BY ERIC CANNON.
16907	0528	CORRECTION: INSTRUMENT NUMBER LT355351 WAS OMITTED FROM THIS PROPERTY IN ERROR AND WAS ADDED AND CERTIFIED ON 1999/03/02 BY ERIC CANNON.
16907	0529	CORRECTION: INSTRUMENT NUMBER LT355351 WAS OMITTED FROM THIS PROPERTY IN ERROR AND WAS ADDED AND CERTIFIED ON 1999/03/02 BY ERIC CANNON.
16907	0530	CORRECTION: INSTRUMENT NUMBER LT355351 WAS OMITTED FROM THIS PROPERTY IN ERROR AND WAS ADDED AND CERTIFIED ON 1999/03/02 BY ERIC CANNON.
16907	0531	CORRECTION: INSTRUMENT NUMBER LT355351 WAS OMITTED FROM THIS PROPERTY IN ERROR AND WAS ADDED AND CERTIFIED ON 1999/03/02 BY ERIC CANNON.
16907	0532	CORRECTION: INSTRUMENT NUMBER LT355351 WAS OMITTED FROM THIS PROPERTY IN ERROR AND WAS ADDED AND CERTIFIED ON 1999/03/02 BY ERIC CANNON.
16907	0533	CORRECTION: INSTRUMENT NUMBER LT355351 WAS OMITTED FROM THIS PROPERTY IN ERROR AND WAS ADDED AND CERTIFIED ON 1999/03/02 BY ERIC CANNON.
16907	0534	CORRECTION: INSTRUMENT NUMBER LT355351 WAS OMITTED FROM THIS PROPERTY IN ERROR AND WAS ADDED AND CERTIFIED ON 1999/03/02 BY ERIC CANNON.
16907	0535	CORRECTION: INSTRUMENT NUMBER LT355351 WAS OMITTED FROM THIS PROPERTY IN ERROR AND WAS ADDED AND CERTIFIED ON 1999/03/02 BY ERIC CANNON.
16907	0536	CORRECTION: INSTRUMENT NUMBER LT355351 WAS OMITTED FROM THIS PROPERTY IN ERROR AND WAS ADDED AND CERTIFIED ON 1999/03/02 BY ERIC CANNON.
16907	0537	CORRECTION: INSTRUMENT NUMBER LT355351 WAS OMITTED FROM THIS PROPERTY IN ERROR AND WAS ADDED AND CERTIFIED ON 1999/03/02 BY ERIC CANNON.
16907	0538	CORRECTION: INSTRUMENT NUMBER LT355351 WAS OMITTED FROM THIS PROPERTY IN ERROR AND WAS ADDED AND CERTIFIED ON 1999/03/02 BY ERIC CANNON.
16907	0539	CORRECTION: INSTRUMENT NUMBER LT355351 WAS OMITTED FROM THIS PROPERTY IN ERROR AND WAS ADDED AND CERTIFIED ON 1999/03/02 BY ERIC CANNON.
16907	0540	CORRECTION: INSTRUMENT NUMBER LT355351 WAS OMITTED FROM THIS PROPERTY IN ERROR AND WAS ADDED AND CERTIFIED ON 1999/03/02 BY ERIC CANNON.
16907	0541	CORRECTION: INSTRUMENT NUMBER LT355351 WAS OMITTED FROM THIS PROPERTY IN ERROR AND WAS ADDED AND CERTIFIED ON 1999/03/02 BY ERIC CANNON.
16907	0542	CORRECTION: INSTRUMENT NUMBER LT355351 WAS OMITTED FROM THIS PROPERTY IN ERROR AND WAS ADDED AND CERTIFIED ON 1999/03/02 BY ERIC CANNON.
16907	0543	CORRECTION: INSTRUMENT NUMBER LT355351 WAS OMITTED FROM THIS PROPERTY IN ERROR AND WAS ADDED AND CERTIFIED ON 1999/03/02 BY ERIC CANNON.
16907	0544	CORRECTION: INSTRUMENT NUMBER LT355351 WAS OMITTED FROM THIS PROPERTY IN ERROR AND WAS ADDED AND CERTIFIED ON 1999/03/02 BY ERIC CANNON.
16907	0545	CORRECTION: INSTRUMENT NUMBER LT355351 WAS OMITTED FROM THIS PROPERTY IN ERROR AND WAS ADDED AND CERTIFIED ON 1999/03/02 BY ERIC CANNON.
16907	0546	CORRECTION: INSTRUMENT NUMBER LT355351 WAS OMITTED FROM THIS PROPERTY IN ERROR AND WAS ADDED AND CERTIFIED ON 1999/03/02 BY ERIC CANNON.
16907	0547	CORRECTION: INSTRUMENT NUMBER LT355351 WAS OMITTED FROM THIS PROPERTY IN ERROR AND WAS ADDED AND CERTIFIED ON 1999/03/02 BY ERIC CANNON.
16907	0548	CORRECTION: INSTRUMENT NUMBER LT355351 WAS OMITTED FROM THIS PROPERTY IN ERROR AND WAS ADDED AND CERTIFIED ON 1999/03/02 BY ERIC CANNON.
16907	0549	CORRECTION: INSTRUMENT NUMBER LT355351 WAS OMITTED FROM THIS PROPERTY IN ERROR AND WAS ADDED AND CERTIFIED ON 1999/03/02 BY ERIC CANNON.
16907	0550	CORRECTION: INSTRUMENT NUMBER LT355351 WAS OMITTED FROM THIS PROPERTY IN ERROR AND WAS ADDED AND CERTIFIED ON 1999/03/02 BY ERIC CANNON.
16907	0551	CORRECTION: INSTRUMENT NUMBER LT355351 WAS OMITTED FROM THIS PROPERTY IN ERROR AND WAS ADDED AND CERTIFIED ON 1999/03/02 BY ERIC CANNON.
16907	0552	CORRECTION: INSTRUMENT NUMBER LT355351 WAS OMITTED FROM THIS PROPERTY IN ERROR AND WAS ADDED AND CERTIFIED ON 1999/03/02 BY ERIC CANNON.
16907	0553	CORRECTION: INSTRUMENT NUMBER LT355351 WAS OMITTED FROM THIS PROPERTY IN ERROR AND WAS ADDED AND CERTIFIED ON 1999/03/02 BY ERIC CANNON. THE FOLLOWING REMARK HAS BEEN ADDED ON 2000/07/06 AT 14:52 BY LYN WEAVER : S/T THE RT OF BRUSANTIS DEVELOPMENT CORPORA
16907	0554	CORRECTION: INSTRUMENT NUMBER LT355351 WAS OMITTED FROM THIS PROPERTY IN ERROR AND WAS ADDED AND CERTIFIED ON 1999/03/02 BY ERIC CANNON.
16907	0555	CORRECTION: INSTRUMENT NUMBER LT355351 WAS OMITTED FROM THIS PROPERTY IN ERROR AND WAS ADDED AND CERTIFIED ON 1999/03/02 BY ERIC CANNON.
16907	0556	CORRECTION: INSTRUMENT NUMBER LT355351 WAS OMITTED FROM THIS PROPERTY IN ERROR AND WAS ADDED AND CERTIFIED ON 1999/03/02 BY ERIC CANNON.
16907	0557	CORRECTION: INSTRUMENT NUMBER LT355351 WAS OMITTED FROM THIS PROPERTY IN ERROR AND WAS ADDED AND CERTIFIED ON 1999/03/02 BY ERIC CANNON.
16907	0558	CORRECTION: INSTRUMENT NUMBER LT355351 WAS OMITTED FROM THIS PROPERTY IN ERROR AND WAS ADDED AND CERTIFIED ON 1999/03/02 BY ERIC CANNON.
16907	0559	CORRECTION: INSTRUMENT NUMBER LT355351 WAS OMITTED FROM THIS PROPERTY IN ERROR AND WAS ADDED AND CERTIFIED ON 1999/03/02 BY ERIC CANNON.
16907	0560	CORRECTION: INSTRUMENT NUMBER LT355351 WAS OMITTED FROM THIS PROPERTY IN ERROR AND WAS ADDED AND CERTIFIED ON 1999/03/02 BY ERIC CANNON.
16907	0561	CORRECTION: INSTRUMENT NUMBER LT355351 WAS OMITTED FROM THIS PROPERTY IN ERROR AND WAS ADDED AND CERTIFIED ON 1999/03/02 BY ERIC CANNON.
16907	0562	CORRECTION: INSTRUMENT NUMBER LT355351 WAS OMITTED FROM THIS PROPERTY IN ERROR AND WAS ADDED AND CERTIFIED ON 1999/03/02 BY ERIC CANNON.
16907	0563	CORRECTION: INSTRUMENT NUMBER LT355351 WAS OMITTED FROM THIS PROPERTY IN ERROR AND WAS ADDED AND CERTIFIED ON 1999/03/02 BY ERIC CANNON.
16907	0564	CORRECTION: INSTRUMENT NUMBER LT355351 WAS OMITTED FROM THIS PROPERTY IN ERROR AND WAS ADDED AND CERTIFIED ON 1999/03/02 BY ERIC CANNON.
16907	0565	CORRECTION: INSTRUMENT NUMBER LT355351 WAS OMITTED FROM THIS PROPERTY IN ERROR AND WAS ADDED AND CERTIFIED ON 1999/03/02 BY ERIC CANNON.
16907	0566	CORRECTION: INSTRUMENT NUMBER LT355351 WAS OMITTED FROM THIS PROPERTY IN ERROR AND WAS ADDED AND CERTIFIED ON 1999/03/02 BY ERIC CANNON.
16907	0567	CORRECTION: INSTRUMENT NUMBER LT355351 WAS OMITTED FROM THIS PROPERTY IN ERROR AND WAS ADDED AND CERTIFIED ON 1999/03/02 BY ERIC CANNON.
16907	0568	CORRECTION: INSTRUMENT NUMBER LT355351 WAS OMITTED FROM THIS PROPERTY IN ERROR AND WAS ADDED AND CERTIFIED ON 1999/03/02 BY ERIC CANNON.
16907	0569	CORRECTION: INSTRUMENT NUMBER LT355351 WAS OMITTED FROM THIS PROPERTY IN ERROR AND WAS ADDED AND CERTIFIED ON 1999/03/02 BY ERIC CANNON.
16907	0570	CORRECTION: INSTRUMENT NUMBER LT355351 WAS OMITTED FROM THIS PROPERTY IN ERROR AND WAS ADDED AND CERTIFIED ON 1999/03/02 BY ERIC CANNON.
16907	0571	CORRECTION: INSTRUMENT NUMBER LT355351 WAS OMITTED FROM THIS PROPERTY IN ERROR AND WAS ADDED AND CERTIFIED ON 1999/03/02 BY ERIC CANNON.
16907	0572	CORRECTION: INSTRUMENT NUMBER LT355351 WAS OMITTED FROM THIS PROPERTY IN ERROR AND WAS ADDED AND CERTIFIED ON 1999/03/02 BY ERIC CANNON.
16907	0573	CORRECTION: INSTRUMENT NUMBER LT355351 WAS OMITTED FROM THIS PROPERTY IN ERROR AND WAS ADDED AND CERTIFIED ON 1999/03/02 BY ERIC CANNON.
16907	0574	CORRECTION: INSTRUMENT NUMBER LT355351 WAS OMITTED FROM THIS PROPERTY IN ERROR AND WAS ADDED AND CERTIFIED ON 1999/03/02 BY ERIC CANNON.
16907	0575	CORRECTION: INSTRUMENT NUMBER LT355351 WAS OMITTED FROM THIS PROPERTY IN ERROR AND WAS ADDED AND CERTIFIED ON 1999/03/02 BY ERIC CANNON.
16907	0576	CORRECTION: INSTRUMENT NUMBER LT355351 WAS OMITTED FROM THIS PROPERTY IN ERROR AND WAS ADDED AND CERTIFIED ON 1999/03/02 BY ERIC CANNON.
16907	0577	CORRECTION: INSTRUMENT NUMBER LT355351 WAS OMITTED FROM THIS PROPERTY IN ERROR AND WAS ADDED AND CERTIFIED ON 1999/03/02 BY ERIC CANNON.
16907	0578	CORRECTION: INSTRUMENT NUMBER LT355351 WAS OMITTED FROM THIS PROPERTY IN ERROR AND WAS ADDED AND CERTIFIED ON 1999/03/02 BY ERIC CANNON.
16907	0579	CORRECTION: INSTRUMENT NUMBER LT355351 WAS OMITTED FROM THIS PROPERTY IN ERROR AND WAS ADDED AND CERTIFIED ON 1999/03/02 BY ERIC CANNON.
16907	0580	CORRECTION: INSTRUMENT NUMBER LT355351 WAS OMITTED FROM THIS PROPERTY IN ERROR AND WAS ADDED AND CERTIFIED ON 1999/03/02 BY ERIC CANNON.
16907	0581	CORRECTION: INSTRUMENT NUMBER LT355351 WAS OMITTED FROM THIS PROPERTY IN ERROR AND WAS ADDED AND CERTIFIED ON 1999/03/02 BY ERIC CANNON.
16907	0582	CORRECTION: INSTRUMENT NUMBER LT355351 WAS OMITTED FROM THIS PROPERTY IN ERROR AND WAS ADDED AND CERTIFIED ON 1999/03/02 BY ERIC CANNON.
16907	0583	CORRECTION: INSTRUMENT NUMBER LT355351 WAS OMITTED FROM THIS PROPERTY IN ERROR AND WAS ADDED AND CERTIFIED ON 1999/03/02 BY ERIC CANNON.
16907	0584	CORRECTION: INSTRUMENT NUMBER LT355351 WAS OMITTED FROM THIS PROPERTY IN ERROR AND WAS ADDED AND CERTIFIED ON 1999/03/02 BY ERIC CANNON.
16907	0585	CORRECTION: INSTRUMENT NUMBER LT355351 WAS OMITTED FROM THIS PROPERTY IN ERROR AND WAS ADDED AND CERTIFIED ON 1999/03/02 BY ERIC CANNON.
16907	0586	CORRECTION: INSTRUMENT NUMBER LT355351 WAS OMITTED FROM THIS PROPERTY IN ERROR AND WAS ADDED AND CERTIFIED ON 1999/03/02 BY ERIC CANNON.
16907	0587	CORRECTION: INSTRUMENT NUMBER LT355351 WAS OMITTED FROM THIS PROPERTY IN ERROR AND WAS ADDED AND CERTIFIED ON 1999/03/02 BY ERIC CANNON.
16907	0588	CORRECTION: INSTRUMENT NUMBER LT355351 WAS OMITTED FROM THIS PROPERTY IN ERROR AND WAS ADDED AND CERTIFIED ON 1999/03/02 BY ERIC CANNON.
16907	0589	CORRECTION: INSTRUMENT NUMBER LT355351 WAS OMITTED FROM THIS PROPERTY IN ERROR AND WAS ADDED AND CERTIFIED ON 1999/03/02 BY ERIC CANNON.
16907	0590	CORRECTION: INSTRUMENT NUMBER LT355351 WAS OMITTED FROM THIS PROPERTY IN ERROR AND WAS ADDED AND CERTIFIED ON 1999/03/02 BY ERIC CANNON.
16907	0591	CORRECTION: INSTRUMENT NUMBER LT355351 WAS OMITTED FROM THIS PROPERTY IN ERROR AND WAS ADDED AND CERTIFIED ON 1999/03/02 BY ERIC CANNON.
16907	0592	CORRECTION: INSTRUMENT NUMBER LT355351 WAS OMITTED FROM THIS PROPERTY IN ERROR AND WAS ADDED AND CERTIFIED ON 1999/03/02 BY ERIC CANNON.
16907	0593	CORRECTION: INSTRUMENT NUMBER LT355351 WAS OMITTED FROM THIS PROPERTY IN ERROR AND WAS ADDED AND CERTIFIED ON 1999/03/02 BY ERIC CANNON.
16907	0594	CORRECTION: INSTRUMENT NUMBER LT355351 WAS OMITTED FROM THIS PROPERTY IN ERROR AND WAS ADDED AND CERTIFIED ON 1999/03/02 BY ERIC CANNON.
16907	0595	CORRECTION: INSTRUMENT NUMBER LT355351 WAS OMITTED FROM THIS PROPERTY IN ERROR AND WAS ADDED AND CERTIFIED ON 1999/03/02 BY ERIC CANNON.
16907	0596	CORRECTION: INSTRUMENT NUMBER LT355351 WAS OMITTED FROM THIS PROPERTY IN ERROR AND WAS ADDED AND CERTIFIED ON 1999/03/02 BY ERIC CANNON.
16907	0597	CORRECTION: INSTRUMENT NUMBER LT355351 WAS OMITTED FROM THIS PROPERTY IN ERROR AND WAS ADDED AND CERTIFIED ON 1999/03/02 BY ERIC CANNON.
16907	0598	CORRECTION: INSTRUMENT NUMBER LT355351 WAS OMITTED FROM THIS PROPERTY IN ERROR AND WAS ADDED AND CERTIFIED ON 1999/03/02 BY ERIC CANNON.
16907	0599	CORRECTION: INSTRUMENT NUMBER LT355351 WAS OMITTED FROM THIS PROPERTY IN ERROR AND WAS ADDED AND CERTIFIED ON 1999/03/02 BY ERIC CANNON.
16907	0600	CORRECTION: INSTRUMENT NUMBER LT355351 WAS OMITTED FROM THIS PROPERTY IN ERROR AND WAS ADDED AND CERTIFIED ON 1999/03/02 BY ERIC CANNON.
16907	0601	CORRECTION: INSTRUMENT NUMBER LT355351 WAS OMITTED FROM THIS PROPERTY IN ERROR AND WAS ADDED AND CERTIFIED ON 1999/03/02 BY ERIC CANNON.
16907	0602	CORRECTION: INSTRUMENT NUMBER LT355351 WAS OMITTED FROM THIS PROPERTY IN ERROR AND WAS ADDED AND CERTIFIED ON 1999/03/02 BY ERIC CANNON.
16907	0603	CORRECTION: INSTRUMENT NUMBER LT355351 WAS OMITTED FROM THIS PROPERTY IN ERROR AND WAS ADDED AND CERTIFIED ON 1999/03/02 BY ERIC CANNON.
16907	0604	CORRECTION: INSTRUMENT NUMBER LT355351 WAS OMITTED FROM THIS PROPERTY IN ERROR AND WAS ADDED AND CERTIFIED ON 1999/03/02 BY ERIC CANNON.
16907	0605	CORRECTION: INSTRUMENT NUMBER LT355351 WAS OMITTED FROM THIS PROPERTY IN ERROR AND WAS ADDED AND CERTIFIED ON 1999/03/02 BY ERIC CANNON.
16907	0606	CORRECTION: INSTRUMENT NUMBER LT355351 WAS OMITTED FROM THIS PROPERTY IN ERROR AND WAS ADDED AND CERTIFIED ON 1999/03/02 BY ERIC CANNON.
16907	0607	CORRECTION: INSTRUMENT NUMBER LT355351 WAS OMITTED FROM THIS PROPERTY IN ERROR AND WAS ADDED AND CERTIFIED ON 1999/03/02 BY ERIC CANNON.
16907	0608	CORRECTION: INSTRUMENT NUMBER LT355351 WAS OMITTED FROM THIS PROPERTY IN ERROR AND WAS ADDED AND CERTIFIED ON 1999/03/02 BY ERIC CANNON.
16907	0609	CORRECTION: INSTRUMENT NUMBER LT355351 WAS OMITTED FROM THIS PROPERTY IN ERROR AND WAS ADDED AND CERTIFIED ON 1999/03/02 BY ERIC CANNON.
16907	0610	CORRECTION: INSTRUMENT NUMBER LT355351 WAS OMITTED FROM THIS PROPERTY IN ERROR AND WAS ADDED AND CERTIFIED ON 1999/03/02 BY ERIC CANNON. THE FOLLOWING REMARK HAS BEEN ADDED ON 2000/07/25 AT 16:10 BY LYN WEAVER : S/T RT TO ENTER WITHIN 5YRS FROM 2000 07 05
16907	0611	CORRECTION: INSTRUMENT NUMBER LT355351 WAS OMITTED FROM THIS PROPERTY IN ERROR AND WAS ADDED AND CERTIFIED ON 1999/03/02 BY ERIC CANNON.
16907	0612	CORRECTION: INSTRUMENT NUMBER LT355351 WAS OMITTED FROM THIS PROPERTY IN ERROR AND WAS ADDED AND CERTIFIED ON 1999/03/02 BY ERIC CANNON.
16907	0613	CORRECTION: INSTRUMENT NUMBER LT355351 WAS OMITTED FROM THIS PROPERTY IN ERROR AND WAS ADDED AND CERTIFIED ON 1999/03/02 BY ERIC CANNON.
16907	0614	CORRECTION: INSTRUMENT NUMBER LT355351 WAS OMITTED FROM THIS PROPERTY IN ERROR AND WAS ADDED AND CERTIFIED ON 1999/03/02 BY ERIC CANNON.
16907	0615	CORRECTION: INSTRUMENT NUMBER LT355351 WAS OMITTED FROM THIS PROPERTY IN ERROR AND WAS ADDED AND CERTIFIED ON 1999/03/02 BY ERIC CANNON. THE FOLLOWING REMARK HAS BEEN ADDED ON 2001/06/11 AT 12:06 BY HELEN MACMILLAN : INSTRUMENT LT355351 DELETED BY WE32907
16907	0616	CORRECTION: INSTRUMENT NUMBER LT355351 WAS OMITTED FROM THIS PROPERTY IN ERROR AND WAS ADDED AND CERTIFIED ON 1999/03/02 BY ERIC CANNON.
16907	0617	CORRECTION: INSTRUMENT NUMBER LT355351 WAS OMITTED FROM THIS PROPERTY IN ERROR AND WAS ADDED AND CERTIFIED ON 1999/03/02 BY ERIC CANNON.
16907	0618	CORRECTION: INSTRUMENT NUMBER LT355351 WAS OMITTED FROM THIS PROPERTY IN ERROR AND WAS ADDED AND CERTIFIED ON 1999/03/02 BY ERIC CANNON.
16907	0619	CORRECTION: INSTRUMENT NUMBER LT355351 WAS OMITTED FROM THIS PROPERTY IN ERROR AND WAS ADDED AND CERTIFIED ON 1999/03/02 BY ERIC CANNON.
16907	0620	CORRECTION: INSTRUMENT NUMBER LT355351 WAS OMITTED FROM THIS PROPERTY IN ERROR AND WAS ADDED AND CERTIFIED ON 1999/03/02 BY ERIC CANNON.
16907	0629	SUBJECT TO SUBSECTION 44(1) OF THE LAND TITLES ACT, EXCEPT PARAGRAPH 11, PARAGRAPH 14, PROVINCIAL SUCCESSION DUTIES AND ESCHEATS OR FORFEITURE TO THE CROWN, UP TO THE DATE OF CONVERSION AND EXCEPT PARAGRAPH 3 AND PARAGRAPH 14 THEREAFTER.
16907	0687	SUBJECT TO SUBSECTION 44 (1) OF THE LAND TITLES ACT, EXCEPT PARAGRAPHS 3 AND 14 AND PROVINCIAL SUCCESSION DUTIES AND EXCEPT PARAGRAPH 11 AND ESCHEATS OR FORFEITURE TO THE CROWN UP TO THE DATE OF REGISTRATION WITH ABSOLUTE TITLE.
16907	0688	SUBJECT TO SUBSECTION 44 (1) OF THE LAND TITLES ACT, EXCEPT PARAGRAPHS 3 AND 14 AND PROVINCIAL SUCCESSION DUTIES AND EXCEPT PARAGRAPH 11 AND ESCHEATS OR FORFEITURE TO THE CROWN UP TO THE DATE OF REGISTRATION WITH ABSOLUTE TITLE.
16907	0689	SUBJECT TO SUBSECTION 44 (1) OF THE LAND TITLES ACT, EXCEPT PARAGRAPHS 3 AND 14 AND PROVINCIAL SUCCESSION DUTIES AND EXCEPT PARAGRAPH 11 AND ESCHEATS OR FORFEITURE TO THE CROWN UP TO THE DATE OF REGISTRATION WITH ABSOLUTE TITLE.
16907	0690	SUBJECT TO SUBSECTION 44 (1) OF THE LAND TITLES ACT, EXCEPT PARAGRAPHS 3 AND 14 AND PROVINCIAL SUCCESSION DUTIES AND EXCEPT PARAGRAPH 11 AND ESCHEATS OR FORFEITURE TO THE CROWN UP TO THE DATE OF REGISTRATION WITH ABSOLUTE TITLE.
16907	0691	SUBJECT TO SUBSECTION 44 (1) OF THE LAND TITLES ACT, EXCEPT PARAGRAPHS 3 AND 14 AND PROVINCIAL SUCCESSION DUTIES AND EXCEPT PARAGRAPH 11 AND ESCHEATS OR FORFEITURE TO THE CROWN UP TO THE DATE OF REGISTRATION WITH ABSOLUTE TITLE.
16907	0692	SUBJECT TO SUBSECTION 44 (1) OF THE LAND TITLES ACT, EXCEPT PARAGRAPHS 3 AND 14 AND PROVINCIAL SUCCESSION DUTIES AND EXCEPT PARAGRAPH 11 AND ESCHEATS OR FORFEITURE TO THE CROWN UP TO THE DATE OF REGISTRATION WITH ABSOLUTE TITLE.
16907	0693	SUBJECT TO SUBSECTION 44 (1) OF THE LAND TITLES ACT, EXCEPT PARAGRAPHS 3 AND 14 AND PROVINCIAL SUCCESSION DUTIES AND EXCEPT PARAGRAPH 11 AND ESCHEATS OR FORFEITURE TO THE CROWN UP TO THE DATE OF REGISTRATION WITH ABSOLUTE TITLE.
16907	0694	SUBJECT TO SUBSECTION 44 (1) OF THE LAND TITLES ACT, EXCEPT PARAGRAPHS 3 AND 14 AND PROVINCIAL SUCCESSION DUTIES AND EXCEPT PARAGRAPH 11 AND ESCHEATS OR FORFEITURE TO THE CROWN UP TO THE DATE OF REGISTRATION WITH ABSOLUTE TITLE.
16907	0711	PLANNING ACT CONSENT ATTACHED TO WE221838.
16907	0715	COMMITTEE OF ADJUSTMENT CONSENT IN WE248828.
16907	0717	COMMITTEE OF ADJUSTMENT CONSENT IN WE248828.
16907	0718	CORRECTION: INSTRUMENT NUMBER WE70778 WAS OMITTED FROM THIS PROPERTY IN ERROR AND WAS ADDED AND CERTIFIED ON 2005/02/17 BY CRISSY DELDUCA. CORRECTION: INSTRUMENT NUMBER WE248830 WAS OMITTED FROM THIS PROPERTY IN ERROR AND WAS ADDED AND CERTIFIED ON 2005/0
16907	0719	PLANNING ACT CONSENT ON WE269386.
16907	0721	"FOR THE PURPOSE OF THE QUALIFIER THE DATE OF REGISTRATION OF ABSOLUTE TITLE IS 2005/05/24".
16907	0722	"FOR THE PURPOSE OF THE QUALIFIER THE DATE OF REGISTRATION OF ABSOLUTE TITLE IS 2005/06/22".
16907	0723	THIS DESCRIPTION WAS NULL, WE CHNAGED IT SO IT DOESN'T CAUSE GREEN SCREEN.
16907	0731	PLANNING ACT CONSENT ATTACHED TO WE385240.
16907	0734	PLANNING ACT CONSENT ATTACHED TO WE385240.
16907	0735	PLANNING ACT CONSENT ATTACHED TO WE385617.
16908	0004	CORRECTION: DOCUMENT WE10055826 REMOVED FROM 16908-0004 ON 2023/01/04 AT 10:02 BY STURINO, NADINE.
16908	0006	CORRECTION: DOCUMENT WE10055826 REMOVED FROM 16908-0006 ON 2023/01/04 AT 10:02 BY STURINO, NADINE. CORRECTION: DOCUMENT WE10056070 REMOVED FROM 16908-0006 ON 2023/01/11 AT 11:35 BY STURINO, NADINE. CORRECTION: DOCUMENT WE10056121 ADDED TO 16908-0006 ON 20
16908	0012	CORRECTION: DOCUMENT WE10056070 REMOVED FROM 16908-0012 ON 2023/01/10 AT 21:22 BY STURINO, NADINE.
16908	0014	CORRECTION: DOCUMENT WE10056070 REMOVED FROM 16908-0014 ON 2023/01/10 AT 21:22 BY STURINO, NADINE.
16908	0015	CORRECTION: DOCUMENT WE10056070 REMOVED FROM 16908-0015 ON 2023/01/10 AT 21:22 BY STURINO, NADINE. CORRECTION: DOCUMENT 62POA1 ADDED TO PIN ON 2023/04/06 AT 12:12 BY STURINO, NADINE.
16908	0058	CORRECTION: DOCUMENT WE10055826 REMOVED FROM 16908-0058 ON 2023/01/10 AT 13:15 BY STURINO, NADINE.
16908	0150	CORRECTION: INSTRUMENT NUMBER LT471878 WAS ENTERED IN ERROR AGAINST THIS PROPERTY AND WAS REMOVED AND CERTIFIED ON 1999/06/09 BY MARLENE HUNTER. CORRECTION: INSTRUMENT NUMBER LT471879 WAS ENTERED IN ERROR AGAINST THIS PROPERTY AND WAS REMOVED AND CERTIFIE
16908	0250	CORRECTION: INSTRUMENT NUMBER LT471878 WAS OMITTED FROM THIS PROPERTY IN ERROR AND WAS ADDED AND CERTIFIED ON 1999/06/09 BY MARLENE HUNTER. CORRECTION: INSTRUMENT NUMBER LT471879 WAS OMITTED FROM THIS PROPERTY IN ERROR AND WAS ADDED AND CERTIFIED ON 1999/
16908	0293	CORRECTION: INSTRUMENT NUMBER WE12937 WAS ENTERED IN ERROR AGAINST THIS PROPERTY AND WAS REMOVED AND CERTIFIED ON 2001/01/10 BY BELLE FIAMELLI. CORRECTION: INSTRUMENT NUMBER WE12938 WAS ENTERED IN ERROR AGAINST THIS PROPERTY AND WAS REMOVED AND CERTIFIED
16908	0510	CORRECTION: INSTRUMENT NUMBER LT444104 WAS ENTERED IN ERROR AGAINST THIS PROPERTY AND WAS REMOVED AND CERTIFIED ON 2004/12/09 BY CRISSY DELDUCA.
16908	0597	SUBJECT ON THE DATE OF REGISTRATION 97/10/22 TO SUBSECTION 44(1) OF THE LAND TITLES ACT, EXCEPT PARAGRAPHS 3 AND 14 THEREOF AND PROVINCIAL SUCCESSION DUTIES;.
16908	0598	SUBJECT ON THE DATE OF REGISTRATION 97/10/22 TO SUBSECTION 44(1) OF THE LAND TITLES ACT, EXCEPT PARAGRAPHS 3 AND 14 THEREOF AND PROVINCIAL SUCCESSION DUTIES;.
16908	0599	SUBJECT ON THE DATE OF REGISTRATION 97/10/22 TO SUBSECTION 44(1) OF THE LAND TITLES ACT, EXCEPT PARAGRAPHS 3 AND 14 THEREOF AND PROVINCIAL SUCCESSION DUTIES;.
16908	0600	SUBJECT ON THE DATE OF REGISTRATION 97/10/22 TO SUBSECTION 44(1) OF THE LAND TITLES ACT, EXCEPT PARAGRAPHS 3 AND 14 THEREOF AND PROVINCIAL SUCCESSION DUTIES;.
16908	0601	SUBJECT ON THE DATE OF REGISTRATION 97/10/22 TO SUBSECTION 44(1) OF THE LAND TITLES ACT, EXCEPT PARAGRAPHS 3 AND 14 THEREOF AND PROVINCIAL SUCCESSION DUTIES;.
16908	0602	SUBJECT ON THE DATE OF REGISTRATION 97/10/22 TO SUBSECTION 44(1) OF THE LAND TITLES ACT, EXCEPT PARAGRAPHS 3 AND 14 THEREOF AND PROVINCIAL SUCCESSION DUTIES;.
16908	0603	SUBJECT ON THE DATE OF REGISTRATION 97/10/22 TO SUBSECTION 44(1) OF THE LAND TITLES ACT, EXCEPT PARAGRAPHS 3 AND 14 THEREOF AND PROVINCIAL SUCCESSION DUTIES;.
16908	0605	SUBJECT ON THE DATE OF REGISTRATION 97/10/22 TO SUBSECTION 44(1) OF THE LAND TITLES ACT, EXCEPT PARAGRAPHS 3 AND 14 THEREOF AND PROVINCIAL SUCCESSION DUTIES;.
16908	0691	SUBJECT ON THE DATE OF REGISTRATION 97/10/22 TO SUBSECTION 44 (1) OF THE LAND TITLES ACT, EXCEPT PARAGRAPHS 11 PARAGRAPH 14 PROVINCIAL SUCCESSION DUTIES AND ESCHEATS OR FORFEITURE TO THE CROWN UP TO THE DATE OF CONVERSION AND EXCEPT PARAGRAPHS 3 AND 14 TH
16908	0693	CORRECTION: INSTRUMENT NUMBER WE12937 WAS OMITTED FROM THIS PROPERTY IN ERROR AND WAS ADDED AND CERTIFIED ON 2001/01/10 BY BELLE FIAMELLI. CORRECTION: INSTRUMENT NUMBER WE12938 WAS OMITTED FROM THIS PROPERTY IN ERROR AND WAS ADDED AND CERTIFIED ON 2001/01
16908	0707	SUBJECT ON THE DATE OF REGISTRATION 97/10/22 TO SUBSECTION 44 (1) OF THE LAND TITLES ACT, EXCEPT PARAGRAPH 11, PARAGRAPH 14 PROVINCIAL SUCCESSION DUTIES AND ESCHEATS OR FORFEITURE TO THE CROWN UP TO THE DATE OF CONVERSION AND EXCEPT PARAGRAPH 3 AND 14 THE
16908	0708	SUBJECT ON THE DATE OF REGISTRATION 97/10/22 TO SUBSECTION 44 (1) OF THE LAND TITLES ACT, EXCEPT PARAGRAPH 11, PARAGRAPH 14 PROVINCIAL SUCCESSION DUTIES AND ESCHEATS OR FORFEITURE TO THE CROWN UP TO THE DATE OF CONVERSION AND EXCEPT PARAGRAPH 3 AND 14 THE
16908	0709	SUBJECT ON THE DATE OF REGISTRATION 97/10/22 TO SUBSECTION 44 (1) OF THE LAND TITLES ACT, EXCEPT PARAGRAPH 11, PARAGRAPH 14 PROVINCIAL SUCCESSION DUTIES AND ESCHEATS OR FORFEITURE TO THE CROWN UP TO THE DATE OF CONVERSION AND EXCEPT PARAGRAPH 3 AND 14 THE
16908	0710	SUBJECT ON THE DATE OF REGISTRATION 97/10/22 TO SUBSECTION 44 (1) OF THE LAND TITLES ACT, EXCEPT PARAGRAPH 11, PARAGRAPH 14 PROVINCIAL SUCCESSION DUTIES AND ESCHEATS OR FORFEITURE TO THE CROWN UP TO THE DATE OF CONVERSION AND EXCEPT PARAGRAPH 3 AND 14 THE
16908	0711	SUBJECT ON THE DATE OF REGISTRATION 97/10/22 TO SUBSECTION 44 (1) OF THE LAND TITLES ACT, EXCEPT PARAGRAPH 11, PARAGRAPH 14 PROVINCIAL SUCCESSION DUTIES AND ESCHEATS OR FORFEITURE TO THE CROWN UP TO THE DATE OF CONVERSION AND EXCEPT PARAGRAPH 3 AND 14 THE
16908	0712	SUBJECT ON THE DATE OF REGISTRATION 97/10/22 TO SUBSECTION 44 (1) OF THE LAND TITLES ACT, EXCEPT PARAGRAPH 11, PARAGRAPH 14 PROVINCIAL SUCCESSION DUTIES AND ESCHEATS OR FORFEITURE TO THE CROWN UP TO THE DATE OF CONVERSION AND EXCEPT PARAGRAPH 3 AND 14 THE
16908	0713	SUBJECT ON THE DATE OF REGISTRATION 97/10/22 TO SUBSECTION 44 (1) OF THE LAND TITLES ACT, EXCEPT PARAGRAPH 11, PARAGRAPH 14 PROVINCIAL SUCCESSION DUTIES AND ESCHEATS OR FORFEITURE TO THE CROWN UP TO THE DATE OF CONVERSION AND EXCEPT PARAGRAPH 3 AND 14 THE
16908	0714	SUBJECT ON THE DATE OF REGISTRATION 97/10/22 TO SUBSECTION 44 (1) OF THE LAND TITLES ACT, EXCEPT PARAGRAPH 11, PARAGRAPH 14 PROVINCIAL SUCCESSION DUTIES AND ESCHEATS OR FORFEITURE TO THE CROWN UP TO THE DATE OF CONVERSION AND EXCEPT PARAGRAPH 3 AND 14 THE
16908	0715	SUBJECT ON THE DATE OF REGISTRATION 97/10/22 TO SUBSECTION 44 (1) OF THE LAND TITLES ACT, EXCEPT PARAGRAPH 11, PARAGRAPH 14 PROVINCIAL SUCCESSION DUTIES AND ESCHEATS OR FORFEITURE TO THE CROWN UP TO THE DATE OF CONVERSION AND EXCEPT PARAGRAPH 3 AND 14 THE
16908	0716	SUBJECT ON THE DATE OF REGISTRATION 97/10/22 TO SUBSECTION 44 (1) OF THE LAND TITLES ACT, EXCEPT PARAGRAPH 11, PARAGRAPH 14 PROVINCIAL SUCCESSION DUTIES AND ESCHEATS OR FORFEITURE TO THE CROWN UP TO THE DATE OF CONVERSION AND EXCEPT PARAGRAPH 3 AND 14 THE
16908	0717	SUBJECT ON THE DATE OF REGISTRATION 97/10/22 TO SUBSECTION 44 (1) OF THE LAND TITLES ACT, EXCEPT PARAGRAPH 11, PARAGRAPH 14 PROVINCIAL SUCCESSION DUTIES AND ESCHEATS OR FORFEITURE TO THE CROWN UP TO THE DATE OF CONVERSION AND EXCEPT PARAGRAPH 3 AND 14 THE
16908	0718	SUBJECT ON THE DATE OF REGISTRATION 97/10/22 TO SUBSECTION 44 (1) OF THE LAND TITLES ACT, EXCEPT PARAGRAPH 11, PARAGRAPH 14 PROVINCIAL SUCCESSION DUTIES AND ESCHEATS OR FORFEITURE TO THE CROWN UP TO THE DATE OF CONVERSION AND EXCEPT PARAGRAPH 3 AND 14 THE
16908	0719	SUBJECT ON THE DATE OF REGISTRATION 97/10/22 TO SUBSECTION 44 (1) OF THE LAND TITLES ACT, EXCEPT PARAGRAPH 11, PARAGRAPH 14 PROVINCIAL SUCCESSION DUTIES AND ESCHEATS OR FORFEITURE TO THE CROWN UP TO THE DATE OF CONVERSION AND EXCEPT PARAGRAPH 3 AND 14 THE
16908	0720	SUBJECT ON THE DATE OF REGISTRATION 97/10/22 TO SUBSECTION 44 (1) OF THE LAND TITLES ACT, EXCEPT PARAGRAPH 11, PARAGRAPH 14 PROVINCIAL SUCCESSION DUTIES AND ESCHEATS OR FORFEITURE TO THE CROWN UP TO THE DATE OF CONVERSION AND EXCEPT PARAGRAPH 3 AND 14 THE
16908	0721	SUBJECT ON THE DATE OF REGISTRATION 97/10/22 TO SUBSECTION 44 (1) OF THE LAND TITLES ACT, EXCEPT PARAGRAPH 11, PARAGRAPH 14 PROVINCIAL SUCCESSION DUTIES AND ESCHEATS OR FORFEITURE TO THE CROWN UP TO THE DATE OF CONVERSION AND EXCEPT PARAGRAPH 3 AND 14 THE
16908	0722	SUBJECT ON THE DATE OF REGISTRATION 97/10/22 TO SUBSECTION 44(1) OF THE LAND TITLES ACT, EXCEPT PARAGRAPH 11, PARAGRAPH 14, PROVINCIAL SUCCESSION DUTIES AND ESCHEATS OR FORFEITURE TO THE CROWN UP TO THE DATE OF CONVERSION AND EXCEPT PARAGRAPH 3 AND 14 THE
16908	0723	SUBJECT ON THE DATE OF REGISTRATION 97/10/22 TO SUBSECTION 44(1) OF THE LAND TITLES ACT, EXCEPT PARAGRAPH 11, PARAGRAPH 14, PROVINCIAL SUCCESSION DUTIES AND ESCHEATS OR FORFEITURE TO THE CROWN UP TO THE DATE OF CONVERSION AND EXCEPT PARAGRAPH 3 AND 14 THE
16908	0767	COMMITTEE OF ADJUSTMENT CONSENT IN WE294383.
16911	0127	CORRECTION: INSTRUMENT NUMBER LT462694 WAS OMITTED FROM THIS PROPERTY IN ERROR AND WAS ADDED AND CERTIFIED ON 1998/03/12 BY MARLENE HUNTER.
16911	0134	SUBJECT ON THE DATE OF REGISTRATION 97/06/16 TO SUBSECTION 44(1) OF THE LAND TITLES ACT, EXCEPT PARAGRAPHS 3 AND 14 THEREOF AND PROVINCIAL SUCCESSION DUTIES.
16911	0136	SUBJECT ON THE DATE OF REGISTRATION 97/06/16 TO SUBSECTION 44(1) OF THE LAND TITLES ACT, EXCEPT PARAGRAPHS 3 AND 14 THEREOF AND PROVINCIAL SUCCESSION DUTIES.
16911	0138	SUBJECT ON THE DATE OF REGISTRATION 97/06/16 TO SUBSECTION 44(1) OF THE LAND TITLES ACT, EXCEPT PARAGRAPHS 3 AND 14 THEREOF AND PROVINCIAL SUCCESSION DUTIES.
16911	0140	SUBJECT ON THE DATE OF REGISTRATION 97/06/16 TO SUBSECTION 44(1) OF THE LAND TITLES ACT, EXCEPT PARAGRAPHS 3 AND 14 THEREOF AND PROVINCIAL SUCCESSION DUTIES.
16911	0141	SUBJECT ON THE DATE OF REGISTRATION 97/06/16 TO SUBSECTION 44(1) OF THE LAND TITLES ACT, EXCEPT PARAGRAPHS 3 AND 14 THEREOF AND PROVINCIAL SUCCESSION DUTIES.
16911	0148	CORRECTION: INSTRUMENT NUMBER HL167546 WAS ENTERED IN ERROR AGAINST THIS PROPERTY AND WAS REMOVED AND CERTIFIED ON 1998/05/27 BY LAND REGISTRAR 2.
16911	0149	SUBJECT ON THE DATE OF REGISTRATION 97/06/16 TO SUBSECTION 44(1) OF THE LAND TITLES ACT, EXCEPT PARAGRAPHS 3 AND 14 THEREOF AND PROVINCIAL SUCCESSION DUTIES.
16911	0150	SUBJECT ON THE DATE OF REGISTRATION 97/06/16 TO SUBSECTION 44(1) OF THE LAND TITLES ACT, EXCEPT PARAGRAPHS 3 AND 14 THEREOF AND PROVINCIAL SUCCESSION DUTIES.
16911	0151	SUBJECT ON THE DATE OF REGISTRATION 97/06/16 TO SUBSECTION 44(1) OF THE LAND TITLES ACT, EXCEPT PARAGRAPHS 3 AND 14 THEREOF AND PROVINCIAL SUCCESSION DUTIES.
16911	0152	SUBJECT ON THE DATE OF REGISTRATION 97/06/16 TO SUBSECTION 44(1) OF THE LAND TITLES ACT, EXCEPT PARAGRAPHS 3 AND 14 THEREOF AND PROVINCIAL SUCCESSION DUTIES.
16911	0153	SUBJECT ON THE DATE OF REGISTRATION 97/06/16 TO SUBSECTION 44(1) OF THE LAND TITLES ACT, EXCEPT PARAGRAPHS 3 AND 14 THEREOF AND PROVINCIAL SUCCESSION DUTIES.
16911	0154	SUBJECT ON THE DATE OF REGISTRATION 97/06/16 TO SUBSECTION 44(1) OF THE LAND TITLES ACT, EXCEPT PARAGRAPHS 3 AND 14 THEREOF AND PROVINCIAL SUCCESSION DUTIES.
16911	0155	SUBJECT ON THE DATE OF REGISTRATION 97/06/16 TO SUBSECTION 44(1) OF THE LAND TITLES ACT, EXCEPT PARAGRAPHS 3 AND 14 THEREOF AND PROVINCIAL SUCCESSION DUTIES.
16911	0156	SUBJECT ON THE DATE OF REGISTRATION 97/06/16 TO SUBSECTION 44(1) OF THE LAND TITLES ACT, EXCEPT PARAGRAPHS 3 AND 14 THEREOF AND PROVINCIAL SUCCESSION DUTIES.
16911	0157	SUBJECT ON THE DATE OF REGISTRATION 97/06/16 TO SUBSECTION 44(1) OF THE LAND TITLES ACT, EXCEPT PARAGRAPHS 3 AND 14 THEREOF AND PROVINCIAL SUCCESSION DUTIES.
16911	0158	SUBJECT ON THE DATE OF REGISTRATION 97/06/16 TO SUBSECTION 44(1) OF THE LAND TITLES ACT, EXCEPT PARAGRAPHS 3 AND 14 THEREOF AND PROVINCIAL SUCCESSION DUTIES.
16911	0159	SUBJECT ON THE DATE OF REGISTRATION 97/06/16 TO SUBSECTION 44(1) OF THE LAND TITLES ACT, EXCEPT PARAGRAPHS 3 AND 14 THEREOF AND PROVINCIAL SUCCESSION DUTIES.
16911	0160	SUBJECT ON THE DATE OF REGISTRATION 97/06/16 TO SUBSECTION 44(1) OF THE LAND TITLES ACT, EXCEPT PARAGRAPHS 3 AND 14 THEREOF AND PROVINCIAL SUCCESSION DUTIES.
16911	0161	SUBJECT ON THE DATE OF REGISTRATION 97/06/16 TO SUBSECTION 44(1) OF THE LAND TITLES ACT, EXCEPT PARAGRAPHS 3 AND 14 THEREOF AND PROVINCIAL SUCCESSION DUTIES.
16911	0162	SUBJECT ON THE DATE OF REGISTRATION 97/06/16 TO SUBSECTION 44(1) OF THE LAND TITLES ACT, EXCEPT PARAGRAPHS 3 AND 14 THEREOF AND PROVINCIAL SUCCESSION DUTIES.
16911	0163	SUBJECT ON THE DATE OF REGISTRATION 97/06/16 TO SUBSECTION 44(1) OF THE LAND TITLES ACT, EXCEPT PARAGRAPHS 3 AND 14 THEREOF AND PROVINCIAL SUCCESSION DUTIES.
16911	0164	SUBJECT ON THE DATE OF REGISTRATION 97/06/16 TO SUBSECTION 44(1) OF THE LAND TITLES ACT, EXCEPT PARAGRAPHS 3 AND 14 THEREOF AND PROVINCIAL SUCCESSION DUTIES.
16911	0165	SUBJECT ON THE DATE OF REGISTRATION 97/06/16 TO SUBSECTION 44(1) OF THE LAND TITLES ACT, EXCEPT PARAGRAPHS 3 AND 14 THEREOF AND PROVINCIAL SUCCESSION DUTIES.
16911	0166	SUBJECT ON THE DATE OF REGISTRATION 97/06/16 TO SUBSECTION 44(1) OF THE LAND TITLES ACT, EXCEPT PARAGRAPHS 3 AND 14 THEREOF AND PROVINCIAL SUCCESSION DUTIES.
16911	0167	SUBJECT ON THE DATE OF REGISTRATION 97/06/16 TO SUBSECTION 44(1) OF THE LAND TITLES ACT, EXCEPT PARAGRAPHS 3 AND 14 THEREOF AND PROVINCIAL SUCCESSION DUTIES.
16911	0168	SUBJECT ON THE DATE OF REGISTRATION 97/06/16 TO SUBSECTION 44(1) OF THE LAND TITLES ACT, EXCEPT PARAGRAPHS 3 AND 14 THEREOF AND PROVINCIAL SUCCESSION DUTIES.
16911	0169	SUBJECT ON THE DATE OF REGISTRATION 97/06/16 TO SUBSECTION 44(1) OF THE LAND TITLES ACT, EXCEPT PARAGRAPHS 3 AND 14 THEREOF AND PROVINCIAL SUCCESSION DUTIES.
16911	0170	SUBJECT ON THE DATE OF REGISTRATION 97/06/16 TO SUBSECTION 44(1) OF THE LAND TITLES ACT, EXCEPT PARAGRAPHS 3 AND 14 THEREOF AND PROVINCIAL SUCCESSION DUTIES.
16911	0171	SUBJECT ON THE DATE OF REGISTRATION 97/06/16 TO SUBSECTION 44(1) OF THE LAND TITLES ACT, EXCEPT PARAGRAPHS 3 AND 14 THEREOF AND PROVINCIAL SUCCESSION DUTIES.
16911	0172	SUBJECT ON THE DATE OF REGISTRATION 97/06/16 TO SUBSECTION 44(1) OF THE LAND TITLES ACT, EXCEPT PARAGRAPHS 3 AND 14 THEREOF AND PROVINCIAL SUCCESSION DUTIES.
16911	0173	SUBJECT ON THE DATE OF REGISTRATION 97/06/16 TO SUBSECTION 44(1) OF THE LAND TITLES ACT, EXCEPT PARAGRAPH 3 AND 14 THEREOF AND PROVINCIAL SUCCESSION DUTIES.
16911	0174	SUBJECT ON THE DATE OF REGISTRATION 97/06/14 TO SUBSECTION 44(1) OF THE LAND TITLES ACT, EXCEPT PARAGRAPH 3 AND 14 THEREOF AND PROVINCIAL SUCCCESSION DUTIES.
16911	0193	SUBJECT TO SUBSECTION 44(1) OF THE LAND TITLES ACT, EXCEPT PARAGRAPHS 3 AND 14 AND PROVINCIAL SUCCESSION DUTIES AND EXCEPT PARAGRAPH 11 AND ESCHEATS OR FORFEITURE TO THE CROWN UP TO THE DATE OF REGISTRATION WITH AN ABSOLUTE TITLE.
16911	0194	SUBJECT TO SUBSECTION 44(1) OF THE LAND TITLES ACT, EXCEPT PARAGRAPHS 3 AND 14 AND PROVINCIAL SUCCESSION DUTIES AND EXCEPT PARAGRAPH 11 AND ESCHEATS OR FORFEITURE TO THE CROWN UP TO THE DATE OF REGISTRATION WITH AN ABSOLUTE TITLE.
16911	0195	SUBJECT TO SUBSECTION 44(1) OF THE LAND TITLES ACT, EXCEPT PARAGRAPHS 3 AND 14 AND PROVINCIAL SUCCESSION DUTIES AND EXCEPT PARAGRAPH 11 AND ESCHEATS OR FORFEITURE TO THE CROWN UP TO THE DATE OF REGISTRATION WITH AN ABSOLUTE TITLE.
16911	0196	SUBJECT TO SUBSECTION 44(1) OF THE LAND TITLES ACT, EXCEPT PARAGRAPHS 3 AND 14 AND PROVINCIAL SUCCESSION DUTIES AND EXCEPT PARAGRAPH 11 AND ESCHEATS OR FORFEITURE TO THE CROWN UP TO THE DATE OF REGISTRATION WITH AN ABSOLUTE TITLE.
16911	0197	SUBJECT TO SUBSECTION 44(1) OF THE LAND TITLES ACT, EXCEPT PARAGRAPHS 3 AND 14 AND PROVINCIAL SUCCESSION DUTIES AND EXCEPT PARAGRAPH 11 AND ESCHEATS OR FORFEITURE TO THE CROWN UP TO THE DATE OF REGISTRATION WITH AN ABSOLUTE TITLE.
16911	0198	SUBJECT TO SUBSECTION 44(1) OF THE LAND TITLES ACT, EXCEPT PARAGRAPHS 3 AND 14 AND PROVINCIAL SUCCESSION DUTIES AND EXCEPT PARAGRAPH 11 AND ESCHEATS OR FORFEITURE TO THE CROWN UP TO THE DATE OF REGISTRATION WITH AN ABSOLUTE TITLE.
16911	0199	SUBJECT TO SUBSECTION 44(1) OF THE LAND TITLES ACT, EXCEPT PARAGRAPHS 3 AND 14 AND PROVINCIAL SUCCESSION DUTIES AND EXCEPT PARAGRAPH 11 AND ESCHEATS OR FORFEITURE TO THE CROWN UP TO THE DATE OF REGISTRATION WITH AN ABSOLUTE TITLE.
16911	0200	SUBJECT TO SUBSECTION 44(1) OF THE LAND TITLES ACT, EXCEPT PARAGRAPHS 3 AND 14 AND PROVINCIAL SUCCESSION DUTIES AND EXCEPT PARAGRAPH 11 AND ESCHEATS OR FORFEITURE TO THE CROWN UP TO THE DATE OF REGISTRATION WITH AN ABSOLUTE TITLE.
16911	0201	SUBJECT TO SUBSECTION 44(1) OF THE LAND TITLES ACT, EXCEPT PARAGRAPHS 3 AND 14 AND PROVINCIAL SUCCESSION DUTIES AND EXCEPT PARAGRAPH 11 AND ESCHEATS OR FORFEITURE TO THE CROWN UP TO THE DATE OF REGISTRATION WITH AN ABSOLUTE TITLE.
16911	0202	SUBJECT TO SUBSECTION 44(1) OF THE LAND TITLES ACT, EXCEPT PARAGRAPHS 3 AND 14 AND PROVINCIAL SUCCESSION DUTIES AND EXCEPT PARAGRAPH 11 AND ESCHEATS OR FORFEITURE TO THE CROWN UP TO THE DATE OF REGISTRATION WITH AN ABSOLUTE TITLE.
16911	0203	SUBJECT TO SUBSECTION 44(1) OF THE LAND TITLES ACT, EXCEPT PARAGRAPHS 3 AND 14 AND PROVINCIAL SUCCESSION DUTIES AND EXCEPT PARAGRAPH 11 AND ESCHEATS OR FORFEITURE TO THE CROWN UP TO THE DATE OF REGISTRATION WITH AN ABSOLUTE TITLE.
16911	0204	SUBJECT TO SUBSECTION 44(1) OF THE LAND TITLES ACT, EXCEPT PARAGRAPHS 3 AND 14 AND PROVINCIAL SUCCESSION DUTIES AND EXCEPT PARAGRAPH 11 AND ESCHEATS OR FORFEITURE TO THE CROWN UP TO THE DATE OF REGISTRATION WITH AN ABSOLUTE TITLE.
16911	0206	SUBJECT TO SUBSECTION 44(1) OF THE LAND TITLES ACT, EXCEPT PARAGRAPHS 3 AND 14 AND PROVINCIAL SUCCESSION DUTIES AND EXCEPT PARAGRAPH 11 AND ESCHEATS OR FORFEITURE TO THE CROWN UP TO THE DATE OF REGISTRATION WITH AN ABSOLUTE TITLE.
16911	0213	PLANNING ACT CONSENT ON WE179406.
16911	0215	PLANNING ACT CONSENT ON WE179406.
16911	0229	SUBJECT TO SUBSECTION 44(1) OF THE LAND TITLES ACT, EXCEPT PARAGRAPH 11, PARAGRAPH 14, PROVINCIAL SUCCESSION DUTIES AND ESCHEATS OR FORFEITURE TO THE CROWN UP TO THE DATE OF CONVERSION AND EXCEPT PARAGRAPHS 3 & 14 THEREAFTER.
16911	0230	SUBJECT TO SUBSECTION 44(1) OF THE LAND TITLES ACT, EXCEPT PARAGRAPH 11, PARAGRAPH 14, PROVINCIAL SUCCESSION DUTIES AND ESCHEATS OR FORFEITURE TO THE CROWN UP TO THE DATE OF CONVERSION AND EXCEPT PARAGRAPHS 3 & 14 THEREAFTER.
16911	0231	SUBJECT TO SUBSECTION 44(1) OF THE LAND TITLES ACT, EXCEPT PARAGRAPH 11, PARAGRAPH 14, PROVINCIAL SUCCESSION DUTIES AND ESCHEATS OR FORFEITURE TO THE CROWN UP TO THE DATE OF CONVERSION AND EXCEPT PARAGRAPHS 3 & 14 THEREAFTER.
16911	0232	SUBJECT TO SUBSECTION 44(1) OF THE LAND TITLES ACT, EXCEPT PARAGRAPH 11, PARAGRAPH 14, PROVINCIAL SUCCESSION DUTIES AND ESCHEATS OR FORFEITURE TO THE CROWN UP TO THE DATE OF CONVERSION AND EXCEPT PARAGRAPHS 3 & 14 THEREAFTER.
16911	0233	SUBJECT TO SUBSECTION 44(1) OF THE LAND TITLES ACT, EXCEPT PARAGRAPH 11, PARAGRAPH 14, PROVINCIAL SUCCESSION DUTIES AND ESCHEATS OR FORFEITURE TO THE CROWN UP TO THE DATE OF CONVERSION AND EXCEPT PARAGRAPHS 3 & 14 THEREAFTER.
16911	0234	SUBJECT TO SUBSECTION 44(1) OF THE LAND TITLES ACT, EXCEPT PARAGRAPH 11, PARAGRAPH 14, PROVINCIAL SUCCESSION DUTIES AND ESCHEATS OR FORFEITURE TO THE CROWN UP TO THE DATE OF CONVERSION AND EXCEPT PARAGRAPHS 3 & 14 THEREAFTER.
16911	0235	SUBJECT TO SUBSECTION 44(1) OF THE LAND TITLES ACT, EXCEPT PARAGRAPH 11, PARAGRAPH 14, PROVINCIAL SUCCESSION DUTIES AND ESCHEATS OR FORFEITURE TO THE CROWN UP TO THE DATE OF CONVERSION AND EXCEPT PARAGRAPHS 3 & 14 THEREAFTER.
16911	0236	SUBJECT TO SUBSECTION 44(1) OF THE LAND TITLES ACT, EXCEPT PARAGRAPH 11, PARAGRAPH 14, PROVINCIAL SUCCESSION DUTIES AND ESCHEATS OR FORFEITURE TO THE CROWN UP TO THE DATE OF CONVERSION AND EXCEPT PARAGRAPHS 3 & 14 THEREAFTER.
16911	0237	SUBJECT TO SUBSECTION 44(1) OF THE LAND TITLES ACT, EXCEPT PARAGRAPH 11, PARAGRAPH 14, PROVINCIAL SUCCESSION DUTIES AND ESCHEATS OR FORFEITURE TO THE CROWN UP TO THE DATE OF CONVERSION AND EXCEPT PARAGRAPHS 3 & 14 THEREAFTER.
16911	0238	SUBJECT TO SUBSECTION 44(1) OF THE LAND TITLES ACT, EXCEPT PARAGRAPH 11, PARAGRAPH 14, PROVINCIAL SUCCESSION DUTIES AND ESCHEATS OR FORFEITURE TO THE CROWN UP TO THE DATE OF CONVERSION AND EXCEPT PARAGRAPHS 3 & 14 THEREAFTER.
16911	0239	SUBJECT TO SUBSECTION 44(1) OF THE LAND TITLES ACT, EXCEPT PARAGRAPH 11, PARAGRAPH 14, PROVINCIAL SUCCESSION DUTIES AND ESCHEATS OR FORFEITURE TO THE CROWN UP TO THE DATE OF CONVERSION AND EXCEPT PARAGRAPHS 3 & 14 THEREAFTER.
16911	0240	SUBJECT TO SUBSECTION 44(1) OF THE LAND TITLES ACT, EXCEPT PARAGRAPH 11, PARAGRAPH 14, PROVINCIAL SUCCESSION DUTIES AND ESCHEATS OR FORFEITURE TO THE CROWN UP TO THE DATE OF CONVERSION AND EXCEPT PARAGRAPHS 3 & 14 THEREAFTER.
16911	0241	SUBJECT TO SUBSECTION 44(1) OF THE LAND TITLES ACT, EXCEPT PARAGRAPH 11, PARAGRAPH 14, PROVINCIAL SUCCESSION DUTIES AND ESCHEATS OR FORFEITURE TO THE CROWN UP TO THE DATE OF CONVERSION AND EXCEPT PARAGRAPHS 3 & 14 THEREAFTER.
16911	0242	SUBJECT TO SUBSECTION 44(1) OF THE LAND TITLES ACT, EXCEPT PARAGRAPH 11, PARAGRAPH 14, PROVINCIAL SUCCESSION DUTIES AND ESCHEATS OR FORFEITURE TO THE CROWN UP TO THE DATE OF CONVERSION AND EXCEPT PARAGRAPHS 3 & 14 THEREAFTER.
16911	0243	SUBJECT TO SUBSECTION 44(1) OF THE LAND TITLES ACT, EXCEPT PARAGRAPH 11, PARAGRAPH 14, PROVINCIAL SUCCESSION DUTIES AND ESCHEATS OR FORFEITURE TO THE CROWN UP TO THE DATE OF CONVERSION AND EXCEPT PARAGRAPHS 3 & 14 THEREAFTER.
16911	0244	SUBJECT TO SUBSECTION 44(1) OF THE LAND TITLES ACT, EXCEPT PARAGRAPH 11, PARAGRAPH 14, PROVINCIAL SUCCESSION DUTIES AND ESCHEATS OR FORFEITURE TO THE CROWN UP TO THE DATE OF CONVERSION AND EXCEPT PARAGRAPHS 3 & 14 THEREAFTER.
16911	0245	SUBJECT TO SUBSECTION 44(1) OF THE LAND TITLES ACT, EXCEPT PARAGRAPH 11, PARAGRAPH 14, PROVINCIAL SUCCESSION DUTIES AND ESCHEATS OR FORFEITURE TO THE CROWN UP TO THE DATE OF CONVERSION AND EXCEPT PARAGRAPHS 3 & 14 THEREAFTER.
16911	0246	SUBJECT TO SUBSECTION 44(1) OF THE LAND TITLES ACT, EXCEPT PARAGRAPH 11, PARAGRAPH 14, PROVINCIAL SUCCESSION DUTIES AND ESCHEATS OR FORFEITURE TO THE CROWN UP TO THE DATE OF CONVERSION AND EXCEPT PARAGRAPHS 3 & 14 THEREAFTER.
16911	0247	SUBJECT TO SUBSECTION 44(1) OF THE LAND TITLES ACT, EXCEPT PARAGRAPH 11, PARAGRAPH 14, PROVINCIAL SUCCESSION DUTIES AND ESCHEATS OR FORFEITURE TO THE CROWN UP TO THE DATE OF CONVERSION AND EXCEPT PARAGRAPHS 3 & 14 THEREAFTER.
16911	0248	SUBJECT TO SUBSECTION 44(1) OF THE LAND TITLES ACT, EXCEPT PARAGRAPH 11, PARAGRAPH 14, PROVINCIAL SUCCESSION DUTIES AND ESCHEATS OR FORFEITURE TO THE CROWN UP TO THE DATE OF CONVERSION AND EXCEPT PARAGRAPHS 3 & 14 THEREAFTER.
16911	0249	SUBJECT TO SUBSECTION 44(1) OF THE LAND TITLES ACT, EXCEPT PARAGRAPH 11, PARAGRAPH 14, PROVINCIAL SUCCESSION DUTIES AND ESCHEATS OR FORFEITURE TO THE CROWN UP TO THE DATE OF CONVERSION AND EXCEPT PARAGRAPHS 3 & 14 THEREAFTER.
16911	0250	SUBJECT TO SUBSECTION 44(1) OF THE LAND TITLES ACT, EXCEPT PARAGRAPH 11, PARAGRAPH 14, PROVINCIAL SUCCESSION DUTIES AND ESCHEATS OR FORFEITURE TO THE CROWN UP TO THE DATE OF CONVERSION AND EXCEPT PARAGRAPHS 3 & 14 THEREAFTER.
16911	0251	SUBJECT TO SUBSECTION 44(1) OF THE LAND TITLES ACT, EXCEPT PARAGRAPH 11, PARAGRAPH 14, PROVINCIAL SUCCESSION DUTIES AND ESCHEATS OR FORFEITURE TO THE CROWN UP TO THE DATE OF CONVERSION AND EXCEPT PARAGRAPHS 3 & 14 THEREAFTER.
16911	0252	SUBJECT TO SUBSECTION 44(1) OF THE LAND TITLES ACT, EXCEPT PARAGRAPH 11, PARAGRAPH 14, PROVINCIAL SUCCESSION DUTIES AND ESCHEATS OR FORFEITURE TO THE CROWN UP TO THE DATE OF CONVERSION AND EXCEPT PARAGRAPHS 3 & 14 THEREAFTER.
16911	0253	SUBJECT TO SUBSECTION 44(1) OF THE LAND TITLES ACT, EXCEPT PARAGRAPH 11, PARAGRAPH 14, PROVINCIAL SUCCESSION DUTIES AND ESCHEATS OR FORFEITURE TO THE CROWN UP TO THE DATE OF CONVERSION AND EXCEPT PARAGRAPHS 3 & 14 THEREAFTER.
16911	0254	SUBJECT TO SUBSECTION 44(1) OF THE LAND TITLES ACT, EXCEPT PARAGRAPH 11, PARAGRAPH 14, PROVINCIAL SUCCESSION DUTIES AND ESCHEATS OR FORFEITURE TO THE CROWN UP TO THE DATE OF CONVERSION AND EXCEPT PARAGRAPHS 3 & 14 THEREAFTER.
16911	0255	SUBJECT TO SUBSECTION 44(1) OF THE LAND TITLES ACT, EXCEPT PARAGRAPH 11, PARAGRAPH 14, PROVINCIAL SUCCESSION DUTIES AND ESCHEATS OR FORFEITURE TO THE CROWN UP TO THE DATE OF CONVERSION AND EXCEPT PARAGRAPHS 3 & 14 THEREAFTER.
16911	0256	SUBJECT TO SUBSECTION 44(1) OF THE LAND TITLES ACT, EXCEPT PARAGRAPH 11, PARAGRAPH 14, PROVINCIAL SUCCESSION DUTIES AND ESCHEATS OR FORFEITURE TO THE CROWN UP TO THE DATE OF CONVERSION AND EXCEPT PARAGRAPHS 3 & 14 THEREAFTER.
16911	0257	SUBJECT TO SUBSECTION 44(1) OF THE LAND TITLES ACT, EXCEPT PARAGRAPH 11, PARAGRAPH 14, PROVINCIAL SUCCESSION DUTIES AND ESCHEATS OR FORFEITURE TO THE CROWN UP TO THE DATE OF CONVERSION AND EXCEPT PARAGRAPHS 3 & 14 THEREAFTER.
16911	0258	SUBJECT TO SUBSECTION 44(1) OF THE LAND TITLES ACT, EXCEPT PARAGRAPH 11, PARAGRAPH 14, PROVINCIAL SUCCESSION DUTIES AND ESCHEATS OR FORFEITURE TO THE CROWN UP TO THE DATE OF CONVERSION AND EXCEPT PARAGRAPHS 3 & 14 THEREAFTER.
16911	0259	SUBJECT TO SUBSECTION 44(1) OF THE LAND TITLES ACT, EXCEPT PARAGRAPH 11, PARAGRAPH 14, PROVINCIAL SUCCESSION DUTIES AND ESCHEATS OR FORFEITURE TO THE CROWN UP TO THE DATE OF CONVERSION AND EXCEPT PARAGRAPHS 3 & 14 THEREAFTER.
16911	0260	SUBJECT TO SUBSECTION 44(1) OF THE LAND TITLES ACT, EXCEPT PARAGRAPH 11, PARAGRAPH 14, PROVINCIAL SUCCESSION DUTIES AND ESCHEATS OR FORFEITURE TO THE CROWN UP TO THE DATE OF CONVERSION AND EXCEPT PARAGRAPHS 3 & 14 THEREAFTER.
16911	0261	SUBJECT TO SUBSECTION 44(1) OF THE LAND TITLES ACT, EXCEPT PARAGRAPH 11, PARAGRAPH 14, PROVINCIAL SUCCESSION DUTIES AND ESCHEATS OR FORE FEITURE TO THE CROWN UP TO THE DATE OF CONVERSION AND EXCEPT PARAGRAPHS 3 & 14 THEREAFTER.
16911	0262	SUBJECT TO SUBSECTION 44(1) OF THE LAND TITLES ACT, EXCEPT PARAGRAPH 11, PARAGRAPH 14, PROVINCIAL DUTIES AND ESCHEATS OR FORFEITURE TO THE CROWN UP TO THE DATE OF CONVERSION AND EXCEPT PARAGRAPHS 3 & 14 THEREAFTER.
16911	0263	SUBJECT TO SUBSECTION 44(1) OF THE LAND TITLES ACT, EXCEPT PARAGRAPH 11, PARAGRAPH 14, PROVINCIAL SUCCESSION DUTIES AND ESCHEATS OR FOREFIETURE TO THE CROWN UP TO THE DATE OF CONVERSION AND EXCEPT PARAGRAPHS 3 & 14 THEREAFTER.
16911	0268	PLANNING ACT CONSENT AS IN WE272599.
16911	0271	PLANNING ACT CONSENT IN WE266222.
16911	0275	COMMITTEE OF ADJUSTMENT CONSENT IN WE305470.
16911	0277	COMMITTEE OF ADJUSTMENT CONSENT IN WE305471.
16911	0279	COMMITTEE OF ADJUSTMENT CONSENT IN WE305471.
16911	0282	COMMITTEE OF ADJUSTMENT CONSENT IN WE308000.
16911	0284	COMMITTEE OF ADJUSTMENT CONSENT IN WE308082.
16911	0285	COMMITTEE OF ADJUSTMENT CONSENT IN WE308083.
16911	0286	THE FOLLOWING REMARK HAS BEEN ADDED ON 2005/08/18 AT 09:47 BY CHRISTINE HOARAN : "FOR ADDITIONAL ENCUMBRANCES THE PIN FOR WENTWORTH COMMON ELEMENTS CONDOMINIUM PLAN NO. 390 IN BLOCK 18390 MUST BE EXAMINED.".
16911	0287	THE FOLLOWING REMARK HAS BEEN ADDED ON 2005/08/18 AT 09:48 BY CHRISTINE HOARAN : "FOR ADDITIONAL ENCUMBRANCES THE PIN FOR WENTWORTH COMMON ELEMENTS CONDOMINIUM PLAN NO. 390 IN BLOCK 18390 MUST BE EXAMINED.".
16911	0288	THE FOLLOWING REMARK HAS BEEN ADDED ON 2005/08/18 AT 09:49 BY CHRISTINE HOARAN : "FOR ADDITIONAL ENCUMBRANCES THE PIN FOR WENTWORTH COMMON ELEMENTS CONDOMINIUM PLAN NO. 390 IN BLOCK 18390 MUST BE EXAMINED.".
16911	0289	THE FOLLOWING REMARK HAS BEEN ADDED ON 2005/08/18 AT 09:49 BY CHRISTINE HOARAN : "FOR ADDITIONAL ENCUMBRANCES THE PIN FOR WENTWORTH COMMON ELEMENTS CONDOMINIUM PLAN NO. 390 IN BLOCK 18390 MUST BE EXAMINED.".
16911	0290	THE FOLLOWING REMARK HAS BEEN ADDED ON 2005/08/18 AT 09:50 BY CHRISTINE HOARAN : "FOR ADDITIONAL ENCUMBRANCES THE PIN FOR WENTWORTH COMMON ELEMENTS CONDOMINIUM PLAN NO. 390 IN BLOCK 18390 MUST BE EXAMINED.".
16911	0291	THE FOLLOWING REMARK HAS BEEN ADDED ON 2005/08/18 AT 09:50 BY CHRISTINE HOARAN : "FOR ADDITIONAL ENCUMBRANCES THE PIN FOR WENTWORTH COMMON ELEMENTS CONDOMINIUM PLAN NO. 390 IN BLOCK 18390 MUST BE EXAMINED.".
16911	0292	THE FOLLOWING REMARK HAS BEEN ADDED ON 2005/08/18 AT 09:51 BY CHRISTINE HOARAN : "FOR ADDITIONAL ENCUMBRANCES THE PIN FOR WENTWORTH COMMON ELEMENTS CONDOMINIUM PLAN NO. 390 IN BLOCK 18390 MUST BE EXAMINED.".
16911	0293	THE FOLLOWING REMARK HAS BEEN ADDED ON 2005/08/18 AT 09:53 BY CHRISTINE HOARAN : "FOR ADDITIONAL ENCUMBRANCES THE PIN FOR WENTWORTH COMMON ELEMENTS CONDOMINIUM PLAN NO. 390 IN BLOCK 18390 MUST BE EXAMINED.".
16911	0294	THE FOLLOWING REMARK HAS BEEN ADDED ON 2005/08/18 AT 09:53 BY CHRISTINE HOARAN : "FOR ADDITIONAL ENCUMBRANCES THE PIN FOR WENTWORTH COMMON ELEMENTS CONDOMINIUM PLAN NO. 390 IN BLOCK 18390 MUST BE EXAMINED.".
16911	0295	THE FOLLOWING REMARK HAS BEEN ADDED ON 2005/08/18 AT 09:54 BY CHRISTINE HOARAN : "FOR ADDITIONAL ENCUMBRANCES THE PIN FOR WENTWORTH COMMON ELEMENTS CONDOMINIUM PLAN NO. 390 IN BLOCK 18390 MUST BE EXAMINED.".
16911	0296	THE FOLLOWING REMARK HAS BEEN ADDED ON 2005/08/18 AT 09:55 BY CHRISTINE HOARAN : "FOR ADDITIONAL ENCUMBRANCES THE PIN FOR WENTWORTH COMMON ELEMENTS CONDOMINIUM PLAN NO. 390 IN BLOCK 18390 MUST BE EXAMINED.".
16911	0297	THE FOLLOWING REMARK HAS BEEN ADDED ON 2005/08/18 AT 09:59 BY CHRISTINE HOARAN : "FOR ADDITIONAL ENCUMBRANCES THE PIN FOR WENTWORTH COMMON ELEMENTS CONDOMINIUM PLAN NO. 390 IN BLOCK 18390 MUST BE EXAMINED.".
16911	0298	THE FOLLOWING REMARK HAS BEEN ADDED ON 2005/08/18 AT 10:00 BY CHRISTINE HOARAN : "FOR ADDITIONAL ENCUMBRANCES THE PIN FOR WENTWORTH COMMON ELEMENTS CONDOMINIUM PLAN NO. 390 IN BLOCK 18390 MUST BE EXAMINED.".
16911	0299	THE FOLLOWING REMARK HAS BEEN ADDED ON 2005/08/18 AT 10:01 BY CHRISTINE HOARAN : "FOR ADDITIONAL ENCUMBRANCES THE PIN FOR WENTWORTH COMMON ELEMENTS CONDOMINIUM PLAN NO. 390 IN BLOCK 18390 MUST BE EXAMINED.".
16911	0300	THE FOLLOWING REMARK HAS BEEN ADDED ON 2005/08/18 AT 10:01 BY CHRISTINE HOARAN : "FOR ADDITIONAL ENCUMBRANCES THE PIN FOR WENTWORTH COMMON ELEMENTS CONDOMINIUM PLAN NO. 390 IN BLOCK 18390 MUST BE EXAMINED.".
16911	0301	THE FOLLOWING REMARK HAS BEEN ADDED ON 2005/08/18 AT 10:01 BY CHRISTINE HOARAN : "FOR ADDITIONAL ENCUMBRANCES THE PIN FOR WENTWORTH COMMON ELEMENTS CONDOMINIUM PLAN NO. 390 IN BLOCK 18390 MUST BE EXAMINED.".
16911	0302	THE FOLLOWING REMARK HAS BEEN ADDED ON 2005/08/18 AT 10:02 BY CHRISTINE HOARAN : "FOR ADDITIONAL ENCUMBRANCES THE PIN FOR WENTWORTH COMMON ELEMENTS CONDOMINIUM PLAN NO. 390 IN BLOCK 18390 MUST BE EXAMINED.".
16911	0303	THE FOLLOWING REMARK HAS BEEN ADDED ON 2005/08/18 AT 10:02 BY CHRISTINE HOARAN : "FOR ADDITIONAL ENCUMBRANCES THE PIN FOR WENTWORTH COMMON ELEMENTS CONDOMINIUM PLAN NO. 390 IN BLOCK 18390 MUST BE EXAMINED.".
16911	0304	THE FOLLOWING REMARK HAS BEEN ADDED ON 2005/08/18 AT 10:02 BY CHRISTINE HOARAN : "FOR ADDITIONAL ENCUMBRANCES THE PIN FOR WENTWORTH COMMON ELEMENTS CONDOMINIUM PLAN NO. 390 IN BLOCK 18390 MUST BE EXAMINED.".
16911	0305	THE FOLLOWING REMARK HAS BEEN ADDED ON 2005/08/18 AT 10:03 BY CHRISTINE HOARAN : "FOR ADDITIONAL ENCUMBRANCES THE PIN FOR WENTWORTH COMMON ELEMENTS CONDOMINIUM PLAN NO. 390 IN BLOCK 18390 MUST BE EXAMINED.".
16911	0306	THE FOLLOWING REMARK HAS BEEN ADDED ON 2005/08/18 AT 10:03 BY CHRISTINE HOARAN : "FOR ADDITIONAL ENCUMBRANCES THE PIN FOR WENTWORTH COMMON ELEMENTS CONDOMINIUM PLAN NO. 390 IN BLOCK 18390 MUST BE EXAMINED.".
16911	0307	THE FOLLOWING REMARK HAS BEEN ADDED ON 2005/08/18 AT 10:04 BY CHRISTINE HOARAN : "FOR ADDITIONAL ENCUMBRANCES THE PIN FOR WENTWORTH COMMON ELEMENTS CONDOMINIUM PLAN NO. 390 IN BLOCK 18390 MUST BE EXAMINED.".
16911	0308	THE FOLLOWING REMARK HAS BEEN ADDED ON 2005/08/18 AT 10:05 BY CHRISTINE HOARAN : "FOR ADDITIONAL ENCUMBRANCES THE PIN FOR WENTWORTH COMMON ELEMENTS CONDOMINIUM PLAN NO. 390 IN BLOCK 18390 MUST BE EXAMINED.".
16911	0309	THE FOLLOWING REMARK HAS BEEN ADDED ON 2005/08/18 AT 10:05 BY CHRISTINE HOARAN : "FOR ADDITIONAL ENCUMBRANCES THE PIN FOR WENTWORTH COMMON ELEMENTS CONDOMINIUM PLAN NO. 390 IN BLOCK 18390 MUST BE EXAMINED.".
16911	0310	THE FOLLOWING REMARK HAS BEEN ADDED ON 2005/08/18 AT 10:05 BY CHRISTINE HOARAN : "FOR ADDITIONAL ENCUMBRANCES THE PIN FOR WENTWORTH COMMON ELEMENTS CONDOMINIUM PLAN NO. 390 IN BLOCK 18390 MUST BE EXAMINED.".
16911	0311	THE FOLLOWING REMARK HAS BEEN ADDED ON 2005/08/18 AT 10:06 BY CHRISTINE HOARAN : "FOR ADDITIONAL ENCUMBRANCES THE PIN FOR WENTWORTH COMMON ELEMENTS CONDOMINIUM PLAN NO. 390 IN BLOCK 18390 MUST BE EXAMINED.".
16911	0312	THE FOLLOWING REMARK HAS BEEN ADDED ON 2005/08/18 AT 10:06 BY CHRISTINE HOARAN : "FOR ADDITIONAL ENCUMBRANCES THE PIN FOR WENTWORTH COMMON ELEMENTS CONDOMINIUM PLAN NO. 390 IN BLOCK 18390 MUST BE EXAMINED.".
16911	0313	THE FOLLOWING REMARK HAS BEEN ADDED ON 2005/08/18 AT 10:06 BY CHRISTINE HOARAN : "FOR ADDITIONAL ENCUMBRANCES THE PIN FOR WENTWORTH COMMON ELEMENTS CONDOMINIUM PLAN NO. 390 IN BLOCK 18390 MUST BE EXAMINED.".
16911	0314	THE FOLLOWING REMARK HAS BEEN ADDED ON 2005/08/18 AT 10:07 BY CHRISTINE HOARAN : "FOR ADDITIONAL ENCUMBRANCES THE PIN FOR WENTWORTH COMMON ELEMENTS CONDOMINIUM PLAN NO. 390 IN BLOCK 18390 MUST BE EXAMINED.".
16911	0315	THE FOLLOWING REMARK HAS BEEN ADDED ON 2005/08/18 AT 10:07 BY CHRISTINE HOARAN : "FOR ADDITIONAL ENCUMBRANCES THE PIN FOR WENTWORTH COMMON ELEMENTS CONDOMINIUM PLAN NO. 390 IN BLOCK 18390 MUST BE EXAMINED.".
16911	0316	THE FOLLOWING REMARK HAS BEEN ADDED ON 2005/08/18 AT 10:07 BY CHRISTINE HOARAN : "FOR ADDITIONAL ENCUMBRANCES THE PIN FOR WENTWORTH COMMON ELEMENTS CONDOMINIUM PLAN NO. 390 IN BLOCK 18390 MUST BE EXAMINED.".
16911	0317	THE FOLLOWING REMARK HAS BEEN ADDED ON 2005/08/18 AT 10:08 BY CHRISTINE HOARAN : "FOR ADDITIONAL ENCUMBRANCES THE PIN FOR WENTWORTH COMMON ELEMENTS CONDOMINIUM PLAN NO. 390 IN BLOCK 18390 MUST BE EXAMINED.".
16911	0318	THE FOLLOWING REMARK HAS BEEN ADDED ON 2005/08/18 AT 10:08 BY CHRISTINE HOARAN : "FOR ADDITIONAL ENCUMBRANCES THE PIN FOR WENTWORTH COMMON ELEMENTS CONDOMINIUM PLAN NO. 390 IN BLOCK 18390 MUST BE EXAMINED.".
16911	0319	THE FOLLOWING REMARK HAS BEEN ADDED ON 2005/08/18 AT 10:09 BY CHRISTINE HOARAN : "FOR ADDITIONAL ENCUMBRANCES THE PIN FOR WENTWORTH COMMON ELEMENTS CONDOMINIUM PLAN NO. 390 IN BLOCK 18390 MUST BE EXAMINED.".
16911	0320	THE FOLLOWING REMARK HAS BEEN ADDED ON 2005/08/18 AT 10:10 BY CHRISTINE HOARAN : "FOR ADDITIONAL ENCUMBRANCES THE PIN FOR WENTWORTH COMMON ELEMENTS CONDOMINIUM PLAN NO. 390 IN BLOCK 18390 MUST BE EXAMINED.".
16911	0321	THE FOLLOWING REMARK HAS BEEN ADDED ON 2005/08/18 AT 10:11 BY CHRISTINE HOARAN : "FOR ADDITIONAL ENCUMBRANCES THE PIN FOR WENTWORTH COMMON ELEMENTS CONDOMINIUM PLAN NO. 390 IN BLOCK 18390 MUST BE EXAMINED.".
16911	0322	THE FOLLOWING REMARK HAS BEEN ADDED ON 2005/08/18 AT 10:11 BY CHRISTINE HOARAN : "FOR ADDITIONAL ENCUMBRANCES THE PIN FOR WENTWORTH COMMON ELEMENTS CONDOMINIUM PLAN NO. 390 IN BLOCK 18390 MUST BE EXAMINED.".
16911	0323	THE FOLLOWING REMARK HAS BEEN ADDED ON 2005/08/18 AT 10:12 BY CHRISTINE HOARAN : "FOR ADDITIONAL ENCUMBRANCES THE PIN FOR WENTWORTH COMMON ELEMENTS CONDOMINIUM PLAN NO. 390 IN BLOCK 18390 MUST BE EXAMINED.".
16911	0324	THE FOLLOWING REMARK HAS BEEN ADDED ON 2005/08/18 AT 10:13 BY CHRISTINE HOARAN : "FOR ADDITIONAL ENCUMBRANCES THE PIN FOR WENTWORTH COMMON ELEMENTS CONDOMINIUM PLAN NO. 390 IN BLOCK 18390 MUST BE EXAMINED.".
16912	0052	CONSENT UNDER THE PLANNING ACT HAS BEEN OBTAINED IN INSTRUMENT # WE165663. CORRECTION: INSTRUMENT NUMBER VM132395 WAS ENTERED IN ERROR AGAINST THIS PROPERTY AND WAS REMOVED AND CERTIFIED ON 2005/03/03 BY CRISSY DELDUCA.
16913	0020	CORRECTION: INSTRUMENT NUMBER VM207004 WAS OMITTED FROM THIS PROPERTY IN ERROR AND WAS ADDED AND CERTIFIED ON 1995/08/08 BY DORRIE MORLEY.
16913	0043	CORRECTION: INSTRUMENT NUMBER VM181102 WAS OMITTED FROM THIS PROPERTY IN ERROR AND WAS ADDED AND CERTIFIED ON 1996/09/12 BY BELLE FIAMELLI. CORRECTION: INSTRUMENT NUMBER VM181103 WAS OMITTED FROM THIS PROPERTY IN ERROR AND WAS ADDED AND CERTIFIED ON 1996/
16913	0078	CORRECTION: INSTRUMENT NUMBER LT427602 WAS OMITTED FROM THIS PROPERTY IN ERROR AND WAS ADDED AND CERTIFIED ON 1997/02/18 BY ERIC CANNON.
16913	0131	LT247715 CONSENT OF LAND DIVISION COMMITTEE.
16913	0132	LT247715 CONSENT OF LAND DIVISION COMMITTEE.
16913	0133	LT247715 CONSENT OF LAND DIVISION COMMITTEE.
16913	0343	CORRECTION: INSTRUMENT NUMBER LT389119 WAS OMITTED FROM THIS PROPERTY IN ERROR AND WAS ADDED AND CERTIFIED ON 1995/10/11 BY DORRIE MORLEY.
16913	0353	CORRECTION: INSTRUMENT NUMBER BR38181 WAS OMITTED FROM THIS PROPERTY IN ERROR AND WAS ADDED AND CERTIFIED ON 1995/09/01 BY ERIC CANNON. CORRECTION: INSTRUMENT NUMBER HL167546 WAS OMITTED FROM THIS PROPERTY IN ERROR AND WAS ADDED AND CERTIFIED ON 1995/09/0
16913	0361	CORRECTION: INSTRUMENT NUMBER LT391162 WAS OMITTED FROM THIS PROPERTY IN ERROR AND WAS ADDED AND CERTIFIED ON 1996/04/10 BY DORRIE MORLEY. CORRECTION: INSTRUMENT NUMBER LT391163 WAS ENTERED IN ERROR AGAINST THIS PROPERTY AND WAS REMOVED AND CERTIFIED ON 1
16913	0362	ON 1996/06/17 AT 15:53 THE ESTATE/QUALIFIER WERE CHANGED TO FEE SIMPLE LT CONVERSION QUALIFIED FROM FEE SIMPLE QUALIFIED BY BELLE FIAMELLI .
16913	0363	ON 1996/06/17 AT 15:53 THE ESTATE/QUALIFIER WERE CHANGED TO FEE SIMPLE LT CONVERSION QUALIFIED FROM FEE SIMPLE QUALIFIED BY BELLE FIAMELLI .
16913	0366	CORRECTION: INSTRUMENT NUMBER VM98403 WAS OMITTED FROM THIS PROPERTY IN ERROR AND WAS ADDED AND CERTIFIED ON 2003/02/20 BY DEBBIE SARKANY.
16913	0390	SUBJECT ON THE DATE OF REGISTRATION 98/09/22 TO SUBSECTION 44(1) OF THE LAND TITLES ACT, EXCEPT PARAGRAPHS 3 AND 14 THEREOF.
16913	0427	SUBJECT ON THE DATE OF REGISTRATION 98/01/21 TO SUBSECTION 44(1) OF THE LAND TITLES ACT, EXCEPT PARAGRAPHS 3 AND 14 THEREOF AND PROVINCIAL SUCCESSION DUTIES.
16913	0428	SUBJECT ON THE DATE OF REGISTRATION 98/01/21 TO SUBSECTION 44(1) OF THE LAND TITLES ACT, EXCEPT PARAGRAPHS 3 AND 14 THEREOF AND PROVINCIAL SUCCESSION DUTIES.
16913	0429	SUBJECT ON THE DATE OF REGISTRATION 98/01/21 TO SUBSECTION 44(1) OF THE LAND TITLES ACT, EXCEPT PARAGRAPHS 3 AND 14 THEREOF AND PROVINCIAL SUCCESSION DUTIES.
16913	0430	SUBJECT ON THE DATE OF REGISTRATION 98/01/21 TO SUBSECTION 44(1) OF THE LAND TITLES ACT, EXCEPT PARAGRAPHS 3 AND 14 THEREOF AND PROVINCIAL SUCCESSION DUTIES.
16913	0431	SUBJECT ON THE DATE OF REGISTRATION 98/01/21 TO SUBSECTION 44(1) OF THE LAND TITLES ACT, EXCEPT PARAGRAPHS 3 AND 14 THEREOF AND PROVINCIAL SUCCESSION DUTIES.
16913	0432	SUBJECT ON THE DATE OF REGISTRATION 98/01/21 TO SUBSECTION 44(1) OF THE LAND TITLES ACT, EXCEPT PARAGRAPHS 3 AND 14 THEREOF AND PROVINCIAL SUCCESSION DUTIES.
16913	0433	SUBJECT ON THE DATE OF REGISTRATION 98/01/21 TO SUBSECTION 44(1) OF THE LAND TITLES ACT, EXCEPT PARAGRAPHS 3 AND 14 THEREOF AND PROVINCIAL SUCCESSION DUTIES.
16913	0587	COMMITTEE OF ADJUSTMENT CONSENT IN WE424163.
16914	0164	CORRECTION: INSTRUMENT NUMBER LT437432 WAS ENTERED IN ERROR AGAINST THIS PROPERTY AND WAS REMOVED AND CERTIFIED ON 1997/04/03 BY ERIC CANNON.
16914	0165	CORRECTION: INSTRUMENT NUMBER LT437432 WAS ENTERED IN ERROR AGAINST THIS PROPERTY AND WAS REMOVED AND CERTIFIED ON 1997/04/03 BY ERIC CANNON.
16914	0166	CORRECTION: INSTRUMENT NUMBER LT437432 WAS ENTERED IN ERROR AGAINST THIS PROPERTY AND WAS REMOVED AND CERTIFIED ON 1997/04/03 BY ERIC CANNON.
16914	0167	CORRECTION: INSTRUMENT NUMBER LT437432 WAS ENTERED IN ERROR AGAINST THIS PROPERTY AND WAS REMOVED AND CERTIFIED ON 1997/04/03 BY ERIC CANNON.
16914	0168	CORRECTION: INSTRUMENT NUMBER LT437432 WAS ENTERED IN ERROR AGAINST THIS PROPERTY AND WAS REMOVED AND CERTIFIED ON 1997/04/03 BY ERIC CANNON.
16914	0169	CORRECTION: INSTRUMENT NUMBER LT437432 WAS ENTERED IN ERROR AGAINST THIS PROPERTY AND WAS REMOVED AND CERTIFIED ON 1997/04/03 BY ERIC CANNON.
16914	0248	PLANNING ACT CONSENT IN WE225391.
16914	0254	PLANNING ACT CONSENT ON WE226030.
16914	0256	PLANNING ACT CONSENT IN WE235409.
16914	0258	THE FOLLOWING REMARK HAS BEEN ADDED ON 2004/06/23 AT 09:24 BY DORRIE MORLEY : PLANNING ACT CONSENT IN WE235409.
16914	0260	PLANNING ACT CONSENT IN WE235409.
16916	0128	CORRECTION: INSTRUMENT NUMBER LT219249 WAS OMITTED FROM THIS PROPERTY IN ERROR AND WAS ADDED AND CERTIFIED ON 2005/06/23 BY CRISSY DELDUCA.
16916	0129	CORRECTION: INSTRUMENT NUMBER LT219249 WAS OMITTED FROM THIS PROPERTY IN ERROR AND WAS ADDED AND CERTIFIED ON 2005/07/12 BY CRISSY DELDUCA.
16916	0244	THE FOLLOWING REMARK HAS BEEN ADDED ON 2005/10/19 AT 12:06 BY TERESA GROSHENS : "FOR ADDITIONAL ENCUMBRANCES THE PIN FOR WENTWORTH COMMON ELEMENTS CONDOMINIUM PLAN NO. 391 IN BLOCK 18391 MUST BE EXAMINED.".
16916	0248	THE FOLLOWING REMARK HAS BEEN ADDED ON 2005/10/19 AT 13:46 BY TERESA GROSHENS : "FOR ADDITIONAL ENCUMBRANCES THE PIN FOR WENTWORTH COMMON ELEMENTS CONDOMINIUM PLAN NO. 391 IN BLOCK 18391 MUST BE EXAMINED.".
16916	0249	THE FOLLOWING REMARK HAS BEEN ADDED ON 2005/10/19 AT 13:46 BY TERESA GROSHENS : "FOR ADDITIONAL ENCUMBRANCES THE PIN FOR WENTWORTH COMMON ELEMENTS CONDOMINIUM PLAN NO. 391 IN BLOCK 18391 MUST BE EXAMINED.".
16916	0261	THE FOLLOWING REMARK HAS BEEN ADDED ON 2005/10/19 AT 14:02 BY TERESA GROSHENS : "FOR ADDITIONAL ENCUMBRANCES THE PIN FOR WENTWORTH COMMON ELEMENTS CONDOMINIUM PLAN NO. 391 IN BLOCK 18391 MUST BE EXAMINED.".
16916	0264	THE FOLLOWING REMARK HAS BEEN ADDED ON 2005/10/19 AT 14:07 BY TERESA GROSHENS : "FOR ADDITIONAL ENCUMBRANCES THE PIN FOR WENTWORTH COMMON ELEMENTS CONDOMINIUM PLAN NO. 391 IN BLOCK 18391 MUST BE EXAMINED.".
16916	0276	THE FOLLOWING REMARK HAS BEEN ADDED ON 2005/10/19 AT 14:17 BY TERESA GROSHENS : "FOR ADDITIONAL ENCUMBRANCES THE PIN FOR WENTWORTH COMMON ELEMENTS CONDOMINIUM PLAN NO. 391 IN BLOCK 18391 MUST BE EXAMINED.".
16916	0277	THE FOLLOWING REMARK HAS BEEN ADDED ON 2005/10/19 AT 14:17 BY TERESA GROSHENS : "FOR ADDITIONAL ENCUMBRANCES THE PIN FOR WENTWORTH COMMON ELEMENTS CONDOMINIUM PLAN NO. 391 IN BLOCK 18391 MUST BE EXAMINED.".
16916	0346	THE FOLLOWING REMARK HAS BEEN ADDED ON 2005/10/19 AT 12:09 BY TERESA GROSHENS : "FOR ADDITIONAL ENCUMBRANCES THE PIN FOR WENTWORTH COMMON ELEMENTS CONDOMINIUM PLAN NO. 391 IN BLOCK 18391 MUST BE EXAMINED.".
16916	0347	THE FOLLOWING REMARK HAS BEEN ADDED ON 2005/10/19 AT 13:43 BY TERESA GROSHENS : "FOR ADDITIONAL ENCUMBRANCES THE PIN FOR WENTWORTH COMMON ELEMENTS CONDOMINIUM PLAN NO. 391 IN BLOCK 18391 MUST BE EXAMINED.".
16916	0348	THE FOLLOWING REMARK HAS BEEN ADDED ON 2005/10/19 AT 13:44 BY TERESA GROSHENS : "FOR ADDITIONAL ENCUMBRANCES THE PIN FOR WENTWORTH COMMON ELEMENTS CONDOMINIUM PLAN NO. 391 IN BLOCK 18391 MUST BE EXAMINED.".
16916	0349	THE FOLLOWING REMARK HAS BEEN ADDED ON 2005/10/19 AT 13:44 BY TERESA GROSHENS : "FOR ADDITIONAL ENCUMBRANCES THE PIN FOR WENTWORTH COMMON ELEMENTS CONDOMINIUM PLAN NO. 391 IN BLOCK 18391 MUST BE EXAMINED.".
16916	0350	THE FOLLOWING REMARK HAS BEEN ADDED ON 2005/10/19 AT 13:45 BY TERESA GROSHENS : "FOR ADDITIONAL ENCUMBRANCES THE PIN FOR WENTWORTH COMMON ELEMENTS CONDOMINIUM PLAN NO. 391 IN BLOCK 18391 MUST BE EXAMINED.".
16916	0351	THE FOLLOWING REMARK HAS BEEN ADDED ON 2005/10/19 AT 13:45 BY TERESA GROSHENS : "FOR ADDITIONAL ENCUMBRANCES THE PIN FOR WENTWORTH COMMON ELEMENTS CONDOMINIUM PLAN NO. 391 IN BLOCK 18391 MUST BE EXAMINED.".
16916	0352	THE FOLLOWING REMARK HAS BEEN ADDED ON 2005/10/19 AT 13:46 BY TERESA GROSHENS : "FOR ADDITIONAL ENCUMBRANCES THE PIN FOR WENTWORTH COMMON ELEMENTS CONDOMINIUM PLAN NO. 391 IN BLOCK 18391 MUST BE EXAMINED.".
16916	0353	THE FOLLOWING REMARK HAS BEEN ADDED ON 2005/10/19 AT 13:47 BY TERESA GROSHENS : "FOR ADDITIONAL ENCUMBRANCES THE PIN FOR WENTWORTH COMMON ELEMENTS CONDOMINIUM PLAN NO. 391 IN BLOCK 18391 MUST BE EXAMINED.".
16916	0354	THE FOLLOWING REMARK HAS BEEN ADDED ON 2005/10/19 AT 13:47 BY TERESA GROSHENS : "FOR ADDITIONAL ENCUMBRANCES THE PIN FOR WENTWORTH COMMON ELEMENTS CONDOMINIUM PLAN NO. 391 IN BLOCK 18391 MUST BE EXAMINED.".
16916	0355	THE FOLLOWING REMARK HAS BEEN ADDED ON 2005/10/19 AT 13:47 BY TERESA GROSHENS : "FOR ADDITIONAL ENCUMBRANCES THE PIN FOR WENTWORTH COMMON ELEMENTS CONDOMINIUM PLAN NO. 391 IN BLOCK 18391 MUST BE EXAMINED.".
16916	0356	THE FOLLOWING REMARK HAS BEEN ADDED ON 2005/10/19 AT 13:48 BY TERESA GROSHENS : "FOR ADDITIONAL ENCUMBRANCES THE PIN FOR WENTWORTH COMMON ELEMENTS CONDOMINIUM PLAN NO. 391 IN BLOCK 18391 MUST BE EXAMINED.".
16916	0357	THE FOLLOWING REMARK HAS BEEN ADDED ON 2005/10/19 AT 13:48 BY TERESA GROSHENS : "FOR ADDITIONAL ENCUMBRANCES THE PIN FOR WENTWORTH COMMON ELEMENTS CONDOMINIUM PLAN NO. 391 IN BLOCK 18391 MUST BE EXAMINED.".
16916	0358	THE FOLLOWING REMARK HAS BEEN ADDED ON 2005/10/19 AT 13:48 BY TERESA GROSHENS : "FOR ADDITIONAL ENCUMBRANCES THE PIN FOR WENTWORTH COMMON ELEMENTS CONDOMINIUM PLAN NO. 391 IN BLOCK 18391 MUST BE EXAMINED.".
16916	0359	THE FOLLOWING REMARK HAS BEEN ADDED ON 2005/10/19 AT 13:49 BY TERESA GROSHENS : "FOR ADDITIONAL ENCUMBRANCES THE PIN FOR WENTWORTH COMMON ELEMENTS CONDOMINIUM PLAN NO. 391 IN BLOCK 18391 MUST BE EXAMINED.".
16916	0360	THE FOLLOWING REMARK HAS BEEN ADDED ON 2005/10/19 AT 13:49 BY TERESA GROSHENS : "FOR ADDITIONAL ENCUMBRANCES THE PIN FOR WENTWORTH COMMON ELEMENTS CONDOMINIUM PLAN NO. 391 IN BLOCK 18391 MUST BE EXAMINED.".
16916	0361	THE FOLLOWING REMARK HAS BEEN ADDED ON 2005/10/19 AT 13:49 BY TERESA GROSHENS : "FOR ADDITIONAL ENCUMBRANCES THE PIN FOR WENTWORTH COMMON ELEMENTS CONDOMINIUM PLAN NO. 391 IN BLOCK 18391 MUST BE EXAMINED.".
16916	0362	THE FOLLOWING REMARK HAS BEEN ADDED ON 2005/10/19 AT 13:50 BY TERESA GROSHENS : "FOR ADDITIONAL ENCUMBRANCES THE PIN FOR WENTWORTH COMMON ELEMENTS CONDOMINIUM PLAN NO. 391 IN BLOCK 18391 MUST BE EXAMINED.".
16916	0363	THE FOLLOWING REMARK HAS BEEN ADDED ON 2005/10/19 AT 13:50 BY TERESA GROSHENS : "FOR ADDITIONAL ENCUMBRANCES THE PIN FOR WENTWORTH COMMON ELEMENTS CONDOMINIUM PLAN NO. 391 IN BLOCK 18391 MUST BE EXAMINED.".
16916	0364	THE FOLLOWING REMARK HAS BEEN ADDED ON 2005/10/19 AT 13:50 BY TERESA GROSHENS : "FOR ADDITIONAL ENCUMBRANCES THE PIN FOR WENTWORTH COMMON ELEMENTS CONDOMINIUM PLAN NO. 391 IN BLOCK 18391 MUST BE EXAMINED.".
16916	0365	THE FOLLOWING REMARK HAS BEEN ADDED ON 2005/10/19 AT 13:51 BY TERESA GROSHENS : "FOR ADDITIONAL ENCUMBRANCES THE PIN FOR WENTWORTH COMMON ELEMENTS CONDOMINIUM PLAN NO. 391 IN BLOCK 18391 MUST BE EXAMINED.".
16916	0366	THE FOLLOWING REMARK HAS BEEN ADDED ON 2005/10/19 AT 13:51 BY TERESA GROSHENS : "FOR ADDITIONAL ENCUMBRANCES THE PIN FOR WENTWORTH COMMON ELEMENTS CONDOMINIUM PLAN NO. 391 IN BLOCK 18391 MUST BE EXAMINED.".
16916	0367	THE FOLLOWING REMARK HAS BEEN ADDED ON 2005/10/19 AT 13:51 BY TERESA GROSHENS : "FOR ADDITIONAL ENCUMBRANCES THE PIN FOR WENTWORTH COMMON ELEMENTS CONDOMINIUM PLAN NO. 391 IN BLOCK 18391 MUST BE EXAMINED.".
16916	0368	THE FOLLOWING REMARK HAS BEEN ADDED ON 2005/10/19 AT 13:51 BY TERESA GROSHENS : "FOR ADDITIONAL ENCUMBRANCES THE PIN FOR WENTWORTH COMMON ELEMENTS CONDOMINIUM PLAN NO. 391 IN BLOCK 18391 MUST BE EXAMINED.".
16916	0369	THE FOLLOWING REMARK HAS BEEN ADDED ON 2005/10/19 AT 13:52 BY TERESA GROSHENS : "FOR ADDITIONAL ENCUMBRANCES THE PIN FOR WENTWORTH COMMON ELEMENTS CONDOMINIUM PLAN NO. 391 IN BLOCK 18391 MUST BE EXAMINED.".
16916	0370	THE FOLLOWING REMARK HAS BEEN ADDED ON 2005/10/19 AT 14:01 BY TERESA GROSHENS : "FOR ADDITIONAL ENCUMBRANCES THE PIN FOR WENTWORTH COMMON ELEMENTS CONDOMINIUM PLAN NO. 391 IN BLOCK 18391 MUST BE EXAMINED.".
16916	0371	THE FOLLOWING REMARK HAS BEEN ADDED ON 2005/10/19 AT 14:01 BY TERESA GROSHENS : "FOR ADDITIONAL ENCUMBRANCES THE PIN FOR WENTWORTH COMMON ELEMENTS CONDOMINIUM PLAN NO. 391 IN BLOCK 18391 MUST BE EXAMINED.".
16916	0372	THE FOLLOWING REMARK HAS BEEN ADDED ON 2005/10/19 AT 14:02 BY TERESA GROSHENS : "FOR ADDITIONAL ENCUMBRANCES THE PIN FOR WENTWORTH COMMON ELEMENTS CONDOMINIUM PLAN NO. 391 IN BLOCK 18391 MUST BE EXAMINED.".
16916	0373	THE FOLLOWING REMARK HAS BEEN ADDED ON 2005/10/19 AT 14:02 BY TERESA GROSHENS : "FOR ADDITIONAL ENCUMBRANCES THE PIN FOR WENTWORTH COMMON ELEMENTS CONDOMINIUM PLAN NO. 391 IN BLOCK 18391 MUST BE EXAMINED.".
16916	0374	THE FOLLOWING REMARK HAS BEEN ADDED ON 2005/10/19 AT 14:03 BY TERESA GROSHENS : "FOR ADDITIONAL ENCUMBRANCES THE PIN FOR WENTWORTH COMMON ELEMENTS CONDOMINIUM PLAN NO. 391 IN BLOCK 18391 MUST BE EXAMINED.".
16916	0375	THE FOLLOWING REMARK HAS BEEN ADDED ON 2005/10/19 AT 14:03 BY TERESA GROSHENS : "FOR ADDITIONAL ENCUMBRANCES THE PIN FOR WENTWORTH COMMON ELEMENTS CONDOMINIUM PLAN NO. 391 IN BLOCK 18391 MUST BE EXAMINED.".
16916	0376	THE FOLLOWING REMARK HAS BEEN ADDED ON 2005/10/19 AT 14:06 BY TERESA GROSHENS : "FOR ADDITIONAL ENCUMBRANCES THE PIN FOR WENTWORTH COMMON ELEMENTS CONDOMINIUM PLAN NO. 391 IN BLOCK 18391 MUST BE EXAMINED.".
16916	0377	THE FOLLOWING REMARK HAS BEEN ADDED ON 2005/10/19 AT 14:06 BY TERESA GROSHENS : "FOR ADDITIONAL ENCUMBRANCES THE PIN FOR WENTWORTH COMMON ELEMENTS CONDOMINIUM PLAN NO. 391 IN BLOCK 18391 MUST BE EXAMINED.".
16916	0378	THE FOLLOWING REMARK HAS BEEN ADDED ON 2005/10/19 AT 14:07 BY TERESA GROSHENS : "FOR ADDITIONAL ENCUMBRANCES THE PIN FOR WENTWORTH COMMON ELEMENTS CONDOMINIUM PLAN NO. 391 IN BLOCK 18391 MUST BE EXAMINED.".
16916	0379	THE FOLLOWING REMARK HAS BEEN ADDED ON 2005/10/19 AT 14:07 BY TERESA GROSHENS : "FOR ADDITIONAL ENCUMBRANCES THE PIN FOR WENTWORTH COMMON ELEMENTS CONDOMINIUM PLAN NO. 391 IN BLOCK 18391 MUST BE EXAMINED.".
16916	0380	THE FOLLOWING REMARK HAS BEEN ADDED ON 2005/10/19 AT 14:10 BY TERESA GROSHENS : "FOR ADDITIONAL ENCUMBRANCES THE PIN FOR WENTWORTH COMMON ELEMENTS CONDOMINIUM PLAN NO. 391 IN BLOCK 18391 MUST BE EXAMINED.".
16916	0381	THE FOLLOWING REMARK HAS BEEN ADDED ON 2005/10/19 AT 14:11 BY TERESA GROSHENS : "FOR ADDITIONAL ENCUMBRANCES THE PIN FOR WENTWORTH COMMON ELEMENTS CONDOMINIUM PLAN NO. 391 IN BLOCK 18391 MUST BE EXAMINED.".
16916	0382	THE FOLLOWING REMARK HAS BEEN ADDED ON 2005/10/19 AT 14:11 BY TERESA GROSHENS : "FOR ADDITIONAL ENCUMBRANCES THE PIN FOR WENTWORTH COMMON ELEMENTS CONDOMINIUM PLAN NO. 391 IN BLOCK 18391 MUST BE EXAMINED.".
16916	0383	THE FOLLOWING REMARK HAS BEEN ADDED ON 2005/10/19 AT 14:11 BY TERESA GROSHENS : "FOR ADDITIONAL ENCUMBRANCES THE PIN FOR WENTWORTH COMMON ELEMENTS CONDOMINIUM PLAN NO. 391 IN BLOCK 18391 MUST BE EXAMINED.".
16916	0384	THE FOLLOWING REMARK HAS BEEN ADDED ON 2005/10/19 AT 14:12 BY TERESA GROSHENS : "FOR ADDITIONAL ENCUMBRANCES THE PIN FOR WENTWORTH COMMON ELEMENTS CONDOMINIUM PLAN NO. 391 IN BLOCK 18391 MUST BE EXAMINED.".
16916	0385	THE FOLLOWING REMARK HAS BEEN ADDED ON 2005/10/19 AT 14:12 BY TERESA GROSHENS : "FOR ADDITIONAL ENCUMBRANCES THE PIN FOR WENTWORTH COMMON ELEMENTS CONDOMINIUM PLAN NO. 391 IN BLOCK 18391 MUST BE EXAMINED.".
16916	0386	THE FOLLOWING REMARK HAS BEEN ADDED ON 2005/10/19 AT 14:12 BY TERESA GROSHENS : "FOR ADDITIONAL ENCUMBRANCES THE PIN FOR WENTWORTH COMMON ELEMENTS CONDOMINIUM PLAN NO. 391 IN BLOCK 18391 MUST BE EXAMINED.".
16916	0387	THE FOLLOWING REMARK HAS BEEN ADDED ON 2005/10/19 AT 14:12 BY TERESA GROSHENS : "FOR ADDITIONAL ENCUMBRANCES THE PIN FOR WENTWORTH COMMON ELEMENTS CONDOMINIUM PLAN NO. 391 IN BLOCK 18391 MUST BE EXAMINED.".
16916	0388	THE FOLLOWING REMARK HAS BEEN ADDED ON 2005/10/19 AT 14:13 BY TERESA GROSHENS : "FOR ADDITIONAL ENCUMBRANCES THE PIN FOR WENTWORTH COMMON ELEMENTS CONDOMINIUM PLAN NO. 391 IN BLOCK 18391 MUST BE EXAMINED.".
16916	0389	THE FOLLOWING REMARK HAS BEEN ADDED ON 2005/10/19 AT 14:13 BY TERESA GROSHENS : "FOR ADDITIONAL ENCUMBRANCES THE PIN FOR WENTWORTH COMMON ELEMENTS CONDOMINIUM PLAN NO. 391 IN BLOCK 18391 MUST BE EXAMINED.".
16916	0390	THE FOLLOWING REMARK HAS BEEN ADDED ON 2005/10/19 AT 14:13 BY TERESA GROSHENS : "FOR ADDITIONAL ENCUMBRANCES THE PIN FOR WENTWORTH COMMON ELEMENTS CONDOMINIUM PLAN NO. 391 IN BLOCK 18391 MUST BE EXAMINED.".
16916	0391	THE FOLLOWING REMARK HAS BEEN ADDED ON 2005/10/19 AT 14:14 BY TERESA GROSHENS : "FOR ADDITIONAL ENCUMBRANCES THE PIN FOR WENTWORTH COMMON ELEMENTS CONDOMINIUM PLAN NO. 391 IN BLOCK 18391 MUST BE EXAMINED.".
16916	0392	THE FOLLOWING REMARK HAS BEEN ADDED ON 2005/10/19 AT 14:14 BY TERESA GROSHENS : "FOR ADDITIONAL ENCUMBRANCES THE PIN FOR WENTWORTH COMMON ELEMENTS CONDOMINIUM PLAN NO. 391 IN BLOCK 18391 MUST BE EXAMINED.".
16916	0393	THE FOLLOWING REMARK HAS BEEN ADDED ON 2005/10/19 AT 14:14 BY TERESA GROSHENS : "FOR ADDITIONAL ENCUMBRANCES THE PIN FOR WENTWORTH COMMON ELEMENTS CONDOMINIUM PLAN NO. 391 IN BLOCK 18391 MUST BE EXAMINED.".
16916	0394	THE FOLLOWING REMARK HAS BEEN ADDED ON 2005/10/19 AT 14:14 BY TERESA GROSHENS : "FOR ADDITIONAL ENCUMBRANCES THE PIN FOR WENTWORTH COMMON ELEMENTS CONDOMINIUM PLAN NO. 391 IN BLOCK 18391 MUST BE EXAMINED.".
16916	0395	THE FOLLOWING REMARK HAS BEEN ADDED ON 2005/10/19 AT 14:15 BY TERESA GROSHENS : "FOR ADDITIONAL ENCUMBRANCES THE PIN FOR WENTWORTH COMMON ELEMENTS CONDOMINIUM PLAN NO. 391 IN BLOCK 18391 MUST BE EXAMINED.".
16916	0396	THE FOLLOWING REMARK HAS BEEN ADDED ON 2005/10/19 AT 14:15 BY TERESA GROSHENS : "FOR ADDITIONAL ENCUMBRANCES THE PIN FOR WENTWORTH COMMON ELEMENTS CONDOMINIUM PLAN NO. 391 IN BLOCK 18391 MUST BE EXAMINED.".
16916	0397	THE FOLLOWING REMARK HAS BEEN ADDED ON 2005/10/19 AT 14:15 BY TERESA GROSHENS : "FOR ADDITIONAL ENCUMBRANCES THE PIN FOR WENTWORTH COMMON ELEMENTS CONDOMINIUM PLAN NO. 391 IN BLOCK 18391 MUST BE EXAMINED.".
16916	0398	THE FOLLOWING REMARK HAS BEEN ADDED ON 2005/10/19 AT 14:15 BY TERESA GROSHENS : "FOR ADDITIONAL ENCUMBRANCES THE PIN FOR WENTWORTH COMMON ELEMENTS CONDOMINIUM PLAN NO. 391 IN BLOCK 18391 MUST BE EXAMINED.".
16916	0399	THE FOLLOWING REMARK HAS BEEN ADDED ON 2005/10/19 AT 14:16 BY TERESA GROSHENS : "FOR ADDITIONAL ENCUMBRANCES THE PIN FOR WENTWORTH COMMON ELEMENTS CONDOMINIUM PLAN NO. 391 IN BLOCK 18391 MUST BE EXAMINED.".
16916	0400	THE FOLLOWING REMARK HAS BEEN ADDED ON 2005/10/19 AT 14:18 BY TERESA GROSHENS : "FOR ADDITIONAL ENCUMBRANCES THE PIN FOR WENTWORTH COMMON ELEMENTS CONDOMINIUM PLAN NO. 391 IN BLOCK 18391 MUST BE EXAMINED.".
16916	0401	THE FOLLOWING REMARK HAS BEEN ADDED ON 2005/10/19 AT 14:18 BY TERESA GROSHENS : "FOR ADDITIONAL ENCUMBRANCES THE PIN FOR WENTWORTH COMMON ELEMENTS CONDOMINIUM PLAN NO. 391 IN BLOCK 18391 MUST BE EXAMINED.".
16916	0402	THE FOLLOWING REMARK HAS BEEN ADDED ON 2005/10/19 AT 14:18 BY TERESA GROSHENS : "FOR ADDITIONAL ENCUMBRANCES THE PIN FOR WENTWORTH COMMON ELEMENTS CONDOMINIUM PLAN NO. 391 IN BLOCK 18391 MUST BE EXAMINED.".
16916	0403	THE FOLLOWING REMARK HAS BEEN ADDED ON 2005/10/19 AT 14:18 BY TERESA GROSHENS : "FOR ADDITIONAL ENCUMBRANCES THE PIN FOR WENTWORTH COMMON ELEMENTS CONDOMINIUM PLAN NO. 391 IN BLOCK 18391 MUST BE EXAMINED.".
16916	0404	THE FOLLOWING REMARK HAS BEEN ADDED ON 2005/10/19 AT 14:19 BY TERESA GROSHENS : "FOR ADDITIONAL ENCUMBRANCES THE PIN FOR WENTWORTH COMMON ELEMENTS CONDOMINIUM PLAN NO. 391 IN BLOCK 18391 MUST BE EXAMINED.".
16916	0405	THE FOLLOWING REMARK HAS BEEN ADDED ON 2005/10/19 AT 14:19 BY TERESA GROSHENS : "FOR ADDITIONAL ENCUMBRANCES THE PIN FOR WENTWORTH COMMON ELEMENTS CONDOMINIUM PLAN NO. 391 IN BLOCK 18391 MUST BE EXAMINED.".
16916	0406	THE FOLLOWING REMARK HAS BEEN ADDED ON 2005/10/19 AT 14:19 BY TERESA GROSHENS : "FOR ADDITIONAL ENCUMBRANCES THE PIN FOR WENTWORTH COMMON ELEMENTS CONDOMINIUM PLAN NO. 391 IN BLOCK 18391 MUST BE EXAMINED.".
16916	0407	THE FOLLOWING REMARK HAS BEEN ADDED ON 2005/10/19 AT 14:20 BY TERESA GROSHENS : "FOR ADDITIONAL ENCUMBRANCES THE PIN FOR WENTWORTH COMMON ELEMENTS CONDOMINIUM PLAN NO. 391 IN BLOCK 18391 MUST BE EXAMINED.".
16918	0003	CORRECTION: DOCUMENT WE10056121 ADDED TO 16918-0003 ON 2023/01/25 AT 23:46 BY STURINO, NADINE.
16918	0004	CORRECTION: DOCUMENT WE10056121 ADDED TO 16918-0004 ON 2023/01/25 AT 23:46 BY STURINO, NADINE.
16918	0005	CORRECTION: DOCUMENT WE10056121 ADDED TO 16918-0005 ON 2023/01/25 AT 23:46 BY STURINO, NADINE.
16918	0006	CORRECTION: DOCUMENT WE10056121 ADDED TO 16918-0006 ON 2023/01/25 AT 23:46 BY STURINO, NADINE.
16918	0007	CORRECTION: DOCUMENT WE10056121 ADDED TO 16918-0007 ON 2023/01/25 AT 23:46 BY STURINO, NADINE.
16918	0008	CORRECTION: DOCUMENT WE10056121 ADDED TO 16918-0008 ON 2023/01/25 AT 23:46 BY STURINO, NADINE.
16918	0009	CORRECTION: DOCUMENT WE10056121 ADDED TO 16918-0009 ON 2023/01/25 AT 23:46 BY STURINO, NADINE.
16918	0010	CORRECTION: DOCUMENT WE10056121 ADDED TO 16918-0010 ON 2023/01/25 AT 23:46 BY STURINO, NADINE.
16918	0011	CORRECTION: DOCUMENT WE10056121 ADDED TO 16918-0011 ON 2023/01/25 AT 23:46 BY STURINO, NADINE.
16918	0012	CORRECTION: DOCUMENT WE10056121 ADDED TO 16918-0012 ON 2023/01/25 AT 23:46 BY STURINO, NADINE.
16918	0013	CORRECTION: DOCUMENT WE10056121 ADDED TO 16918-0013 ON 2023/01/25 AT 23:46 BY STURINO, NADINE.
16918	0014	CORRECTION: DOCUMENT WE10056121 ADDED TO 16918-0014 ON 2023/01/25 AT 23:46 BY STURINO, NADINE.
16918	0015	CORRECTION: DOCUMENT WE10056121 ADDED TO 16918-0015 ON 2023/01/25 AT 23:46 BY STURINO, NADINE.
16918	0016	CORRECTION: DOCUMENT WE10056121 ADDED TO 16918-0016 ON 2023/01/25 AT 23:46 BY STURINO, NADINE.
16918	0017	CORRECTION: DOCUMENT WE10056121 ADDED TO 16918-0017 ON 2023/01/25 AT 23:46 BY STURINO, NADINE.
16918	0018	CORRECTION: DOCUMENT WE10056121 ADDED TO 16918-0018 ON 2023/01/25 AT 23:46 BY STURINO, NADINE.
16918	0019	CORRECTION: DOCUMENT WE10056121 ADDED TO 16918-0019 ON 2023/01/25 AT 23:46 BY STURINO, NADINE.
16918	0020	CORRECTION: DOCUMENT WE10056121 ADDED TO 16918-0020 ON 2023/01/25 AT 23:46 BY STURINO, NADINE.
16918	0021	CORRECTION: DOCUMENT WE10056121 ADDED TO 16918-0021 ON 2023/01/25 AT 23:46 BY STURINO, NADINE.
16918	0022	CORRECTION: DOCUMENT WE10056121 ADDED TO 16918-0022 ON 2023/01/25 AT 23:46 BY STURINO, NADINE.
16918	0023	CORRECTION: DOCUMENT WE10056121 ADDED TO 16918-0023 ON 2023/01/25 AT 23:46 BY STURINO, NADINE.
16918	0024	CORRECTION: DOCUMENT WE10056121 ADDED TO 16918-0024 ON 2023/01/25 AT 23:46 BY STURINO, NADINE.
16918	0025	CORRECTION: DOCUMENT WE10056121 ADDED TO 16918-0025 ON 2023/01/25 AT 23:46 BY STURINO, NADINE.
16918	0026	CORRECTION: DOCUMENT WE10056121 ADDED TO 16918-0026 ON 2023/01/25 AT 23:46 BY STURINO, NADINE.
16918	0027	CORRECTION: DOCUMENT WE10056121 ADDED TO 16918-0027 ON 2023/01/25 AT 23:46 BY STURINO, NADINE.
16918	0028	CORRECTION: DOCUMENT WE10056121 ADDED TO 16918-0028 ON 2023/01/25 AT 23:46 BY STURINO, NADINE.
16918	0029	CORRECTION: DOCUMENT WE10056121 ADDED TO 16918-0029 ON 2023/01/25 AT 23:46 BY STURINO, NADINE.
16918	0030	CORRECTION: DOCUMENT WE10056121 ADDED TO 16918-0030 ON 2023/01/25 AT 23:46 BY STURINO, NADINE.
16918	0031	CORRECTION: DOCUMENT WE10056121 ADDED TO 16918-0031 ON 2023/01/25 AT 23:46 BY STURINO, NADINE.
16918	0032	CORRECTION: DOCUMENT WE10056121 ADDED TO 16918-0032 ON 2023/01/25 AT 23:46 BY STURINO, NADINE.
16918	0033	CORRECTION: DOCUMENT WE10056121 ADDED TO 16918-0033 ON 2023/01/25 AT 23:46 BY STURINO, NADINE.
16918	0034	CORRECTION: DOCUMENT WE10056121 ADDED TO 16918-0034 ON 2023/01/25 AT 23:46 BY STURINO, NADINE.
16918	0035	CORRECTION: DOCUMENT WE10056121 ADDED TO 16918-0035 ON 2023/01/25 AT 23:46 BY STURINO, NADINE.
16918	0036	CORRECTION: DOCUMENT WE10056121 ADDED TO 16918-0036 ON 2023/01/25 AT 23:46 BY STURINO, NADINE.
16918	0037	CORRECTION: DOCUMENT WE10056121 ADDED TO 16918-0037 ON 2023/01/25 AT 23:46 BY STURINO, NADINE.
16918	0038	CORRECTION: DOCUMENT WE10056121 ADDED TO 16918-0038 ON 2023/01/25 AT 23:46 BY STURINO, NADINE.
16918	0221	THE FOLLOWING REMARK HAS BEEN ADDED ON 2004/01/13 AT 11:10 BY SHIRLEY DELEEUW : S/T EXECUTION NO. 03-01574 AGAINST IAN JXYZ BURROWS, IF ENFORCEABLE. S/T EXECUTION NO. 03-01574 AGAINST KAREN EXYZ BURROWS, IF ENFORCEABLE. THE FOLLOWING REMARK HAS BEEN ADDED
16919	0164	CORRECTION: INSTRUMENT NUMBER LT437432 WAS OMITTED FROM THIS PROPERTY IN ERROR AND WAS ADDED AND CERTIFIED ON 1997/04/03 BY ERIC CANNON.
16919	0165	CORRECTION: INSTRUMENT NUMBER LT437432 WAS OMITTED FROM THIS PROPERTY IN ERROR AND WAS ADDED AND CERTIFIED ON 1997/04/03 BY ERIC CANNON.
16919	0166	CORRECTION: INSTRUMENT NUMBER LT437432 WAS OMITTED FROM THIS PROPERTY IN ERROR AND WAS ADDED AND CERTIFIED ON 1997/04/03 BY ERIC CANNON.
16919	0167	CORRECTION: INSTRUMENT NUMBER LT437432 WAS OMITTED FROM THIS PROPERTY IN ERROR AND WAS ADDED AND CERTIFIED ON 1997/04/03 BY ERIC CANNON.
16919	0168	CORRECTION: INSTRUMENT NUMBER LT437432 WAS OMITTED FROM THIS PROPERTY IN ERROR AND WAS ADDED AND CERTIFIED ON 1997/04/03 BY ERIC CANNON.
16919	0169	CORRECTION: INSTRUMENT NUMBER LT437432 WAS OMITTED FROM THIS PROPERTY IN ERROR AND WAS ADDED AND CERTIFIED ON 1997/04/03 BY ERIC CANNON.
16920	0195	CORRECTION: INSTRUMENT NUMBER 62R11769 WAS OMITTED FROM THIS PROPERTY IN ERROR AND WAS ADDED AND CERTIFIED ON 1996/09/25 BY ERIC CANNON.
16920	0240	THE FOLLOWING REMARK HAS BEEN ADDED ON 2002/07/10 AT 15:11 BY BELLE FIAMELLI : OWNERSHIP FIELD AMENDED.
16920	0428	CONSENT LAND DIVISION COMMITTEE IN LT315806.
16920	0430	CONSENT LAND DIVISION COMMITTEE IN LT315802.
16920	0432	CONSENT LAND DIVISION COMMITTEE IN LT315804.
16920	0473	CORRECTION: INSTRUMENT NUMBER VM205951 WAS OMITTED FROM THIS PROPERTY IN ERROR AND WAS ADDED AND CERTIFIED ON 1996/03/15 BY JEFF GILBERT.
16920	0481	CORRECTION: INSTRUMENT NUMBER VM118651 WAS OMITTED FROM THIS PROPERTY IN ERROR AND WAS ADDED AND CERTIFIED ON 1997/04/10 BY MARLENE HUNTER.
16920	0494	CORRECTION: INSTRUMENT NUMBER VM124553 WAS OMITTED FROM THIS PROPERTY IN ERROR AND WAS ADDED AND CERTIFIED ON 1996/03/12 BY JEFF GILBERT.
16920	0495	CORRECTION: INSTRUMENT NUMBER VM205951 WAS OMITTED FROM THIS PROPERTY IN ERROR AND WAS ADDED AND CERTIFIED ON 1996/03/04 BY MARLENE NICHOLLS.
16920	0694	CORRECTION: INSTRUMENT NUMBER LT501117 WAS OMITTED FROM THIS PROPERTY IN ERROR AND WAS ADDED AND CERTIFIED ON 1998/06/19 BY BELLE FIAMELLI.
16920	0697	CORRECTION: INSTRUMENT NUMBER LT501117 WAS ENTERED IN ERROR AGAINST THIS PROPERTY AND WAS REMOVED AND CERTIFIED ON 1998/06/19 BY BELLE FIAMELLI.
16920	0743	THE FOLLOWING REMARK HAS BEEN ADDED ON 1998/08/17 AT 14:16 BY BELLE FIAMELLI : DESCRIPTION AMENDED 98 08 17 I. FIAMELLI.
16920	0758	CONSENT LAND DIVISION COMMITTEE HAS BEEN OBTAINED, SEE INST. WE161188.
16920	0789	PLANNING ACT CONSENT AS IN WE314325.
16920	0790	PLANNING ACT CONSENT AS IN WE314326.
16920	0791	PLANNING ACT CONSENT AS IN WE314327.
16921	0103	OPENED 97/02/03.
16921	0171	SUBJECT ON THE DATE OF REGISTRATION 97.02.03 TO SUBSECTION 44(1) OF THE LAND TITLES ACT EXCEPT PARAGRAPHS 3 AND 14 AND PROVINCIAL SUCCESSION DUTIES.
16921	0174	CORRECTION: INSTRUMENT NUMBER LT547270 WAS ENTERED IN ERROR AGAINST THIS PROPERTY AND WAS REMOVED AND CERTIFIED ON 1999/04/23 BY MARLENE HUNTER.
16921	0184	SUBSECTION 44(1) OF THE LAND TITLES ACT, EXCEPT PARAGRAPH 11, PARAGRAPH 14, PROVINCIAL SUCCESSION DUTIES AND ESCHEATS OR FORFEITURE TO THE CROWN, UP TO THE DATE OF CONVERSION AND EXCEPT PARAGRAPH 3 AND PARAGRAPH 14 THEREAFTER.
16921	0187	SUBJECT ON THE DATE OF REGISTRATION 97/02/03 TO SUBSECTION 44 (1) OF THE LAND TITLES ACT, EXCEPT PARAGRAPHS 11 AND 14, PROVINCIAL SUCCESSION DUTIES AND ESCHEATS OR FORFEITURE TO THE CROWN, UP TO THE DATE OF CONVERSION AND EXCEPT PARAGRAPHS 3 AND 14 THEREA
16921	0188	SUBJECT ON THE DATE OF REGISTRATION 97/02/03 TO SUBSECTION 44 (1) OF THE LAND TITLES, EXCEPT PARAGRAPHS 11 AND 14, PROVINCIAL SUCCESSION DUTIES AND ESCHEATS TO THE CROWN, UP TO THE DATE OF CONVERSION AND EXCEPT PARAGRAPHS 3 AND 14 THEREAFTER.
16921	0189	SUBJECT ON THE DATE OF REGISTRATION 97/02/03 TO SUBSECTION 44 (1) OF THE LAND TITLES ACT EXCEPT PARAGRAPHS 11 AND 14, PROVINCIAL SUCCESSION DUTIES AND ESCHEATS OR FORFEITURE TO THE CROWN UP TO THE DATE OF CONVERSION AND EXCEPT PARAGRAPHS 3 AND 14 THEREAFT
16921	0190	SUBJECT ON THE DATE OF REGISTRATION 97/02/03 TO SUBSECTION 44 (1) OF THE LAND TITLES ACT, EXCEPT PARAGRAPHS 11 AND 14, PROVINCIAL SUCCESSION DUTIES AND ESCHEATS OR FORFEITURE TO THE CROWN UP TO THE DATE OF CONVERSION AND EXCEPT PARAGRAPHS 3 AND 14 THEREAF
16921	0191	SUBJECT ON THE DATE OF REGISTRATION 97/02/03 TO SUBSECTION 44 (1) OF THE LAND TITLES ACT, EXCEPT PARAGRAPHS 11 AND 14, PROVINCIAL SUCCESSION DUTIES AND ESCHEATS OR FORFEITURE TO THE CROWN UP TO THE DATE OF CONVERSION AND EXCEPT PARAGRAPHS 3 AND 14 THEREAF
16921	0211	CONSENT COMMITTEE OF ADJUSTMENT IN WE384255.
16921	0212	CONSENT COMMITTEE OF ADJUSTMENT IN WE384258.
16921	0213	CONSENT COMMITTEE OF ADJUSTMENT IN WE384258.
16921	0216	COMMITTEE OF ADJUSTMENTS CONSENTS IN WE413697 AND WE413703.
16922	0276	CORRECTION: INSTRUMENT NUMBER LT109831 WAS OMITTED FROM THIS PROPERTY IN ERROR AND WAS ADDED AND CERTIFIED ON 1998/08/24 BY LAND REGISTRAR 2.
16922	0307	THE FOLLOWING REMARK HAS BEEN ADDED ON 2003/06/17 AT 09:28 BY DEBBIE SARKANY RCLK: PLANNING ACT CONSENT ON WE165042. THE FOLLOWING REMARK HAS BEEN ADDED ON 2003/07/28 AT 16:34 BY HELEN MACMILLAN : PLANNING ACT CONSENT AS IN WE165042.
16922	0308	THE FOLLOWING REMARK HAS BEEN ADDED ON 2003/06/13 AT 14:20 BY DEBBIE SARKANY RCLK: PLANNING ACT CONSENT ON WE165041.
16922	0310	CORRECTION: INSTRUMENT NUMBER WE12866 WAS OMITTED FROM THIS PROPERTY IN ERROR AND WAS ADDED AND CERTIFIED ON 2006/08/28 BY SONIA MA. CORRECTION: INSTRUMENT NUMBER WE121468 WAS OMITTED FROM THIS PROPERTY IN ERROR AND WAS ADDED AND CERTIFIED ON 2006/08/28 B
16923	0003	CORRECTION: INSTRUMENT NUMBER VM227817 WAS OMITTED FROM THIS PROPERTY IN ERROR AND WAS ADDED AND CERTIFIED ON 1998/11/30 BY LAND REGISTRAR 2.
16923	0222	SUBJECT TO DEBTS OF SC407 , IF ANY, AS IN SC407TR. ONE OI ADDED BY JELENA.
16923	0225	SUBJECT TO SPOUSAL RIGHTS OF THE SPOUSE OF FLEURY, PETER , IF ANY, AS IN SC410TR. SUBJECT TO EXECUTION NUMBER 19 - 2007 , IF APPLICABLE, AS IN SC410TR. SC6413-410. BULK EDIT - SAVE BUTTON SC12.
16923	0226	SUBJECT TO SPOUSAL RIGHTS OF THE SPOUSE OF FLEURY, PETER , IF ANY, AS IN SC410TR. SUBJECT TO EXECUTION NUMBER 19 - 2007 , IF APPLICABLE, AS IN SC410TR.
16923	0228	OTHER PROPERTY REMARKS ENTERED BY JELENA (PRE-POP).
16923	0261	SUBJECT TO EXECUTION NUMBER 1 - 1 , IF APPLICABLE, AS IN SC444TR. SUBJECT TO EXECUTION NUMBER 2 - 2 , IF APPLICABLE, AS IN SC444TR. SUBJECT TO EXECUTION NUMBER 3 - 3 , IF APPLICABLE, AS IN SC444TR. SUBJECT TO EXECUTION NUMBER 4 - 4 , IF APPLICABLE, AS IN
16923	0268	SUBJECT TO SPOUSAL RIGHTS OF THE SPOUSE OF 1 , IF ANY, AS IN SC448TR. SUBJECT TO EXECUTION NUMBER 2 - 2 , IF APPLICABLE, AS IN SC448TR. SUBJECT TO SPOUSAL RIGHTS OF THE SPOUSE OF 3 , IF ANY, AS IN SC448TR. SUBJECT TO EXECUTION NUMBER 4 - 4 , IF APPLICABLE
16923	0271	SUBJECT TO SPOUSAL RIGHTS OF THE SPOUSE OF SC451 , IF ANY, AS IN SC451TR. 6413-451 PRE-POP. THE END.
16923	0272	SUBJECT TO DEBTS OF SC452 , IF ANY, AS IN SC452. SUBJECT TO SPOUSAL RIGHTS OF THE SPOUSE OF SC452 , IF ANY, AS IN SC452. SUBJECT TO EXECUTION NUMBER SC452 - SC452 , IF APPLICABLE, AS IN SC452. SC452	SC3:  BULK EDIT SCREEN FOR NEW PLCON/CONAMD WITH 3 UNIT
16923	0276	SUBJECT TO EXECUTION NUMBER 21 - 2007 , IF APPLICABLE, AS IN SC454TR. OTHER PROPERTY REMARKS FOR SC454.
16923	0278	SUBJECT TO DEBTS OF SC456 , IF ANY, AS IN SC456TR. SUBJECT TO SPOUSAL RIGHTS OF THE SPOUSE OF SC456 , IF ANY, AS IN SC456TR. SUBJECT TO EXECUTION NUMBER SC456 - SC456 , IF APPLICABLE, AS IN SC456TR. 6413-456; SC456; SC12: BULK EDIT SCREEN FOR NEW PLCON/CO
16923	0351	CORRECTION: INSTRUMENT NUMBER HL167546 WAS OMITTED FROM THIS PROPERTY IN ERROR AND WAS ADDED AND CERTIFIED ON 1997/01/16 BY MARLENE HUNTER. CORRECTION: INSTRUMENT NUMBER 62R11291 WAS OMITTED FROM THIS PROPERTY IN ERROR AND WAS ADDED AND CERTIFIED ON 1997/
16923	0434	SUBJECT TO EXECUTION NUMBER 1 - 1 , IF APPLICABLE, AS IN TEST. OTHER PROPERTY REMARKS_UNIT TEST *QTP*.
16923	0435	SUBJECT TO EXECUTION NUMBER 1 - 1 , IF APPLICABLE, AS IN TEST. OTHER PROPERTY REMARKS_UNIT TEST *QTP*.
16923	0442	SUBJECT ON THE DATE OF REGISTRATION 97.02.03 TO SUBSECTION 44(1) OF THE LAND TITLES ACT EXCEPT PARAGRAPH 3 AND 14 AND PROVINCIAL SUCCESSION DUTIES.
16923	0444	SUBJECT TO EXECUTION NUMBER 1 - 1 , IF APPLICABLE, AS IN TEST. OTHER PROPERTY REMARKS_UNIT TEST *QTP*.
16923	0445	SUBJECT TO EXECUTION NUMBER 1 - 1 , IF APPLICABLE, AS IN TEST. OTHER PROPERTY REMARKS_UNIT TEST *QTP*.
16923	0452	SUBJECT TO EXECUTION NUMBER 1 - 1 , IF APPLICABLE, AS IN TEST. OTHER PROPERTY REMARKS_UNIT TEST *QTP*.
16923	0457	SUBJECT TO EXECUTION NUMBER 1 - 1 , IF APPLICABLE, AS IN TEST. OTHER PROPERTY REMARKS_UNIT TEST *QTP*.
16923	0458	SUBJECT TO EXECUTION NUMBER 1 - 1 , IF APPLICABLE, AS IN TEST. OTHER PROPERTY REMARKS_UNIT TEST *QTP*.
16923	0463	SUBJECT TO EXECUTION NUMBER 1 - 1 , IF APPLICABLE, AS IN TEST. OTHER PROPERTY REMARKS_UNIT TEST *QTP*.
16923	0465	SUBJECT TO EXECUTION NUMBER 1 - 1 , IF APPLICABLE, AS IN TEST. OTHER PROPERTY REMARKS_UNIT TEST *QTP*.
16923	0466	SUBJECT TO EXECUTION NUMBER 1 - 1 , IF APPLICABLE, AS IN TEST. OTHER PROPERTY REMARKS_UNIT TEST *QTP*.
16923	0467	SUBJECT TO EXECUTION NUMBER 1 - 1 , IF APPLICABLE, AS IN TEST. OTHER PROPERTY REMARKS_UNIT TEST *QTP*.
16923	0468	SUBJECT TO SUBSECTION 44 (1) OF THE LAND TITLES ACT EXCEPT PARAGRAPH 11, PARAGRAPH 14, PROVINCIAL SUCCESSION DUTIES AND ESCHEATS OR FORFEITURE TO THE CROWN UP TO THE DATE OF CONVERSION AND EXCEPT PARAGRAPHS 3 AND 14 THEREAFTER.
16923	0469	SUBJECT TO EXECUTION NUMBER 1 - 1 , IF APPLICABLE, AS IN TEST. OTHER PROPERTY REMARKS_UNIT TEST *QTP*.
16923	0470	SUBJECT TO EXECUTION NUMBER 1 - 1 , IF APPLICABLE, AS IN TEST. OTHER PROPERTY REMARKS_UNIT TEST *QTP*.
16923	0471	SUBJECT TO EXECUTION NUMBER 1 - 1 , IF APPLICABLE, AS IN TEST. OTHER PROPERTY REMARKS_UNIT TEST *QTP*.
16923	0472	SUBJECT TO EXECUTION NUMBER 1 - 1 , IF APPLICABLE, AS IN TEST. OTHER PROPERTY REMARKS_UNIT TEST *QTP*.
16923	0473	SUBJECT TO EXECUTION NUMBER 1 - 1 , IF APPLICABLE, AS IN TEST. OTHER PROPERTY REMARKS_UNIT TEST *QTP*.
16923	0474	SUBJECT TO SUBSECTION 44 (1) OF THE LAND TITLES ACT EXCEPT PARAGRAPH 11, PARAGRAPH 14, PROVINCIAL SUCCESSION DUTIES AND ESCHEATS OR FORFEITURE TO THE CROWN UP TO THE DATE OF CONVERSION AND EXCEPT PARAGRAPHS 3 AND 14 THEREAFTER.
16923	0475	SUBJECT TO SUBSECTION 44 (1) OF THE LAND TITLES ACT EXCEPT PARAGRAPH 11, PARAGRAPH 14, PROVINCIAL SUCCESSION DUTIES AND ESCHEATS OR FORFEITURE TO THE CROWN UP TO THE DATE OF CONVERSION AND EXCEPT PARAGRAPHS 3 AND 14 THEREAFTER.
16923	0476	SUBJECT TO SUBSECTION 44 (1) OF THE LAND TITLES ACT EXCEPT PARAGRAPH 11, PARAGRAPH 14, PROVINCIAL SUCCESSION DUTIES AND ESCHEATS OR FORFEITURE TO THE CROWN UP TO THE DATE OF CONVERSION AND EXCEPT PARAGRAPHS 3 AND 14 THEREAFTER.
16923	0477	SUBJECT TO SUBSECTION 44 (1) OF THE LAND TITLES ACT EXCEPT PARAGRAPH 11, PARAGRAPH 14, PROVINCIAL SUCCESSION DUTIES AND ESCHEATS OR FORFEITURE TO THE CROWN UP TO THE DATE OF CONVERSION AND EXCEPT PARAGRAPHS 3 AND 14 THEREAFTER.
16923	0478	SUBJECT TO SUBSECTION 44 (1) OF THE LAND TITLES ACT EXCEPT PARAGRAPH 11, PARAGRAPH 14, PROVINCIAL SUCCESSION DUTIES AND ESCHEATS OR FORFEITURE TO THE CROWN UP TO THE DATE OF CONVERSION AND EXCEPT PARAGRAPHS 3 AND 14 THEREAFTER.
16923	0479	SUBJECT TO EXECUTION NUMBER 1 - 1 , IF APPLICABLE, AS IN TEST. OTHER PROPERTY REMARKS_UNIT TEST *QTP*.
16923	0480	SUBJECT TO EXECUTION NUMBER 1 - 1 , IF APPLICABLE, AS IN TEST. OTHER PROPERTY REMARKS_UNIT TEST *QTP*.
16923	0481	SUBJECT TO EXECUTION NUMBER 1 - 1 , IF APPLICABLE, AS IN TEST. OTHER PROPERTY REMARKS_UNIT TEST *QTP*.
16923	0483	SUBJECT ON THE DATE OF REGISTRATION 97/02/03 TO SUBSECTION 44 (1) OF THE LAND TITLES ACT, EXCEPT PARAGRAPH 11, PARAGRAPH 14, PROVINCIAL SUCCESSION DUTIES AND ESCHEATS OR FORFEITURE TO THE CROWN, UP TO THE DATE OF CONVERSION AND EXCEPT PARAGRAPH 3 AND PARA
16923	0484	SUBJECT ON THE DATE OF REGISTRATION 97/02/03 TO SUBSECTION 44 (1) OF THE LAND TITLES ACT, EXCEPT PARAGRAPH 11, PARAGRAPH 14, PROVINCIAL SUCCESSION DUTIES AND ESCHEATS OR FORFEITURE TO THE CROWN, UP TO THE DATE OF CONVERSION AND EXCEPT PARAGRAPH 3 AND PARA
16923	0485	SUBJECT ON THE DATE OF REGISTRATION 97/02/03 TO SUBSECTION 44 (1) OF THE LAND TITLES ACT, EXCEPT PARAGRAPH 11, PARAGRAPH 14, PROVINCIAL SUCCESSION DUTIES AND ESCHEATS OR FORFEITURE TO THE CROWN, UP TO THE DATE OF CONVERSION AND EXCEPT PARAGRAPH 3 AND PARA
16923	0486	SUBJECT ON THE DATE OF REGISTRATION 97/02/03 TO SUBSECTION 44 (1) OF THE LAND TITLES ACT, EXCEPT PARAGRAPH 11, PARAGRAPH 14, PROVINCIAL SUCCESSION DUTIES AND ESCHEATS OR FORFEITURE TO THE CROWN, UP TO THE DATE OF CONVERSION AND EXCEPT PARAGRAPH 3 AND PARA
16923	0487	SUBJECT ON THE DATE OF REGISTRATION 97/02/03 TO SUBSECTION 44 (1) OF THE LAND TITLES ACT, EXCEPT PARAGRAPH 11, PARAGRAPH 14, PROVINCIAL SUCCESSION DUTIES AND ESCHEATS OR FORFEITURE TO THE CROWN, UP TO THE DATE OF CONVERSION AND EXCEPT PARAGRAPH 3 AND PARA
16923	0488	SUBJECT ON THE DATE OF REGISTRATION 97/02/03 TO SUBSECTION 44 (1) OF THE LAND TITLES ACT, EXCEPT PARAGRAPH 11, PARAGRAPH 14, PROVINCIAL SUCCESSION DUTIES AND ESCHEATS OR FORFEITURE TO THE CROWN, UP TO THE DATE OF CONVERSION AND EXCEPT PARAGRAPH 3 AND PARA
16923	0494	SUBJECT ON THE DATE OF REGISTRATION 97/02/03 TO SUBSECTION 44 (1) OF THE LAND TITLES ACT, EXCEPT PARAGRAPH 11, PARAGRAPH 14, PROVINCIAL SUCCESSION DUTIES AND ESCHEATS OR FORFEITURE TO THE CROWN, UP TO THE DATE OF CONVERSION AND EXCEPT PARAGRAPH 3 AND PARA
16923	0511	SUBJECT TO EXECUTION NUMBER 1 - 1 , IF APPLICABLE, AS IN TEST. OTHER PROPERTY REMARKS_UNIT TEST *QTP*.
16923	0513	SUBJECT TO EXECUTION NUMBER 1 - 1 , IF APPLICABLE, AS IN TEST. OTHER PROPERTY REMARKS_UNIT TEST *QTP*.
16923	0516	SUBJECT TO EXECUTION NUMBER 1 - 1 , IF APPLICABLE, AS IN TEST. OTHER PROPERTY REMARKS_UNIT TEST *QTP*.
16923	0517	SUBJECT TO EXECUTION NUMBER 1 - 1 , IF APPLICABLE, AS IN TEST. OTHER PROPERTY REMARKS_UNIT TEST *QTP*.
16923	0518	SUBJECT TO EXECUTION NUMBER 1 - 1 , IF APPLICABLE, AS IN TEST. OTHER PROPERTY REMARKS_UNIT TEST *QTP*.
16923	0519	SUBJECT TO EXECUTION NUMBER 1 - 1 , IF APPLICABLE, AS IN TEST. OTHER PROPERTY REMARKS_UNIT TEST *QTP*.
16923	0520	SUBJECT TO EXECUTION NUMBER 1 - 1 , IF APPLICABLE, AS IN TEST. OTHER PROPERTY REMARKS_UNIT TEST *QTP*.
16923	0522	SUBJECT TO EXECUTION NUMBER 1 - 1 , IF APPLICABLE, AS IN TEST. OTHER PROPERTY REMARKS_UNIT TEST *QTP*.
16923	0526	SUBJECT SUBSECTION 44(1) OF THE LAND TITLES ACT, EXCEPT PARAGRAPHS 3 & 14 AND PROVINCIAL SUCCESSION DUTIES AND EXCEPT PARAGRAPH 11 AND ESCHEATS AND FORFEITURE TO THE CROWN UP TO THE DATE OF REGISTRATION WITH AN ABSOLUTE TITLE.
16923	0530	SUBJECT SUBSECTION 44(1) OF THE LAND TITLES ACT, EXCEPT PARAGRAPHS 3 & 14 AND PROVINCIAL SUCCESSION DUTIES AND EXCEPT PARAGRAPH 11 AND ESCHEATS AND FORFEITURE TO THE CROWN UP TO THE DATE OF REGISTRATION WITH AN ABSOLUTE TITLE.
16923	0531	SUBJECT SUBSECTION 44(1) OF THE LAND TITLES ACT, EXCEPT PARAGRAPHS 3 & 14 AND PROVINCIAL SUCCESSION DUTIES AND EXCEPT PARAGRAPH 11 AND ESCHEATS AND FORFEITURE TO THE CROWN UP TO THE DATE OF REGISTRATION WITH AN ABSOLUTE TITLE.
16923	0532	SUBJECT SUBSECTION 44(1) OF THE LAND TITLES ACT, EXCEPT PARAGRAPHS 3 & 14 AND PROVINCIAL SUCCESSION DUTIES AND EXCEPT PARAGRAPH 11 AND ESCHEATS AND FORFEITURE TO THE CROWN UP TO THE DATE OF REGISTRATION WITH AN ABSOLUTE TITLE.
16923	0533	SUBJECT SUBSECTION 44(1) OF THE LAND TITLES ACT, EXCEPT PARAGRAPHS 3 & 14 AND PROVINCIAL SUCCESSION DUTIES AND EXCEPT PARAGRAPH 11 AND ESCHEATS AND FORFEITURE TO THE CROWN UP TO THE DATE OF REGISTRATION WITH AN ABSOLUTE TITLE.
16923	0534	SUBJECT SUBSECTION 44(1) OF THE LAND TITLES ACT, EXCEPT PARAGRAPHS 3 & 14 AND PROVINCIAL SUCCESSION DUTIES AND EXCEPT PARAGRAPH 11 AND ESCHEATS AND FORFEITURE TO THE CROWN UP TO THE DATE OF REGISTRATION WITH AN ABSOLUTE TITLE.
16923	0535	SUBJECT SUBSECTION 44(1) OF THE LAND TITLES ACT, EXCEPT PARAGRAPHS 3 & 14 AND PROVINCIAL SUCCESSION DUTIES AND EXCEPT PARAGRAPH 11 AND ESCHEATS AND FORFEITURE TO THE CROWN UP TO THE DATE OF REGISTRATION WITH AN ABSOLUTE TITLE.
16923	0536	SUBJECT SUBSECTION 44(1) OF THE LAND TITLES ACT, EXCEPT PARAGRAPHS 3 & 14 AND PROVINCIAL SUCCESSION DUTIES AND EXCEPT PARAGRAPH 11 AND ESCHEATS AND FORFEITURE TO THE CROWN UP TO THE DATE OF REGISTRATION WITH AN ABSOLUTE TITLE.
16923	0537	SUBJECT SUBSECTION 44(1) OF THE LAND TITLES ACT, EXCEPT PARAGRAPHS 3 & 14 AND PROVINCIAL SUCCESSION DUTIES AND EXCEPT PARAGRAPH 11 AND ESCHEATS AND FORFEITURE TO THE CROWN UP TO THE DATE OF REGISTRATION WITH AN ABSOLUTE TITLE.
16923	0538	SUBJECT SUBSECTION 44(1) OF THE LAND TITLES ACT, EXCEPT PARAGRAPHS 3 & 14 AND PROVINCIAL SUCCESSION DUTIES AND EXCEPT PARAGRAPH 11 AND ESCHEATS AND FORFEITURE TO THE CROWN UP TO THE DATE OF REGISTRATION WITH AN ABSOLUTE TITLE.
16923	0539	SUBJECT SUBSECTION 44(1) OF THE LAND TITLES ACT, EXCEPT PARAGRAPHS 3 & 14 AND PROVINCIAL SUCCESSION DUTIES AND EXCEPT PARAGRAPH 11 AND ESCHEATS AND FORFEITURE TO THE CROWN UP TO THE DATE OF REGISTRATION WITH AN ABSOLUTE TITLE.
16923	0540	SUBJECT SUBSECTION 44(1) OF THE LAND TITLES ACT, EXCEPT PARAGRAPHS 3 & 14 AND PROVINCIAL SUCCESSION DUTIES AND EXCEPT PARAGRAPH 11 AND ESCHEATS AND FORFEITURE TO THE CROWN UP TO THE DATE OF REGISTRATION WITH AN ABSOLUTE TITLE.
16923	0541	SUBJECT SUBSECTION 44(1) OF THE LAND TITLES ACT, EXCEPT PARAGRAPHS 3 & 14 AND PROVINCIAL SUCCESSION DUTIES AND EXCEPT PARAGRAPH 11 AND ESCHEATS AND FORFEITURE TO THE CROWN UP TO THE DATE OF REGISTRATION WITH AN ABSOLUTE TITLE.
16923	0542	SUBJECT SUBSECTION 44(1) OF THE LAND TITLES ACT, EXCEPT PARAGRAPHS 3 & 14 AND PROVINCIAL SUCCESSION DUTIES AND EXCEPT PARAGRAPH 11 AND ESCHEATS AND FORFEITURE TO THE CROWN UP TO THE DATE OF REGISTRATION WITH AN ABSOLUTE TITLE.
16923	0543	SUBJECT SUBSECTION 44(1) OF THE LAND TITLES ACT, EXCEPT PARAGRAPHS 3 & 14 AND PROVINCIAL SUCCESSION DUTIES AND EXCEPT PARAGRAPH 11 AND ESCHEATS AND FORFEITURE TO THE CROWN UP TO THE DATE OF REGISTRATION WITH AN ABSOLUTE TITLE.
16923	0544	SUBJECT SUBSECTION 44(1) OF THE LAND TITLES ACT, EXCEPT PARAGRAPHS 3 & 14 AND PROVINCIAL SUCCESSION DUTIES AND EXCEPT PARAGRAPH 11 AND ESCHEATS AND FORFEITURE TO THE CROWN UP TO THE DATE OF REGISTRATION WITH AN ABSOLUTE TITLE.
16923	0545	SUBJECT SUBSECTION 44(1) OF THE LAND TITLES ACT, EXCEPT PARAGRAPHS 3 & 14 AND PROVINCIAL SUCCESSION DUTIES AND EXCEPT PARAGRAPH 11 AND ESCHEATS AND FORFEITURE TO THE CROWN UP TO THE DATE OF REGISTRATION WITH AN ABSOLUTE TITLE.
16923	0546	SUBJECT SUBSECTION 44(1) OF THE LAND TITLES ACT, EXCEPT PARAGRAPHS 3 & 14 AND PROVINCIAL SUCCESSION DUTIES AND EXCEPT PARAGRAPH 11 AND ESCHEATS AND FORFEITURE TO THE CROWN UP TO THE DATE OF REGISTRATION WITH AN ABSOLUTE TITLE.
16923	0547	SUBJECT SUBSECTION 44(1) OF THE LAND TITLES ACT, EXCEPT PARAGRAPHS 3 & 14 AND PROVINCIAL SUCCESSION DUTIES AND EXCEPT PARAGRAPH 11 AND ESCHEATS AND FORFEITURE TO THE CROWN UP TO THE DATE OF REGISTRATION WITH AN ABSOLUTE TITLE.
16923	0548	SUBJECT SUBSECTION 44(1) OF THE LAND TITLES ACT, EXCEPT PARAGRAPHS 3 & 14 AND PROVINCIAL SUCCESSION DUTIES AND EXCEPT PARAGRAPH 11 AND ESCHEATS AND FORFEITURE TO THE CROWN UP TO THE DATE OF REGISTRATION WITH AN ABSOLUTE TITLE.
16923	0549	SUBJECT SUBSECTION 44(1) OF THE LAND TITLES ACT, EXCEPT PARAGRAPHS 3 & 14 AND PROVINCIAL SUCCESSION DUTIES AND EXCEPT PARAGRAPH 11 AND ESCHEATS AND FORFEITURE TO THE CROWN UP TO THE DATE OF REGISTRATION WITH AN ABSOLUTE TITLE.
16923	0550	SUBJECT SUBSECTION 44(1) OF THE LAND TITLES ACT, EXCEPT PARAGRAPHS 3 & 14 AND PROVINCIAL SUCCESSION DUTIES AND EXCEPT PARAGRAPH 11 AND ESCHEATS AND FORFEITURE TO THE CROWN UP TO THE DATE OF REGISTRATION WITH AN ABSOLUTE TITLE.
16923	0551	SUBJECT SUBSECTION 44(1) OF THE LAND TITLES ACT, EXCEPT PARAGRAPHS 3 & 14 AND PROVINCIAL SUCCESSION DUTIES AND EXCEPT PARAGRAPH 11 AND ESCHEATS AND FORFEITURE TO THE CROWN UP TO THE DATE OF REGISTRATION WITH AN ABSOLUTE TITLE.
16923	0552	SUBJECT SUBSECTION 44(1) OF THE LAND TITLES ACT, EXCEPT PARAGRAPHS 3 & 14 AND PROVINCIAL SUCCESSION DUTIES AND EXCEPT PARAGRAPH 11 AND ESCHEATS AND FORFEITURE TO THE CROWN UP TO THE DATE OF REGISTRATION WITH AN ABSOLUTE TITLE.
16923	0553	SUBJECT SUBSECTION 44(1) OF THE LAND TITLES ACT, EXCEPT PARAGRAPHS 3 & 14 AND PROVINCIAL SUCCESSION DUTIES AND EXCEPT PARAGRAPH 11 AND ESCHEATS AND FORFEITURE TO THE CROWN UP TO THE DATE OF REGISTRATION WITH AN ABSOLUTE TITLE.
16923	0554	SUBJECT SUBSECTION 44(1) OF THE LAND TITLES ACT, EXCEPT PARAGRAPHS 3 & 14 AND PROVINCIAL SUCCESSION DUTIES AND EXCEPT PARAGRAPH 11 AND ESCHEATS AND FORFEITURE TO THE CROWN UP TO THE DATE OF REGISTRATION WITH AN ABSOLUTE TITLE.
16923	0555	SUBJECT SUBSECTION 44(1) OF THE LAND TITLES ACT, EXCEPT PARAGRAPHS 3 & 14 AND PROVINCIAL SUCCESSION DUTIES AND EXCEPT PARAGRAPH 11 AND ESCHEATS AND FORFEITURE TO THE CROWN UP TO THE DATE OF REGISTRATION WITH AN ABSOLUTE TITLE.
16923	0556	SUBJECT SUBSECTION 44(1) OF THE LAND TITLES ACT, EXCEPT PARAGRAPHS 3 & 14 AND PROVINCIAL SUCCESSION DUTIES AND EXCEPT PARAGRAPH 11 AND ESCHEATS AND FORFEITURE TO THE CROWN UP TO THE DATE OF REGISTRATION WITH AN ABSOLUTE TITLE.
16923	0557	SUBJECT SUBSECTION 44(1) OF THE LAND TITLES ACT, EXCEPT PARAGRAPHS 3 & 14 AND PROVINCIAL SUCCESSION DUTIES AND EXCEPT PARAGRAPH 11 AND ESCHEATS AND FORFEITURE TO THE CROWN UP TO THE DATE OF REGISTRATION WITH AN ABSOLUTE TITLE.
16923	0558	SUBJECT SUBSECTION 44(1) OF THE LAND TITLES ACT, EXCEPT PARAGRAPHS 3 & 14 AND PROVINCIAL SUCCESSION DUTIES AND EXCEPT PARAGRAPH 11 AND ESCHEATS AND FORFEITURE TO THE CROWN UP TO THE DATE OF REGISTRATION WITH AN ABSOLUTE TITLE.
16923	0559	SUBJECT SUBSECTION 44(1) OF THE LAND TITLES ACT, EXCEPT PARAGRAPHS 3 & 14 AND PROVINCIAL SUCCESSION DUTIES AND EXCEPT PARAGRAPH 11 AND ESCHEATS AND FORFEITURE TO THE CROWN UP TO THE DATE OF REGISTRATION WITH AN ABSOLUTE TITLE.
16923	0588	SUBJECT TO SUBSECTION 44(1) OF THE LAND TITLES ACT EXCEPT PARAGRAPHS 3 AND 14 AND PROVINCIAL SUCCESSION DUTIES AND EXCEPT PARAGRAPH 11 AND ESCHEATS OR FORFEITURE TO THE CROWN UP TO THE DATE OF REGISTRATION WITH AN ABSOLUTE TITLE.
16923	0589	SUBJECT TO SUBSECTION 44(1) OF THE LAND TITLES ACT EXCEPT PARAGRAPHS 3 AND 14 AND PROVINCIAL SUCCESSION DUTIES AND EXCEPT PARAGRAPH 11 AND ESCHEATS OR FORFEITURE TO THE CROWN UP TO THE DATE OF REGISTRATION WITH AN ABSOLUTE TITLE.
16923	0590	SUBJECT TO SUBSECTION 44(1) OF THE LAND TITLES ACT EXCEPT PARAGRAPHS 3 AND 14 AND PROVINCIAL SUCCESSION DUTIES AND EXCEPT PARAGRAPH 11 AND ESCHEATS OR FORFEITURE TO THE CROWN UP TO THE DATE OF REGISTRATION WITH AN ABSOLUTE TITLE.
16923	0591	SUBJECT TO SUBSECTION 44(1) OF THE LAND TITLES ACT EXCEPT PARAGRAPHS 3 AND 14 AND PROVINCIAL SUCCESSION DUTIES AND EXCEPT PARAGRAPH 11 AND ESCHEATS OR FORFEITURE TO THE CROWN UP TO THE DATE OF REGISTRATION WITH AN ABSOLUTE TITLE.
16923	0592	SUBJECT TO SUBSECTION 44(1) OF THE LAND TITLES ACT EXCEPT PARAGRAPHS 3 AND 14 AND PROVINCIAL SUCCESSION DUTIES AND EXCEPT PARAGRAPH 11 AND ESCHEATS OR FORFEITURE TO THE CROWN UP TO THE DATE OF REGISTRATION WITH AN ABSOLUTE TITLE.
16923	0593	SUBJECT TO SUBSECTION 44(1) OF THE LAND TITLES ACT EXCEPT PARAGRAPHS 3 AND 14 AND PROVINCIAL SUCCESSION DUTIES AND EXCEPT PARAGRAPH 11 AND ESCHEATS OR FORFEITURE TO THE CROWN UP TO THE DATE OF REGISTRATION WITH AN ABSOLUTE TITLE.
16923	0596	SUBJECT TO SUBSECTION 44(1) OF THE LAND TITLES ACT EXCEPT PARAGRAPHS 3 AND 14 AND PROVINCIAL SUCCESSION DUTIES AND EXCEPT PARAGRAPH 11 AND ESCHEATS OR FORFEITURE TO THE CROWN UP TO THE DATE OF REGISTRATION WITH AN ABSOLUTE TITLE.
16923	0600	SUBJECT TO SUBSECTION 44(1) OF THE LAND TITLES ACT EXCEPT PARAGRAPHS 3 AND 14 AND PROVINCIAL SUCCESSION DUTIES AND EXCEPT PARAGRAPH 11 AND ESCHEATS OR FORFEITURE TO THE CROWN UP TO THE DATE OF RGISTRATION WITH AN ABSOLUTE TITLE.
16923	0605	PLANNING ACT CONSENT ON WE164587.
16923	0610	PLANNING ACT CONSENT ON WE164588.
16923	0612	PLANNING ACT CONSENT ON WE177606.
16923	0613	PLANNING ACT CONSENT OBTAINED IN WE164586 & WE191847. THE FOLLOWING REMARK HAS BEEN ADDED ON 2003/11/13 AT 16:03 BY HELEN MACMILLAN : PLANNING ACT CONSENT AS IN WE164586, 2003/06/04.
16923	0616	"FOR THE PURPOSE OF THE QUALIFIER THE DATE OF REGISTRATION OF ABSOLUTE TITLE IS 2004/10/19".
16923	0617	"FOR THE PURPOSE OF THE QUALIFIER THE DATE OF REGISTRATION OF ABSOLUTE TITLE IS 2004/10/19".
16923	0618	"FOR THE PURPOSE OF THE QUALIFIER THE DATE OF REGISTRATION OF ABSOLUTE TITLE IS 2004/10/19".
16923	0619	"FOR THE PURPOSE OF THE QUALIFIER THE DATE OF REGISTRATION OF ABSOLUTE TITLE IS 2004/10/19".
16923	0620	"FOR THE PURPOSE OF THE QUALIFIER THE DATE OF REGISTRATION OF ABSOLUTE TITLE IS 2004/10/19".
16923	0621	"FOR THE PURPOSE OF THE QUALIFIER THE DATE OF REGISTRATION OF ABSOLUTE TITLE IS 2004/10/19".
16923	0622	"FOR THE PURPOSE OF THE QUALIFIER THE DATE OF REGISTRATION OF ABSOLUTE TITLE IS 2004/10/19".
16923	0623	"FOR THE PURPOSE OF THE QUALIFIER THE DATE OF REGISTRATION OF ABSOLUTE TITLE IS 2004/10/19".
16923	0624	"FOR THE PURPOSE OF THE QUALIFIER THE DATE OF REGISTRATION OF ABSOLUTE TITLE IS 2004/10/19".
16923	0625	"FOR THE PURPOSE OF THE QUALIFIER THE DATE OF REGISTRATION OF ABSOLUTE TITLE IS 2004/10/19".
16923	0626	"FOR THE PURPOSE OF THE QUALIFIER THE DATE OF REGISTRATION OF ABSOLUTE TITLE IS 2004/10/19".
16923	0627	"FOR THE PURPOSE OF THE QUALIFIER THE DATE OF REGISTRATION OF ABSOLUTE TITLE IS 2004/10/19".
16923	0628	"FOR THE PURPOSE OF THE QUALIFIER THE DATE OF REGISTRATION OF ABSOLUTE TITLE IS 2004/10/19".
16923	0629	"FOR THE PURPOSE OF THE QUALIFIER THE DATE OF REGISTRATION OF ABSOLUTE TITLE IS 2004/10/19".
16923	0630	"FOR THE PURPOSE OF THE QUALIFIER THE DATE OF REGISTRATION OF ABSOLUTE TITLE IS 2004/10/19".
16923	0631	"FOR THE PURPOSE OF THE QUALIFIER THE DATE OF REGISTRATION OF ABSOLUTE TITLE IS 2004/10/19".
16923	0632	"FOR THE PURPOSE OF THE QUALIFIER THE DATE OF REGISTRATION OF ABSOLUTE TITLE IS 2004/10/19".
16923	0633	"FOR THE PURPOSE OF THE QUALIFIER THE DATE OF REGISTRATION OF ABSOLUTE TITLE IS 2004/10/19".
16923	0634	"FOR THE PURPOSE OF THE QUALIFIER THE DATE OF REGISTRATION OF ABSOLUTE TITLE IS 2004/10/19".
16923	0637	"FOR THE PURPOSE OF THE QUALIFIER THE DATE OF REGISTRATION OF ABSOLUTE TITLE IS 2004/10/19".
16923	0638	"FOR THE PURPOSE OF THE QUALIFIER THE DATE OF REGISTRATION OF ABSOLUTE TITLE IS 2004/10/19".
16923	0639	"FOR THE PURPOSE OF THE QUALIFIER THE DATE OF REGISTRATION OF ABSOLUTE TITLE IS 2004/10/19".
16923	0640	"FOR THE PURPOSE OF THE QUALIFIER THE DATE OF REGISTRATION OF ABSOLUTE TITLE IS 2004/10/19".
16923	0641	"FOR THE PURPOSE OF THE QUALIFIER THE DATE OF REGISTRATION OF ABSOLUTE TITLE IS 2004/10/19".
16923	0642	"FOR THE PURPOSE OF THE QUALIFIER THE DATE OF REGISTRATION OF ABSOLUTE TITLE IS 2004/10/19".
16923	0643	"FOR THE PURPOSE OF THE QUALIFIER THE DATE OF REGISTRATION OF ABSOLUTE TITLE IS 2004/10/19".
16923	0644	"FOR THE PURPOSE OF THE QUALIFIER THE DATE OF REGISTRATION OF ABSOLUTE TITLE IS 2004/10/19".
16923	0645	"FOR THE PURPOSE OF THE QUALIFIER THE DATE OF REGISTRATION OF ABSOLUTE TITLE IS 2004/10/19".
16923	0646	"FOR THE PURPOSE OF THE QUALIFIER THE DATE OF REGISTRATION OF ABSOLUTE TITLE IS 2004/10/19".
16923	0647	"FOR THE PURPOSE OF THE QUALIFIER THE DATE OF REGISTRATION OF ABSOLUTE TITLE IS 2004/10/19".
16923	0648	"FOR THE PURPOSE OF THE QUALIFIER THE DATE OF REGISTRATION OF ABSOLUTE TITLE IS 2004/10/19".
16923	0649	"FOR THE PURPOSE OF THE QUALIFIER THE DATE OF REGISTRATION OF ABSOLUTE TITLE IS 2004/10/19".
16923	0650	"FOR THE PURPOSE OF THE QUALIFIER THE DATE OF REGISTRATION OF ABSOLUTE TITLE IS 2004/10/19".
16923	0651	"FOR THE PURPOSE OF THE QUALIFIER THE DATE OF REGISTRATION OF ABSOLUTE TITLE IS 2004/10/19".
16923	0652	"FOR THE PURPOSE OF THE QUALIFIER THE DATE OF REGISTRATION OF ABSOLUTE TITLE IS 2004/10/19".
16923	0653	"FOR THE PURPOSE OF THE QUALIFIER THE DATE OF REGISTRATION OF ABSOLUTE TITLE IS 2004/10/19".
16923	0654	"FOR THE PURPOSE OF THE QUALIFIER THE DATE OF REGISTRATION OF ABSOLUTE TITLE IS 2004/10/19".
16923	0655	"FOR THE PURPOSE OF THE QUALIFIER THE DATE OF REGISTRATION OF ABSOLUTE TITLE IS 2004/10/19".
16923	0656	"FOR THE PURPOSE OF THE QUALIFIER THE DATE OF REGISTRATION OF ABSOLUTE TITLE IS 2004/10/19".
16923	0657	"FOR THE PURPOSE OF THE QUALIFIER THE DATE OF REGISTRATION OF ABSOLUTE TITLE IS 2004/10/19".
16923	0658	"FOR THE PURPOSE OF THE QUALIFIER THE DATE OF REGISTRATION OF ABSOLUTE TITLE IS 2004/10/19".
16923	0659	"FOR THE PURPOSE OF THE QUALIFIER THE DATE OF REGISTRATION OF ABSOLUTE TITLE IS 2004/10/19".
16923	0660	"FOR THE PURPOSE OF THE QUALIFIER THE DATE OF REGISTRATION OF ABSOLUTE TITLE IS 2004/10/19".
16923	0661	"FOR THE PURPOSE OF THE QUALIFIER THE DATE OF REGISTRATION OF ABSOLUTE TITLE IS 2004/10/19".
16923	0662	"FOR THE PURPOSE OF THE QUALIFIER THE DATE OF REGISTRATION OF ABSOLUTE TITLE IS 2004/10/19".
16923	0663	"FOR THE PURPOSE OF THE QUALIFIER THE DATE OF REGISTRATION OF ABSOLUTE TITLE IS 2004/10/19".
16923	0664	"FOR THE PURPOSE OF THE QUALIFIER THE DATE OF REGISTRATION OF ABSOLUTE TITLE IS 2004/10/19".
16923	0665	"FOR THE PURPOSE OF THE QUALIFIER THE DATE OF REGISTRATION OF ABSOLUTE TITLE IS 2004/10/19".
16923	0666	"FOR THE PURPOSE OF THE QUALIFIER THE DATE OF REGISTRATION OF ABSOLUTE TITLE IS 2004/10/19".
16923	0667	"FOR THE PURPOSE OF THE QUALIFIER THE DATE OF REGISTRATION OF ABSOLUTE TITLE IS 2004/10/19".
16923	0668	"FOR THE PURPOSE OF THE QUALIFIER THE DATE OF REGISTRATION OF ABSOLUTE TITLE IS 2004/10/19".
16923	0669	"FOR THE PURPOSE OF THE QUALIFIER THE DATE OF REGISTRATION OF ABSOLUTE TITLE IS 2004/10/19".
16923	0670	"FOR THE PURPOSE OF THE QUALIFIER THE DATE OF REGISTRATION OF ABSOLUTE TITLE IS 2004/10/19".
16923	0671	"FOR THE PURPOSE OF THE QUALIFIER THE DATE OF REGISTRATION OF ABSOLUTE TITLE IS 2004/10/19".
16923	0672	"FOR THE PURPOSE OF THE QUALIFIER THE DATE OF REGISTRATION OF ABSOLUTE TITLE IS 2004/10/19".
16923	0673	"FOR THE PURPOSE OF THE QUALIFIER THE DATE OF REGISTRATION OF ABSOLUTE TITLE IS 2004/10/19".
16923	0674	"FOR THE PURPOSE OF THE QUALIFIER THE DATE OF REGISTRATION OF ABSOLUTE TITLE IS 2004/10/19".
16924	0002	CONSENT LAND DIVIVISION COMMITTEE LT218390.
16924	0031	LT200032 CONSENT-LAND DIVISION COMMITTEE.
16924	0172	CONSENT LAND DIVISION COMMITTEE LT218390.
16924	0173	CONSENT LAND DIVISION COMMITTEE LT218391.
16925	0229	CORRECTION: INSTRUMENT NUMBER AB337090 WAS OMITTED FROM THIS PROPERTY IN ERROR AND WAS ADDED AND CERTIFIED ON 1999/06/18 BY PETER GAIGAL.
16926	0176	OMITTED IN FIRST CONVERSION.
16927	0076	LT221026 - CONSENT LAND DIVISION COMMITTEE.
16927	0163	CORRECTION: INSTRUMENT NUMBER BR36823 WAS OMITTED FROM THIS PROPERTY IN ERROR AND WAS ADDED AND CERTIFIED ON 1997/09/17 BY ERIC CANNON.
16927	0188	"FOR THE PURPOSE OF THE QUALIFIER THE DATE OF REGISTRATION OF ABSOLUTE TITLE IS 2003/07/09.".
16927	0190	"FOR THE PURPOSE OF THE QUALIFIER THE DATE OF REGISTRATION OF ABSOLUTE TITLE IS 2003/07/09".
16927	0191	"FOR THE PURPOSE OF THE QUALIFIER THE DATE OF REGISTRATION OF ABSOLUTE TITLE IS 2003/07/09".
16927	0192	"FOR THE PURPOSE OF THE QUALIFIER THE DATE OF REGISTRATION OF ABSOLUTE TITLE IS 2003/07/09".
16927	0193	"FOR THE PURPOSE OF THE QUALIFIER THE DATE OF REGISTRATION OF ABSOLUTE TITLE IS 2003/07/09".
16927	0194	"FOR THE PURPOSE OF THE QUALIFIER THE DATE OF REGISTRATION OF ABSOLUTE TITLE IS 2003/07/09".
16927	0195	"FOR THE PURPOSE OF THE QUALIFIER THE DATE OF REGISTRATION OF ABSOLUTE TITLE IS 2003/07/09".
16927	0196	"FOR THE PURPOSE OF THE QUALIFIER THE DATE OF REGISTRATION OF ABSOLUTE TITLE IS 2003/07/09".
16927	0197	"FOR THE PURPOSE OF THE QUALIFIER THE DATE OF REGISTRATION OF ABSOLUTE TITLE IS 2003/07/09".
16927	0198	"FOR THE PURPOSE OF THE QUALIFIER THE DATE OF REGISTRATION OF ABSOLUTE TITLE IS 2003/07/09".
16927	0199	"FOR THE PURPOSE OF THE QUALIFIER THE DATE OF REGISTRATION OF ABSOLUTE TITLE IS 2003/07/09".
16927	0200	"FOR THE PURPOSE OF THE QUALIFIER THE DATE OF REGISTRATION OF ABSOLUTE TITLE IS 2003/07/09".
16927	0201	"FOR THE PURPOSE OF THE QUALIFIER THE DATE OF REGISTRATION OF ABSOLUTE TITLE IS 2003/07/09".
16927	0202	"FOR THE PURPOSE OF THE QUALIFIER THE DATE OF REGISTRATION OF ABSOLUTE TITLE IS 2003/07/09".
16927	0203	"FOR THE PURPOSE OF THE QUALIFIER THE DATE OF REGISTRATION OF ABSOLUTE TITLE IS 2003/07/09".
16927	0204	"FOR THE PURPOSE OF THE QUALIFIER THE DATE OF REGISTRATION OF ABSOLUTE TITLE IS 2003/07/09".
16927	0205	"FOR THE PURPOSE OF THE QUALIFIER THE DATE OF REGISTRATION OF ABSOLUTE TITLE IS 2003/07/09".
16927	0206	"FOR THE PURPOSE OF THE QUALIFIER THE DATE OF REGISTRATION OF ABSOLUTE TITLE IS 2003/07/09".
16927	0207	"FOR THE PURPOSE OF THE QUALIFIER THE DATE OF REGISTRATION OF ABSOLUTE TITLE IS 2003/07/09".
16927	0208	"FOR THE PURPOSE OF THE QUALIFIER THE DATE OF REGISTRATION OF ABSOLUTE TITLE IS 2003/07/09".
16927	0209	"FOR THE PURPOSE OF THE QUALIFIER THE DATE OF REGISTRATION OF ABSOLUTE TITLE IS 2003/07/09".
16927	0210	"FOR THE PURPOSE OF THE QUALIFIER THE DATE OF REGISTRATION OF ABSOLUTE TITLE IS 2003/07/09".
16927	0211	"FOR THE PURPOSE OF THE QUALIFIER THE DATE OF REGISTRATION OF ABSOLUTE TITLE IS 2003/07/09".
16928	0265	OMITTED FROM FIRST CONVERSION.
16929	0016	THE FOLLOWING REMARK HAS BEEN ADDED ON 1999/03/01 AT 12:09 BY BELLE FIAMELLI : AMENDED 99 03 01, I. FIAMELLI.
16929	0025	THE FOLLOWING REMARK HAS BEEN ADDED ON 2002/06/11 AT 13:09 BY ANNE MARIE BERTRAND : PIN SHOULD HAVE BEEN CLOSED ON MAY 5, 2000 UPON REGISTRATION OF LT600131.
16937	0079	CORRECTION: INSTRUMENT NUMBER LT459268 WAS ENTERED IN ERROR AGAINST THIS PROPERTY AND WAS REMOVED AND CERTIFIED ON 1999/06/29 BY DEBBIE SARKANY.
16937	0095	CORRECTION: INSTRUMENT NUMBER LT459268 WAS OMITTED FROM THIS PROPERTY IN ERROR AND WAS ADDED AND CERTIFIED ON 1999/06/29 BY DEBBIE SARKANY.
16938	0121	CONSENT LAND DIVISION COMMITTEE IN LT230963.
16938	0122	CONSENT LAND DIVISION COMMITTEE IN LT235566.
16940	0015	CORRECTION: INSTRUMENT NUMBER 62R8022 WAS OMITTED FROM THIS PROPERTY IN ERROR AND WAS ADDED AND CERTIFIED ON 1996/07/25 BY DORRIE MORLEY.
16942	0027	LT185179 CONSENT LAND DIVISION COMMITTEE.
16942	0036	LT186907 CONSENT LAND DIVISION COMMITTEE.
16942	0076	LT213474 CONSENT OF LAND DIVISION COMMITTEE.
16942	0078	LT213473 CONSENT OF LAND DIVISION COMMITTEE.
16942	0125	LT233653 CONSENT LAND DIVISION COMMITTEE.
16942	0132	LT209855 CONSENT OF LAND DIVISION COMMITTEE.
16942	0149	LT214078 CONSENT LAND DIVISION COMMITTEE.
16942	0277	CORRECTION: INSTRUMENT NUMBER CD66870 WAS OMITTED FROM THIS PROPERTY IN ERROR AND WAS ADDED AND CERTIFIED ON 2001/01/24 BY MARLENE HUNTER.
16942	0308	ON 1997/03/11 AT 09:19 THE ESTATE/QUALIFIER WERE CHANGED TO FEE SIMPLE ABSOLUTE FROM FEE SIMPLE LT CONVERSION QUALIFIED BY MARLENE NICHOLLS . CORRECTION: INSTRUMENT NUMBER LT465101 WAS OMITTED FROM THIS PROPERTY IN ERROR AND WAS ADDED AND CERTIFIED ON 199
16942	0412	CORRECTION: INSTRUMENT NUMBER 62R12237 WAS OMITTED FROM THIS PROPERTY IN ERROR AND WAS ADDED AND CERTIFIED ON 1998/05/06 BY BELLE FIAMELLI.
16942	0413	CORRECTION: INSTRUMENT NUMBER 62R12237 WAS OMITTED FROM THIS PROPERTY IN ERROR AND WAS ADDED AND CERTIFIED ON 1998/05/06 BY BELLE FIAMELLI.
16942	0426	CORRECTION: INSTRUMENT NUMBER LT525077 WAS ENTERED IN ERROR AGAINST THIS PROPERTY AND WAS REMOVED AND CERTIFIED ON 1998/10/15 BY PETER GAIGAL.
16942	0428	CORRECTION: INSTRUMENT NUMBER LT525077 WAS OMITTED FROM THIS PROPERTY IN ERROR AND WAS ADDED AND CERTIFIED ON 1998/10/15 BY PETER GAIGAL.
16942	0457	THE FOLLOWING REMARK HAS BEEN ADDED ON 2000/07/17 AT 16:49 BY LYN WEAVER : S/T RT OF WAY TO ENTER PURPOSE OF EFFECTING ANY CORRECTIVE MEASURES FROM 2000 06 23 IN LT606728.
16943	0156	CORRECTION: INSTRUMENT NUMBER LT384070 WAS OMITTED FROM THIS PROPERTY IN ERROR AND WAS ADDED AND CERTIFIED ON 1995/07/19 BY MARLENE HUNTER.
16943	0526	COMMITTEE OF ADJUSTMENT CONSENT IN VM262545.
16943	0631	COMMITTEE OF ADJUSTMENT CONSENT IN WE371963.
16943	0644	PLANNING ACT CONSENT ON VM268606.
16944	0123	SUBJECT TO SUBSECTION 44(1) OF THE LAND TITLES ACT, EXCEPT PARAGRAPH 11, PARAGRAPH 14, PROVINCIAL SUCCESSION DUTIES AND ESCHEATS OF FORFEITURE TO THE CROWN, UP TO THE DATE OF CONVERSION, AND EXCEPT PARAGRAPH 3 AND PARAGRAPH 14 THEREAFTER.
16944	0124	SUBJECT TO DEBTS OF PRE-POP1 , IF ANY, AS IN T183PREPOP. SUBJECT TO SPOUSAL RIGHTS OF THE SPOUSE OF PRE-POP2 , IF ANY, AS IN T183PREPOP. SUBJECT TO SUBSECTION 44(1) OF THE LAND TITLES ACT, EXCEPT PARAGRAPH 11, PARAGRAPH 14, PROVINCIAL SUCCESSION DUTIES AN
16944	0137	SUBJECT TO SUBSECTION 44(1) OF THE LAND TITLES ACT, EXCEPT PARAGRAPH 11, PARAGRAPH 14, PROVINCIAL SUCCESSION DUTIES AND ESCHEATS OF FORFEITURE TO THE CROWN, UP TO THE DATE OF CONVERSION, AND EXCEPT PARAGRAPH 3 AND PARAGRAPH 14 THEREAFTER.
16944	0139	SUBJECT TO SUBSECTION 44(1) OF THE LAND TITLES ACT, EXCEPT PARAGRAPH 11, PARAGRAPH 14, PROVINCIAL SUCCESSION DUTIES AND ESCHEATS OF FORFEITURE TO THE CROWN, UP TO THE DATE OF CONVERSION, AND EXCEPT PARAGRAPH 3 AND PARAGRAPH 14 THEREAFTER.
16944	0150	SUBJECT TO SUBSECTION 44(1) OF THE LAND TITLES ACT, EXCEPT PARAGRAPH 11, PARAGRAPH 14, PROVINCIAL SUCCESSION DUTIES AND ESCHEATS OF FORFEITURE TO THE CROWN, UP TO THE DATE OF CONVERSION, AND EXCEPT PARAGRAPH 3 AND PARAGRAPH 14 THEREAFTER.
16944	0151	SUBJECT TO SUBSECTION 44(1) OF THE LAND TITLES ACT, EXCEPT PARAGRAPH 11, PARAGRAPH 14, PROVINCIAL SUCCESSION DUTIES AND ESCHEATS OF FORFEITURE TO THE CROWN, UP TO THE DATE OF CONVERSION, AND EXCEPT PARAGRAPH 3 AND PARAGRAPH 14 THEREAFTER.
16944	0170	SUBJECT TO SUBSECTION 44(1) OF THE LAND TITLES ACT, EXCEPT PARAGRAPHS 11 & 14, PROVINCIAL SUCCESSION DUTIES AND ESCHEATS OR FORFEITURE TO THE CROWN, UP TO THE DATE OF CONVERSION AND EXCEPT PARAGRAPHS 3 & 14 THEREAFTER. CORRECTION: INSTRUMENT NUMBER 62BA27
16944	0171	SUBJECT TO SUBSECTION 44(1) OF THE LAND TITLES ACT, EXCEPT PARAGRAPHS 11 & 14, PROVINCIAL SUCCESSION DUTIES AND ESCHEATS OR FORFEITURE TO THE CROWN, UP TO THE DATE OF CONVERSION AND EXCEPT PARAGRAPHS 3 & 14 THEREAFTER. CORRECTION: INSTRUMENT NUMBER 62BA27
16944	0172	SUBJECT TO SUBSECTION 44(1) OF THE LAND TITLES ACT, EXCEPT PARAGRAPHS 11 & 14, PROVINCIAL SUCCESSION DUTIES AND ESCHEATS OR FORFEITURE TO THE CROWN, UP TO THE DATE OF CONVERSION AND EXCEPT PARAGRAPHS 3 & 14 THEREAFTER. CORRECTION: INSTRUMENT NUMBER 62BA27
16944	0173	SUBJECT TO SUBSECTION 44(1) OF THE LAND TITLES ACT, EXCEPT PARAGRAPHS 11 & 14, PROVINCIAL SUCCESSION DUTIES AND ESCHEATS OR FORFEITURE TO THE CROWN, UP TO THE DATE OF CONVERSION AND EXCEPT PARAGRAPHS 3 & 14 THEREAFTER. CORRECTION: INSTRUMENT NUMBER 62BA27
16944	0174	SUBJECT TO SUBSECTION 44(1) OF THE LAND TITLES ACT, EXCEPT PARAGRAPHS 11 & 14, PROVINCIAL SUCCESSION DUTIES AND ESCHEATS OR FORFEITURE TO THE CROWN, UP TO THE DATE OF CONVERSION AND EXCEPT PARAGRAPHS 3 & 14 THEREAFTER. CORRECTION: INSTRUMENT NUMBER LT5565
16944	0175	SUBJECT TO SUBSECTION 44(1) OF THE LAND TITLES ACT, EXCEPT PARAGRAPHS 11 & 14, PROVINCIAL SUCCESSION DUTIES AND ESCHEATS OR FORFEITURE TO THE CROWN, UP TO THE DATE OF CONVERSION AND EXCEPT PARAGRAPHS 3 & 14 THEREAFTER. CORRECTION: INSTRUMENT NUMBER LT5565
16944	0176	SUBJECT TO SUBSECTION 44(1) OF THE LAND TITLES ACT, EXCEPT PARAGRAPHS 11 & 14, PROVINCIAL SUCCESSION DUTIES AND ESCHEATS OR FORFEITURE TO THE CROWN, UP TO THE DATE OF CONVERSION AND EXCEPT PARAGRAPHS 3 & 14 THEREAFTER. CORRECTION: INSTRUMENT NUMBER LT5565
16944	0177	SUBJECT TO SUBSECTION 44(1) OF THE LAND TITLES ACT, EXCEPT PARAGRAPHS 11 & 14, PROVINCIAL SUCCESSION DUTIES AND ESCHEATS OR FORFEITURE TO THE CROWN, UP TO THE DATE OF CONVERSION AND EXCEPT PARAGRAPHS 3 & 14 THEREAFTER. CORRECTION: INSTRUMENT NUMBER LT5565
16944	0178	SUBJECT TO SUBSECTION 44(1) OF THE LAND TITLES ACT, EXCEPT PARAGRAPHS 11 & 14, PROVINCIAL SUCCESSION DUTIES AND ESCHEATS OR FORFEITURE TO THE CROWN, UP TO THE DATE OF CONVERSION AND EXCEPT PARAGRAPHS 3 & 14 THEREAFTER. CORRECTION: INSTRUMENT NUMBER LT5565
16944	0179	SUBJECT TO SUBSECTION 44(1) OF THE LAND TITLES ACT, EXCEPT PARAGRAPHS 11 & 14, PROVINCIAL SUCCESSION DUTIES AND ESCHEATS OR FORFEITURE TO THE CROWN, UP TO THE DATE OF CONVERSION AND EXCEPT PARAGRAPHS 3 & 14 THEREAFTER. CORRECTION: INSTRUMENT NUMBER LT5565
16944	0180	SUBJECT TO SUBSECTION 44(1) OF THE LAND TITLES ACT, EXCEPT PARAGRAPHS 11 & 14, PROVINCIAL SUCCESSION DUTIES AND ESCHEATS OR FORFEITURE TO THE CROWN, UP TO THE DATE OF CONVERSION AND EXCEPT PARAGRAPHS 3 & 14 THEREAFTER. CORRECTION: INSTRUMENT NUMBER LT5565
16944	0181	SUBJECT TO SUBSECTION 44(1) OF THE LAND TITLES ACT, EXCEPT PARAGRAPHS 11 & 14, PROVINCIAL SUCCESSION DUTIES AND ESCHEATS OR FORFEITURE TO THE CROWN, UP TO THE DATE OF CONVERSION AND EXCEPT PARAGRAPHS 3 & 14 THEREAFTER. CORRECTION: INSTRUMENT NUMBER LT5565
16944	0182	SUBJECT TO SUBSECTION 44(1) OF THE LAND TITLES ACT, EXCEPT PARAGRAPHS 11 & 14, PROVINCIAL SUCCESSION DUTIES AND ESCHEATS OR FORFEITURE TO THE CROWN, UP TO THE DATE OF CONVERSION AND EXCEPT PARAGRAPHS 3 & 14 THEREAFTER. CORRECTION: INSTRUMENT NUMBER LT5565
16944	0183	SUBJECT TO SUBSECTION 44(1) OF THE LAND TITLES ACT, EXCEPT PARAGRAPHS 11 & 14, PROVINCIAL SUCCESSION DUTIES AND ESCHEATS OR FORFEITURE TO THE CROWN, UP TO THE DATE OF CONVERSION AND EXCEPT PARAGRAPHS 3 & 14 THEREAFTER. CORRECTION: INSTRUMENT NUMBER LT5565
16944	0184	SUBJECT TO SUBSECTION 44(1) OF THE LAND TITLES ACT, EXCEPT PARAGRAPHS 11 & 14, PROVINCIAL SUCCESSION DUTIES AND ESCHEATS OR FORFEITURE TO THE CROWN, UP TO THE DATE OF CONVERSION AND EXCEPT PARAGRAPHS 3 & 14 THEREAFTER. CORRECTION: INSTRUMENT NUMBER LT5565
16944	0185	SUBJECT TO SUBSECTION 44(1) OF THE LAND TITLES ACT, EXCEPT PARAGRAPHS 11 & 14, PROVINCIAL SUCCESSION DUTIES AND ESCHEATS OR FORFEITURE TO THE CROWN, UP TO THE DATE OF CONVERSION AND EXCEPT PARAGRAPHS 3 & 14 THEREAFTER. CORRECTION: INSTRUMENT NUMBER LT5565
16944	0186	SUBJECT TO SUBSECTION 44(1) OF THE LAND TITLES ACT, EXCEPT PARAGRAPHS 11 & 14, PROVINCIAL SUCCESSION DUTIES AND ESCHEATS OR FORFEITURE TO THE CROWN, UP TO THE DATE OF CONVERSION AND EXCEPT PARAGRAPHS 3 & 14 THEREAFTER. CORRECTION: INSTRUMENT NUMBER LT5565
16944	0187	SUBJECT TO SUBSECTION 44(1) OF THE LAND TITLES ACT, EXCEPT PARAGRAPHS 11 & 14, PROVINCIAL SUCCESSION DUTIES AND ESCHEATS OR FORFEITURE TO THE CROWN, UP TO THE DATE OF CONVERSION AND EXCEPT PARAGRAPHS 3 & 14 THEREAFTER. CORRECTION: INSTRUMENT NUMBER LT5565
16944	0188	SUBJECT TO SUBSECTION 44(1) OF THE LAND TITLES ACT, EXCEPT PARAGRAPHS 11 & 14, PROVINCIAL SUCCESSION DUTIES AND ESCHEATS OR FORFEITURE TO THE CROWN, UP TO THE DATE OF CONVERSION AND EXCEPT PARAGRAPHS 3 & 14 THEREAFTER. CORRECTION: INSTRUMENT NUMBER LT5565
16944	0189	SUBJECT TO SUBSECTION 44(1) OF THE LAND TITLES ACT, EXCEPT PARAGRAPHS 11 & 14, PROVINCIAL SUCCESSION DUTIES AND ESCHEATS OR FORFEITURE TO THE CROWN, UP TO THE DATE OF CONVERSION AND EXCEPT PARAGRAPHS 3 & 14 THEREAFTER. CORRECTION: INSTRUMENT NUMBER LT5565
16944	0190	SUBJECT TO SUBSECTION 44(1) OF THE LAND TITLES ACT, EXCEPT PARAGRAPHS 11 & 14, PROVINCIAL SUCCESSION DUTIES AND ESCHEATS OR FORFEITURE TO THE CROWN, UP TO THE DATE OF CONVERSION AND EXCEPT PARAGRAPHS 3 & 14 THEREAFTER. CORRECTION: INSTRUMENT NUMBER LT5565
16944	0191	SUBJECT TO SUBSECTION 44(1) OF THE LAND TITLES ACT, EXCEPT PARAGRAPHS 11 & 14, PROVINCIAL SUCCESSION DUTIES AND ESCHEATS OR FORFEITURE TO THE CROWN, UP TO THE DATE OF CONVERSION AND EXCEPT PARAGRAPHS 3 & 14 THEREAFTER. CORRECTION: INSTRUMENT NUMBER LT5565
16944	0192	SUBJECT TO SUBSECTION 44(1) OF THE LAND TITLES ACT, EXCEPT PARAGRAPHS 11 & 14, PROVINCIAL SUCCESSION DUTIES AND ESCHEATS OR FORFEITURE TO THE CROWN, UP TO THE DATE OF CONVERSION AND EXCEPT PARAGRAPHS 3 & 14 THEREAFTER. CORRECTION: INSTRUMENT NUMBER LT5565
16944	0193	SUBJECT TO SUBSECTION 44(1) OF THE LAND TITLES ACT, EXCEPT PARAGRAPHS 11 & 14, PROVINCIAL SUCCESSION DUTIES AND ESCHEATS OR FORFEITURE TO THE CROWN, UP TO THE DATE OF CONVERSION AND EXCEPT PARAGRAPHS 3 & 14 THEREAFTER. CORRECTION: INSTRUMENT NUMBER LT5565
16944	0194	SUBJECT TO SUBSECTION 44(1) OF THE LAND TITLES ACT, EXCEPT PARAGRAPHS 11 & 14, PROVINCIAL SUCCESSION DUTIES AND ESCHEATS OR FORFEITURE TO THE CROWN, UP TO THE DATE OF CONVERSION AND EXCEPT PARAGRAPHS 3 & 14 THEREAFTER. CORRECTION: INSTRUMENT NUMBER LT5565
16944	0195	SUBJECT TO SUBSECTION 44(1) OF THE LAND TITLES ACT, EXCEPT PARAGRAPHS 11 & 14, PROVINCIAL SUCCESSION DUTIES AND ESCHEATS OR FORFEITURE TO THE CROWN, UP TO THE DATE OF CONVERSION AND EXCEPT PARAGRAPHS 3 & 14 THEREAFTER. CORRECTION: INSTRUMENT NUMBER LT5565
16944	0196	SUBJECT TO SUBSECTION 44(1) OF THE LAND TITLES ACT, EXCEPT PARAGRAPHS 11 & 14, PROVINCIAL SUCCESSION DUTIES AND ESCHEATS OR FORFEITURE TO THE CROWN, UP TO THE DATE OF CONVERSION AND EXCEPT PARAGRAPHS 3 & 14 THEREAFTER. CORRECTION: INSTRUMENT NUMBER LT5565
16944	0197	SUBJECT TO SUBSECTION 44(1) OF THE LAND TITLES ACT, EXCEPT PARAGRAPHS 11 & 14, PROVINCIAL SUCCESSION DUTIES AND ESCHEATS OR FORFEITURE TO THE CROWN, UP TO THE DATE OF CONVERSION AND EXCEPT PARAGRAPHS 3 & 14 THEREAFTER. CORRECTION: INSTRUMENT NUMBER LT5565
16944	0198	SUBJECT TO SUBSECTION 44(1) OF THE LAND TITLES ACT, EXCEPT PARAGRAPHS 11 & 14, PROVINCIAL SUCCESSION DUTIES AND ESCHEATS OR FORFEITURE TO THE CROWN, UP TO THE DATE OF CONVERSION AND EXCEPT PARAGRAPHS 3 & 14 THEREAFTER. CORRECTION: INSTRUMENT NUMBER LT5565
16944	0199	SUBJECT TO SUBSECTION 44(1) OF THE LAND TITLES ACT, EXCEPT PARAGRAPHS 11 & 14, PROVINCIAL SUCCESSION DUTIES AND ESCHEATS OR FORFEITURE TO THE CROWN, UP TO THE DATE OF CONVERSION AND EXCEPT PARAGRAPHS 3 & 14 THEREAFTER. CORRECTION: INSTRUMENT NUMBER LT5565
16944	0200	SUBJECT TO SUBSECTION 44(1) OF THE LAND TITLES ACT, EXCEPT PARAGRAPHS 11 & 14, PROVINCIAL SUCCESSION DUTIES AND ESCHEATS OR FORFEITURE TO THE CROWN, UP TO THE DATE OF CONVERSION AND EXCEPT PARAGRAPHS 3 & 14 THEREAFTER. CORRECTION: INSTRUMENT NUMBER LT5565
16944	0201	SUBJECT TO SUBSECTION 44(1) OF THE LAND TITLES ACT, EXCEPT PARAGRAPHS 11 & 14, PROVINCIAL SUCCESSION DUTIES AND ESCHEATS OR FORFEITURE TO THE CROWN, UP TO THE DATE OF CONVERSION AND EXCEPT PARAGRAPHS 3 & 14 THEREAFTER. CORRECTION: INSTRUMENT NUMBER LT5565
16944	0202	SUBJECT TO SUBSECTION 44(1) OF THE LAND TITLES ACT, EXCEPT PARAGRAPHS 11 & 14, PROVINCIAL SUCCESSION DUTIES AND ESCHEATS OR FORFEITURE TO THE CROWN, UP TO THE DATE OF CONVERSION AND EXCEPT PARAGRAPHS 3 & 14 THEREAFTER. CORRECTION: INSTRUMENT NUMBER LT5565
16944	0203	SUBJECT TO SUBSECTION 44(1) OF THE LAND TITLES ACT, EXCEPT PARAGRAPHS 11 & 14, PROVINCIAL SUCCESSION DUTIES AND ESCHEATS OR FORFEITURE TO THE CROWN, UP TO THE DATE OF CONVERSION AND EXCEPT PARAGRAPHS 3 & 14 THEREAFTER. CORRECTION: INSTRUMENT NUMBER LT5565
16944	0204	SUBJECT TO SUBSECTION 44(1) OF THE LAND TITLES ACT, EXCEPT PARAGRAPHS 11 & 14, PROVINCIAL SUCCESSION DUTIES AND ESCHEATS OR FORFEITURE TO THE CROWN, UP TO THE DATE OF CONVERSION AND EXCEPT PARAGRAPHS 3 & 14 THEREAFTER. CORRECTION: INSTRUMENT NUMBER LT5565
16944	0205	SUBJECT TO SUBSECTION 44(1) OF THE LAND TITLES ACT, EXCEPT PARAGRAPHS 11 & 14, PROVINCIAL SUCCESSION DUTIES AND ESCHEATS OR FORFEITURE TO THE CROWN, UP TO THE DATE OF CONVERSION AND EXCEPT PARAGRAPHS 3 & 14 THEREAFTER. CORRECTION: INSTRUMENT NUMBER LT5565
16944	0206	SUBJECT TO SUBSECTION 44(1) OF THE LAND TITLES ACT, EXCEPT PARAGRAPHS 11 & 14, PROVINCIAL SUCCESSION DUTIES AND ESCHEATS OR FORFEITURE TO THE CROWN, UP TO THE DATE OF CONVERSION AND EXCEPT PARAGRAPHS 3 & 14 THEREAFTER. CORRECTION: INSTRUMENT NUMBER LT5565
16944	0207	SUBJECT TO SUBSECTION 44(1) OF THE LAND TITLES ACT, EXCEPT PARAGRAPHS 11 & 14, PROVINCIAL SUCCESSION DUTIES AND ESCHEATS OR FORFEITURE TO THE CROWN, UP TO THE DATE OF CONVERSION AND EXCEPT PARAGRAPHS 3 & 14 THEREAFTER. CORRECTION: INSTRUMENT NUMBER LT5565
16944	0208	SUBJECT TO SUBSECTION 44(1) OF THE LAND TITLES ACT, EXCEPT PARAGRAPHS 11 & 14, PROVINCIAL SUCCESSION DUTIES AND ESCHEATS OR FORFEITURE TO THE CROWN, UP TO THE DATE OF CONVERSION AND EXCEPT PARAGRAPHS 3 & 14 THEREAFTER. CORRECTION: INSTRUMENT NUMBER LT5565
16944	0209	SUBJECT TO SUBSECTION 44(1) OF THE LAND TITLES ACT, EXCEPT PARAGRAPHS 11 & 14, PROVINCIAL SUCCESSION DUTIES AND ESCHEATS OR FORFEITURE TO THE CROWN, UP TO THE DATE OF CONVERSION AND EXCEPT PARAGRAPHS 3 & 14 THEREAFTER. CORRECTION: INSTRUMENT NUMBER LT5565
16944	0211	SUBJECT TO SUBSECTION 44(1) OF THE LAND TITLES ACT, EXCEPT PARAGRAPHS 11 & 14, PROVINCIAL SUCCESSION DUTIES AND ESCHEATS OR FORFEITURE TO THE CROWN, UP TO THE DATE OF CONVERSION AND EXCEPT PARAGRAPHS 3 & 14 THEREAFTER. CORRECTION: INSTRUMENT NUMBER LT5565
16944	0212	SUBJECT TO SUBSECTION 44(1) OF THE LAND TITLES ACT, EXCEPT PARAGRAPHS 11 & 14, PROVINCIAL SUCCESSION DUTIES AND ESCHEATS OR FORFEITURE TO THE CROWN, UP TO THE DATE OF CONVERSION AND EXCEPT PARAGRAPHS 3 & 14 THEREAFTER.
16944	0220	SUBJECT TO SUBSECTION 44(1) OF THE LAND TITLES ACT, EXCEPT PARAGRAPHS 11 AND 14, PROVINCIAL SUCCESSION DUTIES AND ESCHEATS OR FORFEITURE TO THE CROWN UP TO THE DATE OF CONVERSION AND EXCEPT PARAGRAPHS 3 AND 14 THEREAFTER.
16944	0222	SUBJECT TO SUBSECTION 44(1) OF THE LAND TITLES ACT, EXCEPT PARAGRAPHS 11 & 14, PROVINCIAL SUCCESSION DUTIES AND ESCHEATS OR FORFEITURE TO THE CROWN UP TO THE DATE OF CONVERSION AND EXCEPT PARAGRAPHS 3 & 14 THEREAFTER.
16944	0226	SUBJECT TO SUBSECTION 44(1) OF THE LAND TITLES ACT, EXCEPT PARAGRAPHS 11 & 14, PROVINCIAL SUCCESSION DUTIES AND ESCHEATS OR FORFEITURE TO THE CROWN UP TO THE DATE OF CONVERSION AND EXCEPT PARAGRAPHS 3 & 14 THEREAFTER.
16944	0239	CORRECTION: INSTRUMENT NUMBER 62BA273 WAS ENTERED IN ERROR AGAINST THIS PROPERTY AND WAS REMOVED AND CERTIFIED ON 2001/04/24 BY RACHEL KINNEAR.
16944	0240	CORRECTION: INSTRUMENT NUMBER WE9706 WAS OMITTED FROM THIS PROPERTY IN ERROR AND WAS ADDED AND CERTIFIED ON 2000/11/20 BY HELEN MACMILLAN. CORRECTION: INSTRUMENT NUMBER 62BA273 WAS ENTERED IN ERROR AGAINST THIS PROPERTY AND WAS REMOVED AND CERTIFIED ON 20
16944	0244	CORRECTION: INSTRUMENT NUMBER 62BA273 WAS ENTERED IN ERROR AGAINST THIS PROPERTY AND WAS REMOVED AND CERTIFIED ON 2001/04/24 BY RACHEL KINNEAR.
16944	0245	CORRECTION: INSTRUMENT NUMBER LT609184 WAS OMITTED FROM THIS PROPERTY IN ERROR AND WAS ADDED AND CERTIFIED ON 2000/11/20 BY HELEN MACMILLAN. CORRECTION: INSTRUMENT NUMBER 62M907 WAS OMITTED FROM THIS PROPERTY IN ERROR AND WAS ADDED AND CERTIFIED ON 2000/1
16945	0827	LAND DIVISION COMMITTEE CONSENT LT299027.
16945	0868	CONSENT OF LAND DIVISION COMMITTEE.
16945	0870	LAND DIVISION COMMITTEE.
16945	1057	PIN CREATED FOR PURPOSE OF OPENING SUBDIVISION PLAN 62M-786.
16945	1071	CORRECTION: INSTRUMENT NUMBER LT448684 WAS OMITTED FROM THIS PROPERTY IN ERROR AND WAS ADDED AND CERTIFIED ON 1997/07/30 BY CAROL RADLEY.
16945	1109	THE FOLLOWING REMARK HAS BEEN ADDED ON 1998/07/14 AT 08:48 BY PETER GAIGAL : SUBJECT ON THE DATE OF REGISTRATION 97/10/28 TO SUBSECTION 44 (1) OF THE LAND TITLES ACT, EXCEPT PARAGRAPHS 3 AND 14 THEREOF AND PROVINCIAL SUCCESSION DUTIES:.
16945	1118	THE FOLLOWING REMARK HAS BEEN ADDED ON 1998/07/14 AT 08:48 BY PETER GAIGAL : SUBJECT ON THE DATE OF REGISTRATION 97/10/28 TO SUBSECTION 44 (1) OF THE LAND TITLES ACT, EXCEPT PARAGRAPHS 3 AND 14 THEREOF AND PROVINCIAL SUCCESSION DUTIES:.
16945	1119	THE FOLLOWING REMARK HAS BEEN ADDED ON 1998/07/14 AT 08:48 BY PETER GAIGAL : SUBJECT ON THE DATE OF REGISTRATION 97/10/28 TO SUBSECTION 44 (1) OF THE LAND TITLES ACT, EXCEPT PARAGRAPHS 3 AND 14 THEREOF AND PROVINCIAL SUCCESSION DUTIES:.
16945	1120	THE FOLLOWING REMARK HAS BEEN ADDED ON 1998/07/14 AT 08:48 BY PETER GAIGAL : SUBJECT ON THE DATE OF REGISTRATION 97/10/28 TO SUBSECTION 44 (1) OF THE LAND TITLES ACT, EXCEPT PARAGRAPHS 3 AND 14 THEREOF AND PROVINCIAL SUCCESSION DUTIES:.
16945	1121	THE FOLLOWING REMARK HAS BEEN ADDED ON 1998/07/14 AT 08:48 BY PETER GAIGAL : SUBJECT ON THE DATE OF REGISTRATION 97/10/28 TO SUBSECTION 44 (1) OF THE LAND TITLES ACT, EXCEPT PARAGRAPHS 3 AND 14 THEREOF AND PROVINCIAL SUCCESSION DUTIES:.
16945	1122	THE FOLLOWING REMARK HAS BEEN ADDED ON 1998/07/14 AT 08:48 BY PETER GAIGAL : SUBJECT ON THE DATE OF REGISTRATION 97/10/28 TO SUBSECTION 44 (1) OF THE LAND TITLES ACT, EXCEPT PARAGRAPHS 3 AND 14 THEREOF AND PROVINCIAL SUCCESSION DUTIES:.
16945	1123	THE FOLLOWING REMARK HAS BEEN ADDED ON 1998/07/14 AT 08:48 BY PETER GAIGAL : SUBJECT ON THE DATE OF REGISTRATION 97/10/28 TO SUBSECTION 44 (1) OF THE LAND TITLES ACT, EXCEPT PARAGRAPHS 3 AND 14 THEREOF AND PROVINCIAL SUCCESSION DUTIES:.
16945	1124	THE FOLLOWING REMARK HAS BEEN ADDED ON 1998/07/14 AT 08:48 BY PETER GAIGAL : SUBJECT ON THE DATE OF REGISTRATION 97/10/28 TO SUBSECTION 44 (1) OF THE LAND TITLES ACT, EXCEPT PARAGRAPHS 3 AND 14 THEREOF AND PROVINCIAL SUCCESSION DUTIES:.
16945	1125	THE FOLLOWING REMARK HAS BEEN ADDED ON 1998/07/14 AT 08:48 BY PETER GAIGAL : SUBJECT ON THE DATE OF REGISTRATION 97/10/28 TO SUBSECTION 44 (1) OF THE LAND TITLES ACT, EXCEPT PARAGRAPHS 3 AND 14 THEREOF AND PROVINCIAL SUCCESSION DUTIES:.
16945	1126	THE FOLLOWING REMARK HAS BEEN ADDED ON 1998/07/14 AT 08:48 BY PETER GAIGAL : SUBJECT ON THE DATE OF REGISTRATION 97/10/28 TO SUBSECTION 44 (1) OF THE LAND TITLES ACT, EXCEPT PARAGRAPHS 3 AND 14 THEREOF AND PROVINCIAL SUCCESSION DUTIES:.
16945	1127	THE FOLLOWING REMARK HAS BEEN ADDED ON 1998/07/14 AT 08:48 BY PETER GAIGAL : SUBJECT ON THE DATE OF REGISTRATION 97/10/28 TO SUBSECTION 44 (1) OF THE LAND TITLES ACT, EXCEPT PARAGRAPHS 3 AND 14 THEREOF AND PROVINCIAL SUCCESSION DUTIES:.
16945	1128	THE FOLLOWING REMARK HAS BEEN ADDED ON 1998/07/14 AT 08:48 BY PETER GAIGAL : SUBJECT ON THE DATE OF REGISTRATION 97/10/28 TO SUBSECTION 44 (1) OF THE LAND TITLES ACT, EXCEPT PARAGRAPHS 3 AND 14 THEREOF AND PROVINCIAL SUCCESSION DUTIES:.
16945	1129	THE FOLLOWING REMARK HAS BEEN ADDED ON 1998/07/14 AT 08:48 BY PETER GAIGAL : SUBJECT ON THE DATE OF REGISTRATION 97/10/28 TO SUBSECTION 44 (1) OF THE LAND TITLES ACT, EXCEPT PARAGRAPHS 3 AND 14 THEREOF AND PROVINCIAL SUCCESSION DUTIES:.
16946	0234	641-197 REMARKS.
16948	0119	THE FOLLOWING REMARK HAS BEEN ADDED ON 1995/06/26 AT 13:55 BY BELLE FIAMELLI : LEASEHOLD (PIN 16948-0118) MERGED UNDER TRANSFER LT383313.
16950	0002	CORRECTION: DOCUMENT WE10056121 REMOVED FROM 16950-0002 ON 2023/05/10 AT 15:47 BY STURINO, NADINE.
16950	0003	CORRECTION: DOCUMENT WE10056121 REMOVED FROM 16950-0003 ON 2023/05/10 AT 15:47 BY STURINO, NADINE.
16950	0004	CORRECTION: DOCUMENT WE10056121 REMOVED FROM 16950-0004 ON 2023/05/10 AT 15:46 BY STURINO, NADINE.
16950	0005	CORRECTION: DOCUMENT WE10056121 REMOVED FROM 16950-0005 ON 2023/05/10 AT 15:46 BY STURINO, NADINE.
16950	0006	CORRECTION: DOCUMENT WE10056121 REMOVED FROM 16950-0006 ON 2023/05/10 AT 15:46 BY STURINO, NADINE.
16950	0007	CORRECTION: DOCUMENT WE10056121 REMOVED FROM 16950-0007 ON 2023/05/10 AT 15:46 BY STURINO, NADINE.
16950	0008	CORRECTION: DOCUMENT WE10056121 REMOVED FROM 16950-0008 ON 2023/05/10 AT 15:46 BY STURINO, NADINE.
16950	0009	CORRECTION: DOCUMENT WE10056121 REMOVED FROM 16950-0009 ON 2023/05/10 AT 15:46 BY STURINO, NADINE.
16950	0011	CORRECTION: DOCUMENT WE10056121 REMOVED FROM 16950-0011 ON 2023/05/10 AT 15:46 BY STURINO, NADINE.
16950	0012	CORRECTION: DOCUMENT WE10056121 REMOVED FROM 16950-0012 ON 2023/05/10 AT 15:46 BY STURINO, NADINE.
16950	0013	CORRECTION: DOCUMENT WE10056121 REMOVED FROM 16950-0013 ON 2023/05/10 AT 15:46 BY STURINO, NADINE.
16950	0014	CORRECTION: DOCUMENT WE10056121 REMOVED FROM 16950-0014 ON 2023/05/10 AT 15:46 BY STURINO, NADINE.
16950	0015	CORRECTION: DOCUMENT WE10056121 REMOVED FROM 16950-0015 ON 2023/05/10 AT 15:45 BY STURINO, NADINE.
16950	0016	CORRECTION: DOCUMENT WE10056121 REMOVED FROM 16950-0016 ON 2023/05/10 AT 15:45 BY STURINO, NADINE.
16950	0017	CORRECTION: DOCUMENT WE10056121 REMOVED FROM 16950-0017 ON 2023/05/10 AT 15:45 BY STURINO, NADINE.
16950	0018	CORRECTION: DOCUMENT WE10056121 REMOVED FROM 16950-0018 ON 2023/05/10 AT 15:45 BY STURINO, NADINE.
16950	0019	CORRECTION: DOCUMENT WE10056121 REMOVED FROM 16950-0019 ON 2023/05/10 AT 15:45 BY STURINO, NADINE.
16950	0020	CORRECTION: DOCUMENT WE10056121 REMOVED FROM 16950-0020 ON 2023/05/10 AT 15:45 BY STURINO, NADINE.
16950	0021	CORRECTION: DOCUMENT WE10056121 REMOVED FROM 16950-0021 ON 2023/05/10 AT 15:45 BY STURINO, NADINE.
16950	0022	CORRECTION: DOCUMENT WE10056121 REMOVED FROM 16950-0022 ON 2023/05/10 AT 15:45 BY STURINO, NADINE.
16950	0023	CORRECTION: DOCUMENT WE10056121 REMOVED FROM 16950-0023 ON 2023/05/10 AT 15:45 BY STURINO, NADINE.
16950	0024	CORRECTION: DOCUMENT WE10056121 REMOVED FROM 16950-0024 ON 2023/05/10 AT 15:45 BY STURINO, NADINE.
16950	0025	CORRECTION: DOCUMENT WE10056121 REMOVED FROM 16950-0025 ON 2023/05/10 AT 15:45 BY STURINO, NADINE.
16950	0026	CORRECTION: DOCUMENT WE10056121 REMOVED FROM 16950-0026 ON 2023/05/10 AT 15:45 BY STURINO, NADINE.
16950	0027	CORRECTION: DOCUMENT WE10056121 REMOVED FROM 16950-0027 ON 2023/05/10 AT 15:45 BY STURINO, NADINE.
16950	0028	CORRECTION: DOCUMENT WE10056121 REMOVED FROM 16950-0028 ON 2023/05/10 AT 15:45 BY STURINO, NADINE.
16950	0029	CORRECTION: DOCUMENT WE10056121 REMOVED FROM 16950-0029 ON 2023/05/10 AT 15:45 BY STURINO, NADINE.
16950	0030	CORRECTION: DOCUMENT WE10056121 REMOVED FROM 16950-0030 ON 2023/05/10 AT 15:45 BY STURINO, NADINE.
16950	0031	CORRECTION: DOCUMENT WE10056121 REMOVED FROM 16950-0031 ON 2023/05/10 AT 15:45 BY STURINO, NADINE.
16950	0032	CORRECTION: DOCUMENT WE10056121 REMOVED FROM 16950-0032 ON 2023/05/10 AT 15:45 BY STURINO, NADINE.
16950	0033	CORRECTION: DOCUMENT WE10056121 REMOVED FROM 16950-0033 ON 2023/05/10 AT 15:45 BY STURINO, NADINE.
16950	0034	CORRECTION: DOCUMENT WE10056121 REMOVED FROM 16950-0034 ON 2023/05/10 AT 15:45 BY STURINO, NADINE.
16950	0035	CORRECTION: DOCUMENT WE10056121 REMOVED FROM 16950-0035 ON 2023/05/10 AT 15:45 BY STURINO, NADINE.
16950	0036	CORRECTION: DOCUMENT WE10056121 REMOVED FROM 16950-0036 ON 2023/05/10 AT 15:45 BY STURINO, NADINE.
16950	0037	CORRECTION: DOCUMENT WE10056121 REMOVED FROM 16950-0037 ON 2023/05/10 AT 15:45 BY STURINO, NADINE.
16950	0038	CORRECTION: DOCUMENT WE10056121 REMOVED FROM 16950-0038 ON 2023/05/10 AT 15:45 BY STURINO, NADINE.
16950	0039	CORRECTION: DOCUMENT WE10056121 REMOVED FROM 16950-0039 ON 2023/05/10 AT 15:45 BY STURINO, NADINE.
16950	0040	CORRECTION: DOCUMENT WE10056121 REMOVED FROM 16950-0040 ON 2023/05/10 AT 15:45 BY STURINO, NADINE.
16950	0041	CORRECTION: DOCUMENT WE10056121 REMOVED FROM 16950-0041 ON 2023/05/10 AT 15:45 BY STURINO, NADINE.
16950	0042	CORRECTION: DOCUMENT WE10056121 REMOVED FROM 16950-0042 ON 2023/05/10 AT 15:45 BY STURINO, NADINE.
16950	0043	CORRECTION: DOCUMENT WE10056121 REMOVED FROM 16950-0043 ON 2023/05/10 AT 15:45 BY STURINO, NADINE.
16950	0044	CORRECTION: DOCUMENT WE10056121 REMOVED FROM 16950-0044 ON 2023/05/10 AT 15:45 BY STURINO, NADINE.
16950	0045	CORRECTION: DOCUMENT WE10056121 REMOVED FROM 16950-0045 ON 2023/05/10 AT 15:44 BY STURINO, NADINE.
16950	0046	CORRECTION: DOCUMENT WE10056121 REMOVED FROM 16950-0046 ON 2023/05/10 AT 15:44 BY STURINO, NADINE.
16950	0047	CORRECTION: DOCUMENT WE10056121 REMOVED FROM 16950-0047 ON 2023/05/10 AT 15:45 BY STURINO, NADINE.
16950	0048	CORRECTION: DOCUMENT WE10056121 REMOVED FROM 16950-0048 ON 2023/05/10 AT 15:45 BY STURINO, NADINE.
16950	0049	CORRECTION: DOCUMENT WE10056121 REMOVED FROM 16950-0049 ON 2023/05/10 AT 15:45 BY STURINO, NADINE.
16950	0050	CORRECTION: DOCUMENT WE10056121 REMOVED FROM 16950-0050 ON 2023/05/10 AT 15:45 BY STURINO, NADINE.
16950	0051	CORRECTION: DOCUMENT WE10056121 REMOVED FROM 16950-0051 ON 2023/05/10 AT 15:45 BY STURINO, NADINE.
16950	0052	CORRECTION: DOCUMENT WE10056121 REMOVED FROM 16950-0052 ON 2023/05/10 AT 15:44 BY STURINO, NADINE.
16950	0053	CORRECTION: DOCUMENT WE10056121 REMOVED FROM 16950-0053 ON 2023/05/10 AT 15:45 BY STURINO, NADINE.
16950	0057	CORRECTION: DOCUMENT WE10056121 REMOVED FROM 16950-0057 ON 2023/05/10 AT 15:44 BY STURINO, NADINE.
16950	0058	CORRECTION: DOCUMENT WE10056121 REMOVED FROM 16950-0058 ON 2023/05/10 AT 15:44 BY STURINO, NADINE.
16950	0059	CORRECTION: DOCUMENT WE10056121 REMOVED FROM 16950-0059 ON 2023/05/10 AT 15:44 BY STURINO, NADINE.
16950	0060	CORRECTION: DOCUMENT WE10056121 REMOVED FROM 16950-0060 ON 2023/05/10 AT 15:44 BY STURINO, NADINE.
16950	0061	CORRECTION: DOCUMENT WE10056121 REMOVED FROM 16950-0061 ON 2023/05/10 AT 15:44 BY STURINO, NADINE.
16950	0062	CORRECTION: DOCUMENT WE10056121 REMOVED FROM 16950-0062 ON 2023/05/10 AT 15:44 BY STURINO, NADINE.
16950	0064	CORRECTION: DOCUMENT WE10056121 REMOVED FROM 16950-0064 ON 2023/05/10 AT 15:44 BY STURINO, NADINE.
16950	0065	CORRECTION: DOCUMENT WE10056121 REMOVED FROM 16950-0065 ON 2023/05/10 AT 15:44 BY STURINO, NADINE.
16950	0066	CORRECTION: DOCUMENT WE10056121 REMOVED FROM 16950-0066 ON 2023/05/10 AT 15:44 BY STURINO, NADINE.
16950	0067	CORRECTION: DOCUMENT WE10056121 REMOVED FROM 16950-0067 ON 2023/05/10 AT 15:44 BY STURINO, NADINE.
16950	0068	CORRECTION: DOCUMENT WE10056121 REMOVED FROM 16950-0068 ON 2023/05/10 AT 15:44 BY STURINO, NADINE.
16950	0069	CORRECTION: DOCUMENT WE10056121 REMOVED FROM 16950-0069 ON 2023/05/10 AT 15:44 BY STURINO, NADINE.
16950	0070	CORRECTION: DOCUMENT WE10056121 REMOVED FROM 16950-0070 ON 2023/05/10 AT 15:44 BY STURINO, NADINE.
16950	0071	CORRECTION: DOCUMENT WE10056121 REMOVED FROM 16950-0071 ON 2023/05/10 AT 15:44 BY STURINO, NADINE.
16950	0110	CORRECTION: DOCUMENT WE10056121 REMOVED FROM 16950-0110 ON 2023/05/10 AT 15:45 BY STURINO, NADINE.
16950	0112	CORRECTION: DOCUMENT WE10056121 REMOVED FROM 16950-0112 ON 2023/05/10 AT 15:46 BY STURINO, NADINE.
16950	0116	CORRECTION: DOCUMENT WE10056121 REMOVED FROM 16950-0116 ON 2023/05/10 AT 15:46 BY STURINO, NADINE.
16950	0117	THE FOLLOWING REMARK HAS BEEN ADDED ON 2006/03/20 AT 09:16 BY CRISSY DELDUCA : PLANNING ACT CONSENT ATTACHED TO LT255161. CORRECTION: DOCUMENT WE10056121 REMOVED FROM 16950-0117 ON 2023/05/10 AT 15:46 BY STURINO, NADINE.
16950	0118	CORRECTION: DOCUMENT WE10056121 REMOVED FROM 16950-0118 ON 2023/05/10 AT 15:46 BY STURINO, NADINE.
16950	0119	CORRECTION: DOCUMENT WE10056121 REMOVED FROM 16950-0119 ON 2023/05/10 AT 15:46 BY STURINO, NADINE.
16950	0128	CORRECTION: DOCUMENT WE10056121 REMOVED FROM 16950-0128 ON 2023/05/10 AT 15:46 BY STURINO, NADINE.
16950	0130	CORRECTION: DOCUMENT WE10056121 REMOVED FROM 16950-0130 ON 2023/05/10 AT 15:47 BY STURINO, NADINE.
16950	0133	CORRECTION: DOCUMENT WE10056121 REMOVED FROM 16950-0133 ON 2023/05/10 AT 15:47 BY STURINO, NADINE.
16950	0145	CORRECTION: DOCUMENT WE10056121 REMOVED FROM 16950-0145 ON 2023/05/10 AT 15:47 BY STURINO, NADINE.
16950	0171	CORRECTION: DOCUMENT WE10056121 REMOVED FROM 16950-0171 ON 2023/05/10 AT 15:47 BY STURINO, NADINE.
16950	0172	CORRECTION: DOCUMENT WE10056121 REMOVED FROM 16950-0172 ON 2023/05/10 AT 15:47 BY STURINO, NADINE.
16950	0173	CORRECTION: DOCUMENT WE10056121 REMOVED FROM 16950-0173 ON 2023/05/10 AT 15:47 BY STURINO, NADINE.
16950	0174	CORRECTION: DOCUMENT WE10056121 REMOVED FROM 16950-0174 ON 2023/05/10 AT 15:47 BY STURINO, NADINE.
16951	0009	CORRECTION: INSTRUMENT NUMBER LT458847 WAS OMITTED FROM THIS PROPERTY IN ERROR AND WAS ADDED AND CERTIFIED ON 2005/01/07 BY CRISSY DEL DUCA.
16951	0013	CORRECTION: INSTRUMENT NUMBER LT458847 WAS OMITTED FROM THIS PROPERTY IN ERROR AND WAS ADDED AND CERTIFIED ON 2005/01/07 BY CRISSY DEL DUCA.
16951	0018	CORRECTION: INSTRUMENT NUMBER LT458847 WAS OMITTED FROM THIS PROPERTY IN ERROR AND WAS ADDED AND CERTIFIED ON 2005/01/07 BY CRISSY DEL DUCA.
16952	0190	CORRECTION: INSTRUMENT NUMBER LT458847 WAS OMITTED FROM THIS PROPERTY IN ERROR AND WAS ADDED AND CERTIFIED ON 2005/01/07 BY CRISSY DEL DUCA.
16972	0078	CONSENT OF LAND DIVISION COMMITTEE IN LT188281.
16975	0028	ALTHOUGH LEASE VM157756 THRU VM157759 INCL. AFFECT THE LAND SHOWN HERE THIS IS A DEDICATED RD. AND THE PARTIES IN THE LEASES REFER TO ANOTHER PIN THEREFORE, LEGAL RESPONSE JUN9/95 SAID NOT TO CARRY.
16977	0018	CORRECTION: INSTRUMENT NUMBER CD482638 WAS ENTERED IN ERROR AGAINST THIS PROPERTY AND WAS REMOVED AND CERTIFIED ON 1995/11/23 BY MARLENE NICHOLLS. CORRECTION: INSTRUMENT NUMBER VM73799 WAS ENTERED IN ERROR AGAINST THIS PROPERTY AND WAS REMOVED AND CERTIFI
16977	0034	PLANNING ACT CONSENT IN LT271140.
16978	0413	CONSENT OF THE LAND DIVISION COMMITTEE IN LT187799.
16978	0505	CONSENT LAND DIVISION COMMITTEE.
16980	0227	CONSENT LAND DIVISION COMMITTEE LT205809.
16985	0094	CORRECTION: INSTRUMENT NUMBER HL167546 WAS OMITTED FROM THIS PROPERTY IN ERROR AND WAS ADDED AND CERTIFIED ON 1995/06/06 BY MARLENE HUNTER.
16993	0154	CORRECTION: INSTRUMENT NUMBER 62M763 WAS OMITTED FROM THIS PROPERTY IN ERROR AND WAS ADDED AND CERTIFIED ON 1995/08/24 BY VICKI MCARTHUR.
16993	0261	CONSENT LAND DIVISION COMMITTEE IN LT339099.
16993	0263	CONSENT LAND DIVISION COMMITTEE IN LT335826.
17000	0381	CORRECTION: INSTRUMENT NUMBER 62R6314 WAS OMITTED FROM THIS PROPERTY IN ERROR AND WAS ADDED AND CERTIFIED ON 2000/06/30 BY PETER GAIGAL.
17004	0232	CORRECTION: INSTRUMENT NUMBER NS259232 WAS OMITTED FROM THIS PROPERTY IN ERROR AND WAS ADDED AND CERTIFIED ON 1995/12/20 BY MARLENE HUNTER.
17010	0097	CORRECTION: INSTRUMENT NUMBER LT431291 WAS OMITTED FROM THIS PROPERTY IN ERROR AND WAS ADDED AND CERTIFIED ON 1997/06/25 BY ERIC CANNON. CORRECTION: INSTRUMENT NUMBER LT431292 WAS OMITTED FROM THIS PROPERTY IN ERROR AND WAS ADDED AND CERTIFIED ON 1997/06/
17036	0634	CORRECTION: INSTRUMENT NUMBER WCP365 WAS OMITTED FROM THIS PROPERTY IN ERROR AND WAS ADDED AND CERTIFIED ON 2003/12/04 BY DEBBIE SARKANY. CORRECTION: INSTRUMENT NUMBER WE199846 WAS OMITTED FROM THIS PROPERTY IN ERROR AND WAS ADDED AND CERTIFIED ON 2003/12
17039	0113	CORRECTION: INSTRUMENT NUMBER HL94333 WAS OMITTED FROM THIS PROPERTY IN ERROR AND WAS ADDED AND CERTIFIED ON 2002/01/24 BY CHRISTINE HOARAN.
17046	0236	CONSENT FOR SEVERENCE CONTAINED IN CD2569.
17046	0378	CD50701 CONTAINS PLANNING ACT CONSENT.
17050	0367	SUBJECT TO SUBSECTION 44(1) OF THE LAND TITLES ACT, EXCEPT PARAGRAPHS 3 AND 14 THEREOF AND PROVINCIAL SUCCESSION DUTIES AND EXCEPT PARAGRAPH 11 AND ESCHEATS OR FORFEITURE TO THE CROWN UP TO THE DATE OF REGISTRATION WITH AN ABSOLUTE TITLE.
17056	0025	CORRECTION: INSTRUMENT NUMBER LT599221 WAS OMITTED FROM THIS PROPERTY IN ERROR AND WAS ADDED AND CERTIFIED ON 2001/03/27 BY MARLENE HUNTER.
17057	0028	CORRECTION: INSTRUMENT NUMBER LT402243 WAS ENTERED IN ERROR AGAINST THIS PROPERTY AND WAS REMOVED AND CERTIFIED ON 1996/04/17 BY BELLE FIAMELLI.
17068	0127	CORRECTION: INSTRUMENT NUMBER HL80344 WAS OMITTED FROM THIS PROPERTY IN ERROR AND WAS ADDED AND CERTIFIED ON 1995/08/03 BY SHIRLEY DELEEUW.
17068	0140	CORRECTION: INSTRUMENT NUMBER HL80344 WAS OMITTED FROM THIS PROPERTY IN ERROR AND WAS ADDED AND CERTIFIED ON 1995/08/03 BY SHIRLEY DELEEUW.
17068	0144	CORRECTION: INSTRUMENT NUMBER HL80344 WAS OMITTED FROM THIS PROPERTY IN ERROR AND WAS ADDED AND CERTIFIED ON 1995/08/03 BY SHIRLEY DELEEUW.
17068	0158	CORRECTION: INSTRUMENT NUMBER HL80344 WAS OMITTED FROM THIS PROPERTY IN ERROR AND WAS ADDED AND CERTIFIED ON 1995/08/03 BY SHIRLEY DELEEUW.
17068	0169	CORRECTION: INSTRUMENT NUMBER HL80344 WAS OMITTED FROM THIS PROPERTY IN ERROR AND WAS ADDED AND CERTIFIED ON 1995/08/03 BY SHIRLEY DELEEUW.
17078	0124	CORRECTION: INSTRUMENT NUMBER 62R-8701 WAS OMITTED FROM THIS PROPERTY IN ERROR AND WAS ADDED AND CERTIFIED ON 1998/03/12 BY LAND REGISTRAR 2. CORRECTION: INSTRUMENT NUMBER 62R9014 WAS OMITTED FROM THIS PROPERTY IN ERROR AND WAS ADDED AND CERTIFIED ON 1999
17079	0015	CORRECTION: INSTRUMENT NUMBER 62R13148 WAS OMITTED FROM THIS PROPERTY IN ERROR AND WAS ADDED AND CERTIFIED ON 1995/11/23 BY VICKI MCARTHUR. CORRECTION: INSTRUMENT NUMBER VM208284 WAS OMITTED FROM THIS PROPERTY IN ERROR AND WAS ADDED AND CERTIFIED ON 1995/
17079	0076	CORRECTION: INSTRUMENT NUMBER LT543439 WAS OMITTED FROM THIS PROPERTY IN ERROR AND WAS ADDED AND CERTIFIED ON 2000/06/06 BY PETER GAIGLE.
17079	0087	SUBJECT ON THE DATE OF REGISTRATION 98/04/15 TO SUBSECTION 44(1) OF THE LAND TITLES ACT, EXCEPT PARAGRAPHS 3 AND 14 THEREOF AND PROVINCIAL SUCCESSION DUTIES.
17086	0052	CORRECTION: INSTRUMENT NUMBER VM201720 WAS OMITTED FROM THIS PROPERTY IN ERROR AND WAS ADDED AND CERTIFIED ON 1999/01/21 BY CAROLYN ADSETT.
17086	0291	REMAINDER FROM 17086-0253.
17087	0507	CORRECTION: INSTRUMENT NUMBER LT519226 WAS OMITTED FROM THIS PROPERTY IN ERROR AND WAS ADDED AND CERTIFIED ON 1998/11/11 BY DORRIE MORLEY. CORRECTION: INSTRUMENT NUMBER LT519228 WAS OMITTED FROM THIS PROPERTY IN ERROR AND WAS ADDED AND CERTIFIED ON 1998/1
17087	0525	SUBJECT ON THE DATE OF REGISTRATION 98/12/04 TO SUBSECTION 44(1) OF THE LAND TITLES ACT, EXCEPT PARAGRAPHS 3 AND 14 THEREOF AND PROVINCIAL SUCCESSION DUTIES.
17087	0676	THE FOLLOWING REMARK HAS BEEN ADDED ON 2004/04/02 AT 12:14 BY CUSTOMER SERVICE : SUBJECT TO THE RT TO ENTER ANY TIME WITHIN 20 YEARS AFTER 04/03/30 UNTIL THE SUBDIVISION HAS BEEN FULLY ASSUMED BY THE CITY OF HAMILTON WHICHEVER SHALL FIRST OCCUR AS IN WE22
17087	0847	SUBJECT TO SUBSECTION 44(1) OF THE LAND TITLES ACT, EXCEPT PARAGRAPHS 3 AND 14 AND PROVINCIAL SUCCESSION DUTIES AND EXCEPT PARAGRAPH 11 AND ESCHEATS OR FORFEITURE TO THE CROWN UP TO THE DATE OF REGISTRATION WITH AN ABSOLUTE TITLE.
17087	0882	SUBJECT TO SUBSECTION 44(1) OF THE LAND TITLES ACT, EXCEPT PARAGRAPHS 3 AND 14 AND PROVINCIAL SUCCESSION DUTIES AND EXCEPT PARAGRAPH 11 AND ESCHEATS OR FORFEITURE TO THE CROWN UP TO THE DATE OF REGISTRATION WITH AN ABSOLUTE TITLE.
17087	0883	SUBJECT TO SUBSECTION 44(1) OF THE LAND TITLES ACT, EXCEPT PARAGRAPHS 3 AND 14 AND PROVINCIAL SUCCESSION DUTIES AND EXCEPT PARAGRAPH 11 AND ESCHEATS OR FORFEITURE TO THE CROWN UP TO THE DATE OF REGISTRATION WITH AN ABSOLUTE TITLE.
17087	0884	SUBJECT TO SUBSECTION 44(1) OF THE LAND TITLES ACT, EXCEPT PARAGRAPHS 3 AND 14 AND PROVINCIAL SUCCESSION DUTIES AND EXCEPT PARAGRAPH 11 AND ESCHEATS OR FORFEITURE TO THE CROWN UP TO THE DATE OF REGISTRATION WITH AN ABSOLUTE TITLE.
17087	0885	SUBJECT TO SUBSECTION 44(1) OF THE LAND TITLES ACT, EXCEPT PARAGRAPHS 3 AND 14 AND PROVINCIAL SUCCESSION DUTIES AND EXCEPT PARAGRAPH 11 AND ESCHEATS OR FORFEITURE TO THE CROWN UP TO THE DATE OF REGISTRATION WITH AN ABSOLUTE TITLE.
17087	0886	SUBJECT TO SUBSECTION 44(1) OF THE LAND TITLES ACT, EXCEPT PARAGRAPHS 3 AND 14 AND PROVINCIAL SUCCESSION DUTIES AND EXCEPT PARAGRAPH 11 AND ESCHEATS OR FORFEITURE TO THE CROWN UP TO THE DATE OF REGISTRATION WITH AN ABSOLUTE TITLE.
17087	0887	SUBJECT TO SUBSECTION 44(1) OF THE LAND TITLES ACT, EXCEPT PARAGRAPHS 3 AND 14 AND PROVINCIAL SUCCESSION DUTIES AND EXCEPT PARAGRAPH 11 AND ESCHEATS OR FORFEITURE TO THE CROWN UP TO THE DATE OF REGISTRATION WITH AN ABSOLUTE TITLE.
17087	0888	SUBJECT TO SUBSECTION 44(1) OF THE LAND TITLES ACT, EXCEPT PARAGRAPHS 3 AND 14 AND PROVINCIAL SUCCESSION DUTIES AND EXCEPT PARAGRAPH 11 AND ESCHEATS OR FORFEITURE TO THE CROWN UP TO THE DATE OF REGISTRATION WITH AN ABSOLUTE TITLE.
17087	0889	SUBJECT TO SUBSECTION 44(1) OF THE LAND TITLES ACT, EXCEPT PARAGRAPHS 3 AND 14 AND PROVINCIAL SUCCESSION DUTIES AND EXCEPT PARAGRAPH 11 AND ESCHEATS OR FORFEITURE TO THE CROWN UP TO THE DATE OF REGISTRATION WITH AN ABSOLUTE TITLE.
17087	0890	SUBJECT TO SUBSECTION 44(1) OF THE LAND TITLES ACT, EXCEPT PARAGRAPHS 3 AND 14 AND PROVINCIAL SUCCESSION DUTIES AND EXCEPT PARAGRAPH 11 AND ESCHEATS OR FORFEITURE TO THE CROWN UP TO THE DATE OF REGISTRATION WITH AN ABSOLUTE TITLE.
17087	0891	SUBJECT TO SUBSECTION 44(1) OF THE LAND TITLES ACT, EXCEPT PARAGRAPHS 3 AND 14 AND PROVINCIAL SUCCESSION DUTIES AND EXCEPT PARAGRAPH 11 AND ESCHEATS OR FORFEITURE TO THE CROWN UP TO THE DATE OF REGISTRATION WITH AN ABSOLUTE TITLE.
17087	0892	SUBJECT TO SUBSECTION 44(1) OF THE LAND TITLES ACT, EXCEPT PARAGRAPHS 3 AND 14 AND PROVINCIAL SUCCESSION DUTIES AND EXCEPT PARAGRAPH 11 AND ESCHEATS OR FORFEITURE TO THE CROWN UP TO THE DATE OF REGISTRATION WITH AN ABSOLUTE TITLE.
17087	0893	SUBJECT TO SUBSECTION 44(1) OF THE LAND TITLES ACT, EXCEPT PARAGRAPHS 3 AND 14 AND PROVINCIAL SUCCESSION DUTIES AND EXCEPT PARAGRAPH 11 AND ESCHEATS OR FORFEITURE TO THE CROWN UP TO THE DATE OF REGISTRATION WITH AN ABSOLUTE TITLE.
17087	0894	SUBJECT TO SUBSECTION 44(1) OF THE LAND TITLES ACT, EXCEPT PARAGRAPHS 3 AND 14 AND PROVINCIAL SUCCESSION DUTIES AND EXCEPT PARAGRAPH 11 AND ESCHEATS OR FORFEITURE TO THE CROWN UP TO THE DATE OF REGISTRATION WITH AN ABSOLUTE TITLE.
17087	0895	SUBJECT TO SUBSECTION 44(1) OF THE LAND TITLES ACT, EXCEPT PARAGRAPHS 3 AND 14 AND PROVINCIAL SUCCESSION DUTIES AND EXCEPT PARAGRAPH 11 AND ESCHEATS OR FORFEITURE TO THE CROWN UP TO THE DATE OF REGISTRATION WITH AN ABSOLUTE TITLE.
17087	0896	SUBJECT TO SUBSECTION 44(1) OF THE LAND TITLES ACT, EXCEPT PARAGRAPHS 3 AND 14 AND PROVINCIAL SUCCESSION DUTIES AND EXCEPT PARAGRAPH 11 AND ESCHEATS OR FORFEITURE TO THE CROWN UP TO THE DATE OF REGISTRATION WITH AN ABSOLUTE TITLE.
17087	0897	SUBJECT TO SUBSECTION 44(1) OF THE LAND TITLES ACT, EXCEPT PARAGRAPHS 3 AND 14 AND PROVINCIAL SUCCESSION DUTIES AND EXCEPT PARAGRAPH 11 AND ESCHEATS OR FORFEITURE TO THE CROWN UP TO THE DATE OF REGISTRATION WITH AN ABSOLUTE TITLE.
17087	0898	SUBJECT TO SUBSECTION 44(1) OF THE LAND TITLES ACT, EXCEPT PARAGRAPHS 3 AND 14 AND PROVINCIAL SUCCESSION DUTIES AND EXCEPT PARAGRAPH 11 AND ESCHEATS OR FORFEITURE TO THE CROWN UP TO THE DATE OF REGISTRATION WITH AN ABSOLUTE TITLE.
17087	0899	SUBJECT TO SUBSECTION 44(1) OF THE LAND TITLES ACT, EXCEPT PARAGRAPHS 3 AND 14 AND PROVINCIAL SUCCESSION DUTIES AND EXCEPT PARAGRAPH 11 AND ESCHEATS OR FORFEITURE TO THE CROWN UP TO THE DATE OF REGISTRATION WITH AN ABSOLUTE TITLE.
17087	0900	SUBJECT TO SUBSECTION 44(1) OF THE LAND TITLES ACT, EXCEPT PARAGRAPHS 3 AND 14 AND PROVINCIAL SUCCESSION DUTIES AND EXCEPT PARAGRAPH 11 AND ESCHEATS OR FORFEITURE TO THE CROWN UP TO THE DATE OF REGISTRATION WITH AN ABSOLUTE TITLE.
17087	0901	SUBJECT TO SUBSECTION 44(1) OF THE LAND TITLES ACT, EXCEPT PARAGRAPHS 3 AND 14 AND PROVINCIAL SUCCESSION DUTIES AND EXCEPT PARAGRAPH 11 AND ESCHEATS OR FORFEITURE TO THE CROWN UP TO THE DATE OF REGISTRATION WITH AN ABSOLUTE TITLE.
17087	0902	SUBJECT TO SUBSECTION 44(1) OF THE LAND TITLES ACT, EXCEPT PARAGRAPHS 3 AND 14 AND PROVINCIAL SUCCESSION DUTIES AND EXCEPT PARAGRAPH 11 AND ESCHEATS OR FORFEITURE TO THE CROWN UP TO THE DATE OF REGISTRATION WITH AN ABSOLUTE TITLE.
17087	0903	SUBJECT TO SUBSECTION 44(1) OF THE LAND TITLES ACT, EXCEPT PARAGRAPHS 3 AND 14 AND PROVINCIAL SUCCESSION DUTIES AND EXCEPT PARAGRAPH 11 AND ESCHEATS OR FORFEITURE TO THE CROWN UP TO THE DATE OF REGISTRATION WITH AN ABSOLUTE TITLE.
17087	0904	SUBJECT TO SUBSECTION 44(1) OF THE LAND TITLES ACT, EXCEPT PARAGRAPHS 3 AND 14 AND PROVINCIAL SUCCESSION DUTIES AND EXCEPT PARAGRAPH 11 AND ESCHEATS OR FORFEITURE TO THE CROWN UP TO THE DATE OF REGISTRATION WITH AN ABSOLUTE TITLE.
17087	0905	SUBJECT TO SUBSECTION 44(1) OF THE LAND TITLES ACT, EXCEPT PARAGRAPHS 3 AND 14 AND PROVINCIAL SUCCESSION DUTIES AND EXCEPT PARAGRAPH 11 AND ESCHEATS OR FORFEITURE TO THE CROWN UP TO THE DATE OF REGISTRATION WITH AN ABSOLUTE TITLE.
17087	0906	SUBJECT TO SUBSECTION 44(1) OF THE LAND TITLES ACT, EXCEPT PARAGRAPHS 3 AND 14 AND PROVINCIAL SUCCESSION DUTIES AND EXCEPT PARAGRAPH 11 AND ESCHEATS OR FORFEITURE TO THE CROWN UP TO THE DATE OF REGISTRATION WITH AN ABSOLUTE TITLE.
17087	0907	SUBJECT TO SUBSECTION 44(1) OF THE LAND TITLES ACT, EXCEPT PARAGRAPHS 3 AND 14 AND PROVINCIAL SUCCESSION DUTIES AND EXCEPT PARAGRAPH 11 AND ESCHEATS OR FORFEITURE TO THE CROWN UP TO THE DATE OF REGISTRATION WITH AN ABSOLUTE TITLE.
17087	0908	SUBJECT TO SUBSECTION 44(1) OF THE LAND TITLES ACT, EXCEPT PARAGRAPHS 3 AND 14 AND PROVINCIAL SUCCESSION DUTIES AND EXCEPT PARAGRAPH 11 AND ESCHEATS OR FORFEITURE TO THE CROWN UP TO THE DATE OF REGISTRATION WITH AN ABSOLUTE TITLE.
17087	0909	SUBJECT TO SUBSECTION 44(1) OF THE LAND TITLES ACT, EXCEPT PARAGRAPHS 3 AND 14 AND PROVINCIAL SUCCESSION DUTIES AND EXCEPT PARAGRAPH 11 AND ESCHEATS OR FORFEITURE TO THE CROWN UP TO THE DATE OF REGISTRATION WITH AN ABSOLUTE TITLE.
17087	0910	SUBJECT TO SUBSECTION 44(1) OF THE LAND TITLES ACT, EXCEPT PARAGRAPHS 3 AND 14 AND PROVINCIAL SUCCESSION DUTIES AND EXCEPT PARAGRAPH 11 AND ESCHEATS OR FORFEITURE TO THE CROWN UP TO THE DATE OF REGISTRATION WITH AN ABSOLUTE TITLE.
17087	0911	SUBJECT TO SUBSECTION 44(1) OF THE LAND TITLES ACT, EXCEPT PARAGRAPHS 3 AND 14 AND PROVINCIAL SUCCESSION DUTIES AND EXCEPT PARAGRAPH 11 AND ESCHEATS OR FORFEITURE TO THE CROWN UP TO THE DATE OF REGISTRATION WITH AN ABSOLUTE TITLE.
17087	0912	SUBJECT TO SUBSECTION 44(1) OF THE LAND TITLES ACT, EXCEPT PARAGRAPHS 3 AND 14 AND PROVINCIAL SUCCESSION DUTIES AND EXCEPT PARAGRAPH 11 AND ESCHEATS OR FORFEITURE TO THE CROWN UP TO THE DATE OF REGISTRATION WITH AN ABSOLUTE TITLE.
17087	0913	SUBJECT TO SUBSECTION 44(1) OF THE LAND TITLES ACT, EXCEPT PARAGRAPHS 3 AND 14 AND PROVINCIAL SUCCESSION DUTIES AND EXCEPT PARAGRAPH 11 AND ESCHEATS OR FORFEITURE TO THE CROWN UP TO THE DATE OF REGISTRATION WITH AN ABSOLUTE TITLE.
17087	0914	SUBJECT TO SUBSECTION 44(1) OF THE LAND TITLES ACT, EXCEPT PARAGRAPHS 3 AND 14 AND PROVINCIAL SUCCESSION DUTIES AND EXCEPT PARAGRAPH 11 AND ESCHEATS OR FORFEITURE TO THE CROWN UP TO THE DATE OF REGISTRATION WITH AN ABSOLUTE TITLE.
17087	0915	SUBJECT TO SUBSECTION 44(1) OF THE LAND TITLES ACT, EXCEPT PARAGRAPHS 3 AND 14 AND PROVINCIAL SUCCESSION DUTIES AND EXCEPT PARAGRAPH 11 AND ESCHEATS OR FORFEITURE TO THE CROWN UP TO THE DATE OF REGISTRATION WITH AN ABSOLUTE TITLE.
17087	0916	SUBJECT TO SUBSECTION 44(1) OF THE LAND TITLES ACT, EXCEPT PARAGRAPHS 3 AND 14 AND PROVINCIAL SUCCESSION DUTIES AND EXCEPT PARAGRAPH 11 AND ESCHEATS OR FORFEITURE TO THE CROWN UP TO THE DATE OF REGISTRATION WITH AN ABSOLUTE TITLE.
17087	0917	SUBJECT TO SUBSECTION 44(1) OF THE LAND TITLES ACT, EXCEPT PARAGRAPHS 3 AND 14 AND PROVINCIAL SUCCESSION DUTIES AND EXCEPT PARAGRAPH 11 AND ESCHEATS OR FORFEITURE TO THE CROWN UP TO THE DATE OF REGISTRATION WITH AN ABSOLUTE TITLE.
17087	0918	SUBJECT TO SUBSECTION 44(1) OF THE LAND TITLES ACT, EXCEPT PARAGRAPHS 3 AND 14 AND PROVINCIAL SUCCESSION DUTIES AND EXCEPT PARAGRAPH 11 AND ESCHEATS OR FORFEITURE TO THE CROWN UP TO THE DATE OF REGISTRATION WITH AN ABSOLUTE TITLE.
17087	0919	SUBJECT TO SUBSECTION 44(1) OF THE LAND TITLES ACT, EXCEPT PARAGRAPHS 3 AND 14 AND PROVINCIAL SUCCESSION DUTIES AND EXCEPT PARAGRAPH 11 AND ESCHEATS OR FORFEITURE TO THE CROWN UP TO THE DATE OF REGISTRATION WITH AN ABSOLUTE TITLE.
17087	0920	SUBJECT TO SUBSECTION 44(1) OF THE LAND TITLES ACT, EXCEPT PARAGRAPHS 3 AND 14 AND PROVINCIAL SUCCESSION DUTIES AND EXCEPT PARAGRAPH 11 AND ESCHEATS OR FORFEITURE TO THE CROWN UP TO THE DATE OF REGISTRATION WITH AN ABSOLUTE TITLE.
17087	0921	SUBJECT TO SUBSECTION 44(1) OF THE LAND TITLES ACT, EXCEPT PARAGRAPHS 3 AND 14 AND PROVINCIAL SUCCESSION DUTIES AND EXCEPT PARAGRAPH 11 AND ESCHEATS OR FORFEITURE TO THE CROWN UP TO THE DATE OF REGISTRATION WITH AN ABSOLUTE TITLE.
17087	0922	SUBJECT TO SUBSECTION 44(1) OF THE LAND TITLES ACT, EXCEPT PARAGRAPHS 3 AND 14 AND PROVINCIAL SUCCESSION DUTIES AND EXCEPT PARAGRAPH 11 AND ESCHEATS OR FORFEITURE TO THE CROWN UP TO THE DATE OF REGISTRATION WITH AN ABSOLUTE TITLE. CORRECTION: INSTRUMENT N
17088	0200	ON 1999/03/29 AT 15:02 THE ESTATE/QUALIFIER WERE CHANGED TO FEE SIMPLE ABSOLUTE FROM FEE SIMPLE QUALIFIER: N/A BY BELLE FIAMELLI . THE FOLLOWING REMARK HAS BEEN ADDED ON 1999/03/29 AT 15:02 BY BELLE FIAMELLI : I. FIAMELLI.
17088	0351	CONSENT LAND DIVISION COMMITTEE LT355463. CORRECTION: INSTRUMENT NUMBER LT382784 WAS ENTERED IN ERROR AGAINST THIS PROPERTY AND WAS REMOVED AND CERTIFIED ON 1996/04/04 BY MARLENE NICHOLLS. CORRECTION: INSTRUMENT NUMBER LT382785 WAS ENTERED IN ERROR AGAINS
17088	0481	CORRECTION: INSTRUMENT NUMBER WE233239 WAS OMITTED FROM THIS PROPERTY IN ERROR AND WAS ADDED AND CERTIFIED ON 2005/03/24 BY CHRISTINE HOARAN. CORRECTION: INSTRUMENT NUMBER WCP370 WAS OMITTED FROM THIS PROPERTY IN ERROR AND WAS ADDED AND CERTIFIED ON 2005/
17090	0078	OPENED 96/02/15. THE FOLLOWING REMARK HAS BEEN ADDED ON 2005/05/09 AT 14:41 BY CRISSY DEL DUCA : SUBJECT TO SUBSECTION 44(1) OF THE LAND TITLES ACT, EXCEPT PARAGRAPH 3 AND PROVINCIAL SUCCESSION DUTIES.
17093	0951	THE FOLLOWING REMARK HAS BEEN ADDED ON 2000/06/27 AT 10:54 BY LYN WEAVER : S/T RT TO ENETER UPON FOR 5 YRS AS OF 2000/06/09 AS IN LT604669.
17093	1005	SUBJECT TO SUBSECTION 44(1) OF THE LAND TITLES ACT, EXCEPT PARAGRAPHS 11 & 14, PROVINCIAL SUCCESSION DUTIES & ESCHEATS OR FORFEITURE TO THE CROWN UP TO THE DATE OF CONVERSION & EXCEPT PARAGRAPHS 3 & 14 THEREAFTER.
17097	0065	CORRECTION: INSTRUMENT NUMBER WE10437 WAS ENTERED IN ERROR AGAINST THIS PROPERTY AND WAS REMOVED AND CERTIFIED ON 2000/10/31 BY BELLE FIAMELLI.
17097	1148	CORRECTION: VM190427 WAS ADDED AND CERTIFIED ON 1996/02/06 BY MARLENE HUNTER.
17097	1181	SUBJECT ON THE DATE OF REGISTRATION 98/08/20 TO SUBSECTION 44(1) OF THE LAND TITLES ACT, EXCEPT PARAGRAPHS 3 AND 14 THEREOF. CORRECTION: INSTRUMENT NUMBER 62R2774 WAS OMITTED FROM THIS PROPERTY IN ERROR AND WAS ADDED AND CERTIFIED ON 2000/10/31 BY BELLE F
17097	1185	SUBJECT ON THE DATE OF REGISTRATION 98/08/20 TO SUBSECTION 44(1) OF THE LAND TITLES ACT, EXCEPT PARAGRAPHS 3 AND 14 THEREOF. CORRECTION: INSTRUMENT NUMBER 62R2774 WAS OMITTED FROM THIS PROPERTY IN ERROR AND WAS ADDED AND CERTIFIED ON 2000/10/31 BY BELLE F
17097	1197	SUBJECT ON THE DATE OF REGISTRATION 98/08/20 TO SUBSECTION 44(1) OF THE LAND TITLES ACT, EXCEPT PARAGRAPHS 3 AND 14 THEREOF. CORRECTION: INSTRUMENT NUMBER 62R2774 WAS OMITTED FROM THIS PROPERTY IN ERROR AND WAS ADDED AND CERTIFIED ON 2000/10/31 BY BELLE F
17097	1198	SUBJECT ON THE DATE OF REGISTRATION 98/08/20 TO SUBSECTION 44(1) OF THE LAND TITLES ACT, EXCEPT PARAGRAPHS 3 AND 14 THEREOF. CORRECTION: INSTRUMENT NUMBER 62R2774 WAS OMITTED FROM THIS PROPERTY IN ERROR AND WAS ADDED AND CERTIFIED ON 2000/10/31 BY BELLE F
17097	1214	SUBJECT ON THE DATE OF REGISTRATION 98/08/20 TO SUBSECTION 44(1) OF THE LAND TITLES ACT, EXCEPT PARAGRAPHS 3 AND 14 THEREOF. CORRECTION: INSTRUMENT NUMBER 62R2774 WAS OMITTED FROM THIS PROPERTY IN ERROR AND WAS ADDED AND CERTIFIED ON 2000/10/31 BY BELLE F
17097	1218	SUBJECT ON THE DATE OF REGISTRATION 98/08/20 TO SUBSECTION 44(1) OF THE LAND TITLES ACT, EXCEPT PARAGRAPHS 3 AND 14 THEREOF. CORRECTION: INSTRUMENT NUMBER 62R2774 WAS OMITTED FROM THIS PROPERTY IN ERROR AND WAS ADDED AND CERTIFIED ON 2000/10/31 BY BELLE F
17097	1221	SUBJECT ON THE DATE OF REGISTRATION 98/08/20 TO SUBSECTION 44(1) OF THE LAND TITLES ACT, EXCEPT PARAGRAPHS 3 AND 14 THEREOF. CORRECTION: INSTRUMENT NUMBER 62R2774 WAS OMITTED FROM THIS PROPERTY IN ERROR AND WAS ADDED AND CERTIFIED ON 2000/10/31 BY BELLE F
17097	1227	SUBJECT ON THE DATE OF REGISTRATION 98/08/20 TO SUBSECTION 44(1) OF THE LAND TITLES ACT, EXCEPT PARAGRAPHS 3 AND 14 THEREOF. CORRECTION: INSTRUMENT NUMBER 62R2774 WAS OMITTED FROM THIS PROPERTY IN ERROR AND WAS ADDED AND CERTIFIED ON 2000/10/31 BY BELLE F
17097	1233	SUBJECT TO SUBSECTION 44 (1) OF THE LAND TITLES ACT EXCEPT PARAGRAPHS 11 AND 14, PROVINCIAL SUCCESSION DUTIES AND ESCHEATS OR FORFEITURE TO THE CROWN UP TO THE DATE OF CONVERSION AND EXCEPT PARAGRAPHS 3 AND 14 THEREAFTER.
17097	1243	SUBJECT TO SUBSECTION 44 (1) OF THE LAND TITLES ACT EXCEPT PARAGRAPHS 11 AND 14, PROVINCIAL SUCCESSION DUTIES AND ESCHEATS OR FORFEITURE TO THE CROWN UP TO THE DATE OF CONVERSION AND EXCEPT PARAGRAPHS 3 AND 14 THEREAFTER.
17098	0125	SUBJECT TO SUBSECTION 44 (1) OF THE LAND TITLES ACT, EXCEPT PARAGRAPHS 3 AND 14 AND PROVINCIAL SUCCESSION DUTIES AND EXCEPT PARAGRAPH 11 AND ESCHEATS OR FORFEITURE TO THE CROWN UP TO THE DATE OF REGISTRATION.
17098	0129	SUBJECT TO SUBSECTION 44 (1) OF THE LAND TITLES ACT, EXCEPT PARAGRAPHS 3 AND 14 AND PROVINCIAL SUCCESSION DUTIES AND EXCEPT PARAGRAPH 11 AND ESCHEATS OR FORFEITURE TO THE CROWN UP TO THE DATE OF REGISTRATION.
17098	0140	SUBJECT TO SUBSECTION 44 (1) OF THE LAND TITLES ACT, EXCEPT PARAGRAPHS 3 AND 14 AND PROVINCIAL SUCCESSION DUTIES AND EXCEPT PARAGRAPH 11 AND ESCHEATS OR FORFEITURE TO THE CROWN UP TO THE DATE OF REGISTRATION.
17098	0159	SUBJECT TO SUBSECTION 44 (1) OF THE LAND TITLES ACT, EXCEPT PARAGRAPHS 3 AND 14 AND PROVINCIAL SUCCESSION DUTIES AND EXCEPT PARAGRAPH 11 AND ESCHEATS OR FORFEITURE TO THE CROWN UP TO THE DATE OF REGISTRATION.
17098	0195	SUBJECT TO SUBSECTION 44 (1) OF THE LAND TITLES ACT, EXCEPT PARAGRAPHS 3 AND 14 AND PROVINCIAL SUCCESSION DUTIES AND EXCEPT PARAGRAPH 11 AND ESCHEATS OR FORFEITURE TO THE CROWN UP TO THE DATE OF REGISTRATION.
17098	0230	SUBJECT TO SUBSECTION 44 (1) OF THE LAND TITLES ACT, EXCEPT PARAGRAPHS 3 AND 14 AND PROVINCIAL SUCCESSION DUTIES AND EXCEPT PARAGRAPH 11 AND ESCHEATS OR FORFEITURE TO THE CROWN UP TO THE DATE OF REGISTRATION.
17102	0001	CORRECTION: INSTRUMENT NUMBER HL210593 WAS OMITTED FROM THIS PROPERTY IN ERROR AND WAS ADDED AND CERTIFIED ON 1996/12/13 BY VICKI MCARTHUR.
17102	0077	CORRECTION: INSTRUMENT NUMBER HL167546 WAS OMITTED FROM THIS PROPERTY IN ERROR AND WAS ADDED AND CERTIFIED ON 1998/05/27 BY LAND REGISTRAR 2.
17102	0086	FREE FROM ANY PUBLIC HIGHWAY.
17102	0275	FREE FROM ANY PUBLIC HIGHWAY.
17102	0289	FREE FROM ANY PUBLIC HIGHWAY.
17102	0448	SUBJECT ON THE DATE OF REGISTRATION 99/04/22 TO SUBSECTION 44 (1) OF THE LAND TITLES ACT, EXCEPT PARAGRAPHS 3 AND 14 THEREOF AND PROVINCIAL SUCCESSION DUTIES.
17113	0214	THE FOLLOWING REMARK HAS BEEN ADDED ON 1997/03/19 AT 12:46 BY LAND REGISTRAR #1 : DIVISION AND CONSOLIDATION INTO 17113-0221, 17113-0241, 17113-0239, 17113-0225, 17113-0224, 17113-0232 & 17113-0238.
17113	0215	THE FOLLOWING REMARK HAS BEEN ADDED ON 1997/03/19 AT 12:48 BY LAND REGISTRAR #1 : DIVISION AND CONSOLIDATION INTO 17113-0221, 17113-0241, 17113-0239, 17113-0225 & 17113-0224.
17113	0216	THE FOLLOWING REMARK HAS BEEN ADDED ON 1997/03/19 AT 12:49 BY LAND REGISTRAR #1 : DIVISION AND CONSOLIDATION INTO 17113-0221, 17113-0237, 17113-0236, 17113-0240, 17113-0230, 17113-0228 & 17113-0235.
17113	0217	THE FOLLOWING REMARK HAS BEEN ADDED ON 1997/03/19 AT 12:51 BY LAND REGISTRAR #1 : DIVISION AND CONSOLIDATION INTO 17113-0221, 17113-0234, 17113-0240, 17113-0233, 17113-0230, 17113-0228, 17113-0235, 17113-0227, 17113-0226, 17113-0231 & 17113-0229.
17113	0218	THE FOLLOWING REMARK HAS BEEN ADDED ON 1997/03/19 AT 12:52 BY LAND REGISTRAR #1 : DIVISION AND CONSOLIDATION INTO 17113-0221, 17113-0222 & 17113-0223.
17113	0219	THE FOLLOWING REMARK HAS BEEN ADDED ON 1997/03/19 AT 12:53 BY LAND REGISTRAR #1 : DIVISION AND CONSOLIDATION INTO 17113-0220 & 17113-0221.
17113	0222	DIVISION FROM 17113-0218.
17113	0238	DIVISION FROM 17113-0214.
17113	0240	DIVISION AND CONSOLIDATION FROM 17113-0216 & 17113-0217. CORRECTION: INSTRUMENT NUMBER VM234975 WAS ENTERED IN ERROR AGAINST THIS PROPERTY AND WAS REMOVED AND CERTIFIED ON 2001/07/30 BY ANNE MARIE BERTRAND. CORRECTION: INSTRUMENT NUMBER VM229576 WAS OMITT
17113	0241	DIVISION AND CONSOLIDATION FROM 17113-0214 & 17113-0215.
17114	0021	CORRECTION: INSTRUMENT NUMBER VM62286 WAS DELETED IN ERROR AGAINST THIS PROPERTY AND WAS RE-INSTATED ON 1996/07/15 BY DORRIE MORLEY.
17114	0073	PIN CREATED 99/05/04 MN.
17116	0063	CORRECTION: INSTRUMENT NUMBER LT486332 WAS OMITTED FROM THIS PROPERTY IN ERROR AND WAS ADDED AND CERTIFIED ON 1999/04/01 BY MARLENE HUNTER. CORRECTION: INSTRUMENT NUMBER LT486331 WAS OMITTED FROM THIS PROPERTY IN ERROR AND WAS ADDED AND CERTIFIED ON 1999/
17117	0034	CORRECTION: INSTRUMENT NUMBER HL167546 WAS OMITTED FROM THIS PROPERTY IN ERROR AND WAS ADDED AND CERTIFIED ON 1997/05/20 BY LAND REGISTRAR 2.
17121	0001	CORRECTION: INSTRUMENT NUMBER LT614145 WAS ENTERED IN ERROR AGAINST THIS PROPERTY AND WAS REMOVED AND CERTIFIED ON 2000/09/05 BY MARLENE NICHOLLS.
17121	0023	CORRECTION: INSTRUMENT NUMBER LT601461 WAS ENTERED IN ERROR AGAINST THIS PROPERTY AND WAS REMOVED AND CERTIFIED ON 2000/07/20 BY DEBBIE SARKANY.
17122	0016	CONSENT OF LAND DIVISION COMMITTEE IN LT192910 NOW ROR.
17122	0032	CONSENT LAND DIVISION COMMITTEE LT192106.
17123	0075	CORRECTION: INSTRUMENT NUMBER 62R-8968 WAS OMITTED FROM THIS PROPERTY IN ERROR AND WAS ADDED AND CERTIFIED ON 2000/11/07 BY JENNY LALONDE.
17123	0089	SUBJECT ON THE DATE OF REGISTRATION 99/08/09 TO SUBSECTION 44(1) OF THE LAND TITLES ACT, EXCEPT PARAGRAPHS 3 AND 14 AND PROVINCIAL SUCCESSION DUTIES.
17123	0090	SUBJECT ON THE DATE OF REGISTRATION 99/08/09 TO SUBSECTION 44 (1) OF THE LAND TITLES ACT, EXCEPT PARAGRAPHS 11 AND 14, PROVINCIAL SUCCESSION DUTIES AND ESCHEATS OR FORFEITURE TO THE CROWN UP TO THE DATE OF CONVERSION AND EXCEPT PARAGRAPHS 3 AND 14 THEREAF
17124	0144	CORRECTION: INSTRUMENT NUMBER LT364781 WAS OMITTED FROM THIS PROPERTY IN ERROR AND WAS ADDED AND CERTIFIED ON 1995/07/26 BY PETER GAIGAL.
17125	0095	LT187628 CONSENT OF LAND DIVISION COMMITTEE.
17125	0098	LT182764 CONSENT LAND DIVISION COMMITTEE.
17125	0099	LT182111 CONSENT OF LAND DIVISION COMMITTEE.
17125	0104	LT182864 CONSENT OF LAND DIVISION COMMITTEE.
17129	0028	CORRECTION: INSTRUMENT NUMBER VM93890 WAS OMITTED FROM THIS PROPERTY IN ERROR AND WAS ADDED AND CERTIFIED ON 1995/08/22 BY ERIC CANNON.
17129	0115	SUBJECT ON THE DATE OF REGISTRATION 99/09/16 TO SUBSECTION 44(1) OF THE LAND TITLES ACT, EXCEPT PARAGRAPHS 3 AND 14 THEREOF AND PROVINCIAL SUCCESSION DUTIES.
17129	0116	SUBJECT ON THE DATE OF REGISTRATION 99/09/16 TO SUBSECTION 44 (1) OF THE LAND TITLES ACT, EXCEPT PARAGRAPHS 3 AND 14 THEREOF AND PROVINCIAL SUCCESSION DUTIES.
17129	0117	SUBJECT ON THE DATE OF REGISTRATION 99/09/16 TO SUBSECTION 44 (1) OF THE LAND TITLES ACT, EXCEPT PARAGRAPHS 3 AND 14 THEREOF AND PROVINCIAL SUCCESSION DUTIES.
17129	0118	SUBJECT ON THE DATE OF REGISTRATION 99/09/16 TO SUBSECTION 44 (1) OF THE LAND TITLES ACT, EXCEPT PARAGRAPHS 3 AND 14 THEREOF AND PROVINCIAL SUCCESSION DUTIES.
17129	0119	SUBJECT ON THE DATE OF REGISTRATION 99/09/16 TO SUBSECTION 44 (1) OF THE LAND TITLES ACT, EXCEPT PARAGRAPHS 3 AND 14 THEREOF AND PROVINCIAL SUCCESSION DUTIES.
17129	0120	SUBJECT ON THE DATE OF REGISTRATION 99/09/16 TO SUBSECTION 44 (1) OF THE LAND TITLES ACT, EXCEPT PARAGRAPHS 3 AND 14 THEREOF AND PROVINCIAL SUCCESSION DUTIES.
17129	0121	SUBJECT ON THE DATE OF REGISTRATION 99/09/16 TO SUBSECTION 44 (1) OF THE LAND TITLES ACT, EXCEPT PARAGRAPHS 3 AND 14 THEREOF AND PROVINCIAL SUCCESSION DUTIES.
17129	0122	SUBJECT ON THE DATE OF REGISTRATION 99/09/16 TO SUBSECTION 44 (1) OF THE LAND TITLES ACT, EXCEPT PARAGRAPHS 3 AND 14 THEREOF AND PROVINCIAL SUCCESSION DUTIES.
17129	0123	SUBJECT ON THE DATE OF REGISTRATION 99/09/16 TO SUBSECTION 44 (1) OF THE LAND TITLES ACT, EXCEPT PARAGRAPHS 3 AND 14 THEREOF AND PROVINCIAL SUCCESSION DUTIES.
17129	0124	SUBJECT ON THE DATE OF REGISTRATION 99/09/16 TO SUBSECTION 44 (1) OF THE LAND TITLES ACT, EXCEPT PARAGRAPHS 3 AND 14 THEREOF AND PROVINCIAL SUCCESSION DUTIES.
17129	0125	SUBJECT ON THE DATE OF REGISTRATION 99/09/16 TO SUBSECTION 44 (1) OF THE LAND TITLES ACT, EXCEPT PARAGRAPHS 3 AND 14 THEREOF AND PROVINCIAL SUCCESSION DUTIES.
17129	0126	SUBJECT ON THE DATE OF REGISTRATION 99/09/16 TO SUBSECTION 44 (1) OF THE LAND TITLES ACT, EXCEPT PARAGRAPHS 3 AND 14 THEREOF AND PROVINCIAL SUCCESSION DUTIES.
17129	0127	SUBJECT ON THE DATE OF REGISTRATION 99/09/16 TO SUBSECTION 44 (1) OF THE LAND TITLES ACT, EXCEPT PARAGRAPHS 3 AND 14 THEREOF AND PROVINCIAL SUCCESSION DUTIES.
17129	0128	SUBJECT ON THE DATE OF REGISTRATION 99/09/16 TO SUBSECTION 44 (1) OF THE LAND TITLES ACT, EXCEPT PARAGRAPHS 3 AND 14 THEREOF AND PROVINCIAL SUCCESSION DUTIES.
17129	0129	SUBJECT ON THE DATE OF REGISTRATION 99/09/16 TO SUBSECTION 44 (1) OF THE LAND TITLES ACT, EXCEPT PARAGRAPHS 3 AND 14 THEREOF AND PROVINCIAL SUCCESSION DUTIES.
17129	0133	CORRECTION: INSTRUMENT NUMBER VM93890 WAS ENTERED IN ERROR AGAINST THIS PROPERTY AND WAS REMOVED AND CERTIFIED ON 2000/12/28 BY AM BERTRAND.
17130	0007	THIS PARCEL WAS CREATED BASED ON INFORMATION CONTAINED IN DOCUMENT(S) WHICH IS (ARE) RECORDED FOR PIN IDENTIFICATION ONLY. CORRECTION: DOCUMENT WE10056121 REMOVED FROM 17130-0007 ON 2023/05/10 AT 15:47 BY STURINO, NADINE.
17130	0025	THIS PARCEL WAS CREATED BASED ON INFORMATION CONTAINED IN DOCUMENT(S) WHICH IS (ARE) RECORDED FOR PIN IDENTIFICATION ONLY.
17132	0311	CORRECTION: INSTRUMENT NUMBER AB104346 WAS OMITTED FROM THIS PROPERTY IN ERROR AND WAS ADDED AND CERTIFIED ON 2000/07/13 BY AM BERTRAND.
17132	0313	CORRECTION: INSTRUMENT NUMBER AB104346 WAS ENTERED IN ERROR AGAINST THIS PROPERTY AND WAS REMOVED AND CERTIFIED ON 2000/07/13 BY AM BERTRAND.
17132	0347	CORRECTION: INSTRUMENT NUMBER CD181664 WAS OMITTED FROM THIS PROPERTY IN ERROR AND WAS ADDED AND CERTIFIED ON 2004/03/30 BY ANNETTE VAN DUYN.
17132	0377	CORRECTION: INSTRUMENT NUMBER VM248289 WAS ENTERED IN ERROR AGAINST THIS PROPERTY AND WAS REMOVED AND CERTIFIED ON 2000/07/11 BY DEBBIE SARKANY.
17136	0259	THIS PARCEL WAS CREATED BASED ON INFORMATION CONTAINED IN DOCUMENT(S) VM209469, WHICH IS (ARE) RECORDED FOR PIN IDENTIFICATION ONLY.
17136	0266	THIS PARCEL WAS CREATED BASED ON INFORMATION CONTAINED IN DOCUMENT(S) AB103505,AB128487,AB151259,AB182743, AB189504,AB237089,AB237090,HL91703, WHICH IS (ARE) RECORDED FOR PIN IDENTIFICATION ONLY.
17136	0269	THIS PARCEL WAS CREATED BASED ON INFORMATION CONTAINED IN DOCUMENT(S) HL140266, WHICH IS (ARE) RECORDED FOR PIN IDENTIFICATION ONLY.
17136	0309	THIS PARCEL WAS CREATED BASED ON INFORMATION CONTAINED IN DOCUMENT(S) CD196185,CD196186, WHICH IS (ARE) RECORDED FOR PIN IDENTIFICATION ONLY.
17136	0318	THIS PARCEL WAS CREATED BASED ON INFORMATION CONTAINED IN DOCUMENT(S) CD444969, WHICH IS (ARE) RECORDED FOR PIN IDENTIFICATION ONLY.
17136	0323	THIS PARCEL WAS CREATED BASED ON INFORMATION CONTAINED IN DOCUMENT(S) CD422622, WHICH IS (ARE) RECORDED FOR PIN IDENTIFICATION ONLY.
17136	0326	THIS PARCEL WAS CREATED BASED ON INFORMATION CONTAINED IN DOCUMENT(S) CD500979, WHICH IS (ARE) RECORDED FOR PIN IDENTIFICATION ONLY.
17136	0353	THIS PARCEL WAS CREATED BASED ON INFORMATION CONTAINED IN DOCUMENT(S) VM210725, WHICH IS (ARE) RECORDED FOR PIN IDENTIFICATION ONLY.
17136	0398	THIS PARCEL WAS CREATED BASED ON INFORMATION CONTAINED IN DOCUMENT(S) CD304442, WHICH IS (ARE) RECORDED FOR PIN IDENTIFICATION ONLY.
17136	0399	THIS PARCEL WAS CREATED BASED ON INFORMATION CONTAINED IN DOCUMENT(S) VM145139, WHICH IS (ARE) RECORDED FOR PIN IDENTIFICATION ONLY.
17136	0430	THIS PARCEL WAS CREATED BASED ON INFORMATION CONTAINED IN DOCUMENT(S) CD403524, WHICH IS (ARE) RECORDED FOR PIN IDENTIFICATION ONLY.
17137	0011	THIS PARCEL WAS CREATED BASED ON INFORMATION CONTAINED IN DOCUMENT(S) HL310779, WHICH IS (ARE) RECORDED FOR PIN IDENTIFICATION ONLY.
17137	0031	THIS PARCEL WAS CREATED BASED ON INFORMATION CONTAINED IN DOCUMENT(S) CD440004, WHICH IS (ARE) RECORDED FOR PIN IDENTIFICATION ONLY.
17137	0046	THIS PARCEL WAS CREATED BASED ON INFORMATION CONTAINED IN DOCUMENT(S) VM235628, WHICH IS (ARE) RECORDED FOR PIN IDENTIFICATION ONLY.
17137	0050	THIS PARCEL WAS CREATED BASED ON INFORMATION CONTAINED IN DOCUMENT(S) CD476074, WHICH IS (ARE) RECORDED FOR PIN IDENTIFICATION ONLY.
17137	0052	THIS PARCEL WAS CREATED BASED ON INFORMATION CONTAINED IN DOCUMENT(S) CD504519, WHICH IS (ARE) RECORDED FOR PIN IDENTIFICATION ONLY.
17137	0056	THIS PARCEL WAS CREATED BASED ON INFORMATION CONTAINED IN DOCUMENT(S) AB18785, WHICH IS (ARE) RECORDED FOR PIN IDENTIFICATION ONLY.
17137	0062	THIS PARCEL WAS CREATED BASED ON INFORMATION CONTAINED IN DOCUMENT(S) CD399690, WHICH IS (ARE) RECORDED FOR PIN IDENTIFICATION ONLY.
17137	0065	THIS PARCEL WAS CREATED BASED ON INFORMATION CONTAINED IN DOCUMENT(S) VM123714, WHICH IS (ARE) RECORDED FOR PIN IDENTIFICATION ONLY.
17137	0072	THIS PARCEL WAS CREATED BASED ON INFORMATION CONTAINED IN DOCUMENT(S) CD311254, WHICH IS (ARE) RECORDED FOR PIN IDENTIFICATION ONLY.
17137	0105	THIS PARCEL WAS CREATED BASED ON INFORMATION CONTAINED IN DOCUMENT(S) VM228334, WHICH IS (ARE) RECORDED FOR PIN IDENTIFICATION ONLY.
17137	0122	THIS PARCEL WAS CREATED BASED ON INFORMATION CONTAINED IN DOCUMENT(S) AB370733, WHICH IS (ARE) RECORDED FOR PIN IDENTIFICATION ONLY.
17137	0140	THIS PARCEL WAS CREATED BASED ON INFORMATION CONTAINED IN DOCUMENT(S) AB207268, WHICH IS (ARE) RECORDED FOR PIN IDENTIFICATION ONLY.
17137	0161	THIS PARCEL WAS CREATED BASED ON INFORMATION CONTAINED IN DOCUMENT(S) AB101068,AB102060,AB104740,AB116902, AB122743, WHICH IS (ARE) RECORDED FOR PIN IDENTIFICATION ONLY.
17137	0169	THIS PARCEL WAS CREATED BASED ON INFORMATION CONTAINED IN DOCUMENT(S) VM79409, WHICH IS (ARE) RECORDED FOR PIN IDENTIFICATION ONLY.
17138	0251	CORRECTION: INSTRUMENT NUMBER LT459702 WAS OMITTED FROM THIS PROPERTY IN ERROR AND WAS ADDED AND CERTIFIED ON 1997/11/18 BY PETER GAIGAL.
17139	0250	CORRECTION: INSTRUMENT NUMBER HL270790 WAS OMITTED FROM THIS PROPERTY IN ERROR AND WAS ADDED AND CERTIFIED ON 1997/04/11 BY MARLENE HUNTER. CORRECTION: INSTRUMENT NUMBER CD72633 WAS OMITTED FROM THIS PROPERTY IN ERROR AND WAS ADDED AND CERTIFIED ON 1997/0
17140	0023	THIS PARCEL WAS CREATED BASED ON INFORMATION CONTAINED IN DOCUMENT(S) CD180253,CD299419,CD317782,CD444756, WHICH IS (ARE) RECORDED FOR PIN IDENTIFICATION ONLY.
17140	0030	THIS PARCEL WAS CREATED BASED ON INFORMATION CONTAINED IN DOCUMENT(S) CD415458, WHICH IS (ARE) RECORDED FOR PIN IDENTIFICATION ONLY.
17140	0047	THIS PARCEL WAS CREATED BASED ON INFORMATION CONTAINED IN DOCUMENT(S) CD316584, WHICH IS (ARE) RECORDED FOR PIN IDENTIFICATION ONLY.
17140	0048	THIS PARCEL WAS CREATED BASED ON INFORMATION CONTAINED IN DOCUMENT(S) VM84259, WHICH IS (ARE) RECORDED FOR PIN IDENTIFICATION ONLY.
17140	0052	THIS PARCEL WAS CREATED BASED ON INFORMATION CONTAINED IN DOCUMENT(S) CD429308, WHICH IS (ARE) RECORDED FOR PIN IDENTIFICATION ONLY.
17140	0071	THIS PARCEL WAS CREATED BASED ON INFORMATION CONTAINED IN DOCUMENT(S) VM59730, WHICH IS (ARE) RECORDED FOR PIN IDENTIFICATION ONLY.
17140	0072	THIS PARCEL WAS CREATED BASED ON INFORMATION CONTAINED IN DOCUMENT(S) CD141717, WHICH IS (ARE) RECORDED FOR PIN IDENTIFICATION ONLY.
17140	0078	THIS PARCEL WAS CREATED BASED ON INFORMATION CONTAINED IN DOCUMENT(S) CD475230, WHICH IS (ARE) RECORDED FOR PIN IDENTIFICATION ONLY.
17140	0079	THIS PARCEL WAS CREATED BASED ON INFORMATION CONTAINED IN DOCUMENT(S) VM127664, WHICH IS (ARE) RECORDED FOR PIN IDENTIFICATION ONLY.
17140	0084	THIS PARCEL WAS CREATED BASED ON INFORMATION CONTAINED IN DOCUMENT(S) VM127658, WHICH IS (ARE) RECORDED FOR PIN IDENTIFICATION ONLY.
17140	0085	THIS PARCEL WAS CREATED BASED ON INFORMATION CONTAINED IN DOCUMENT(S) VM188189, WHICH IS (ARE) RECORDED FOR PIN IDENTIFICATION ONLY.
17140	0112	THIS PARCEL WAS CREATED BASED ON INFORMATION CONTAINED IN DOCUMENT(S) NS287313, WHICH IS (ARE) RECORDED FOR PIN IDENTIFICATION ONLY. THE FOLLOWING REMARK HAS BEEN ADDED ON 1999/03/04 AT 12:38 BY BELLE FIAMELLI : I. FIAMELLI.
17140	0115	THIS PARCEL WAS CREATED BASED ON INFORMATION CONTAINED IN DOCUMENT(S) AB326955, WHICH IS (ARE) RECORDED FOR PIN IDENTIFICATION ONLY.
17140	0116	THIS PARCEL WAS CREATED BASED ON INFORMATION CONTAINED IN DOCUMENT(S) VM74382, WHICH IS (ARE) RECORDED FOR PIN IDENTIFICATION ONLY.
17140	0139	THIS PARCEL WAS CREATED BASED ON INFORMATION CONTAINED IN DOCUMENT(S) AB254656, WHICH IS (ARE) RECORDED FOR PIN IDENTIFICATION ONLY.
17140	0141	THIS PARCEL WAS CREATED BASED ON INFORMATION CONTAINED IN DOCUMENT(S) AB53501, WHICH IS (ARE) RECORDED FOR PIN IDENTIFICATION ONLY.
17140	0145	THIS PARCEL WAS CREATED BASED ON INFORMATION CONTAINED IN DOCUMENT(S) VM121250,VM235147, WHICH IS (ARE) RECORDED FOR PIN IDENTIFICATION ONLY.
17140	0146	THIS PARCEL WAS CREATED BASED ON INFORMATION CONTAINED IN DOCUMENT(S) CD287730, WHICH IS (ARE) RECORDED FOR PIN IDENTIFICATION ONLY.
17140	0154	THIS PARCEL WAS CREATED BASED ON INFORMATION CONTAINED IN DOCUMENT(S) VM232626, WHICH IS (ARE) RECORDED FOR PIN IDENTIFICATION ONLY.
17140	0156	THIS PARCEL WAS CREATED BASED ON INFORMATION CONTAINED IN DOCUMENT(S) VM82522, WHICH IS (ARE) RECORDED FOR PIN IDENTIFICATION ONLY.
17140	0199	THIS PARCEL WAS CREATED BASED ON INFORMATION CONTAINED IN DOCUMENT(S) AB226022, WHICH IS (ARE) RECORDED FOR PIN IDENTIFICATION ONLY.
17140	0211	THIS PARCEL WAS CREATED BASED ON INFORMATION CONTAINED IN DOCUMENT(S) VM1131, WHICH IS (ARE) RECORDED FOR PIN IDENTIFICATION ONLY.
17140	0227	THIS PARCEL WAS CREATED BASED ON INFORMATION CONTAINED IN DOCUMENT(S) CD458766, WHICH IS (ARE) RECORDED FOR PIN IDENTIFICATION ONLY.
17141	0022	THIS PARCEL WAS CREATED BASED ON INFORMATION CONTAINED IN DOCUMENT(S) CD504971, WHICH IS (ARE) RECORDED FOR PIN IDENTIFICATION ONLY.
17141	0031	THIS PARCEL WAS CREATED BASED ON INFORMATION CONTAINED IN DOCUMENT(S) NS141418, WHICH IS (ARE) RECORDED FOR PIN IDENTIFICATION ONLY.
17141	0048	THIS PARCEL WAS CREATED BASED ON INFORMATION CONTAINED IN DOCUMENT(S) VM53961, WHICH IS (ARE) RECORDED FOR PIN IDENTIFICATION ONLY.
17141	0049	THIS PARCEL WAS CREATED BASED ON INFORMATION CONTAINED IN DOCUMENT(S) VM67650, WHICH IS (ARE) RECORDED FOR PIN IDENTIFICATION ONLY.
17141	0050	THIS PARCEL WAS CREATED BASED ON INFORMATION CONTAINED IN DOCUMENT(S) CD465221, WHICH IS (ARE) RECORDED FOR PIN IDENTIFICATION ONLY.
17141	0069	THIS PARCEL WAS CREATED BASED ON INFORMATION CONTAINED IN DOCUMENT(S) HL91441, WHICH IS (ARE) RECORDED FOR PIN IDENTIFICATION ONLY.
17141	0074	THIS PARCEL WAS CREATED BASED ON INFORMATION CONTAINED IN DOCUMENT(S) CD472791, WHICH IS (ARE) RECORDED FOR PIN IDENTIFICATION ONLY.
17141	0084	THIS PARCEL WAS CREATED BASED ON INFORMATION CONTAINED IN DOCUMENT(S) VM33808, WHICH IS (ARE) RECORDED FOR PIN IDENTIFICATION ONLY.
17141	0089	THIS PARCEL WAS CREATED BASED ON INFORMATION CONTAINED IN DOCUMENT(S) VM234954, WHICH IS (ARE) RECORDED FOR PIN IDENTIFICATION ONLY.
17141	0094	THIS PARCEL WAS CREATED BASED ON INFORMATION CONTAINED IN DOCUMENT(S) CD322079, WHICH IS (ARE) RECORDED FOR PIN IDENTIFICATION ONLY.
17141	0103	THIS PARCEL WAS CREATED BASED ON INFORMATION CONTAINED IN DOCUMENT(S) NS44717,NS44746, WHICH IS (ARE) RECORDED FOR PIN IDENTIFICATION ONLY.
17141	0110	THIS PARCEL WAS CREATED BASED ON INFORMATION CONTAINED IN DOCUMENT(S) VM236479, WHICH IS (ARE) RECORDED FOR PIN IDENTIFICATION ONLY.
17141	0122	THIS PARCEL WAS CREATED BASED ON INFORMATION CONTAINED IN DOCUMENT(S) VM138843, WHICH IS (ARE) RECORDED FOR PIN IDENTIFICATION ONLY.
17141	0125	THIS PARCEL WAS CREATED BASED ON INFORMATION CONTAINED IN DOCUMENT(S) CD20196, WHICH IS (ARE) RECORDED FOR PIN IDENTIFICATION ONLY.
17141	0134	THIS PARCEL WAS CREATED BASED ON INFORMATION CONTAINED IN DOCUMENT(S) VM235613, WHICH IS (ARE) RECORDED FOR PIN IDENTIFICATION ONLY.
17141	0138	THIS PARCEL WAS CREATED BASED ON INFORMATION CONTAINED IN DOCUMENT(S) CD215642, WHICH IS (ARE) RECORDED FOR PIN IDENTIFICATION ONLY.
17141	0150	THIS PARCEL WAS CREATED BASED ON INFORMATION CONTAINED IN DOCUMENT(S) CD331055,CD331056,CD331057,CD331058, CD331059,CD331060,CD331061,CD331062,VM145280,VM59968, WHICH IS (ARE) RECORDED FOR PIN IDENTIFICATION ONLY.
17141	0153	THIS PARCEL WAS CREATED BASED ON INFORMATION CONTAINED IN DOCUMENT(S) CD255852, WHICH IS (ARE) RECORDED FOR PIN IDENTIFICATION ONLY.
17141	0164	THIS PARCEL WAS CREATED BASED ON INFORMATION CONTAINED IN DOCUMENT(S) VM196791, WHICH IS (ARE) RECORDED FOR PIN IDENTIFICATION ONLY.
17141	0165	THIS PARCEL WAS CREATED BASED ON INFORMATION CONTAINED IN DOCUMENT(S) AB374189, WHICH IS (ARE) RECORDED FOR PIN IDENTIFICATION ONLY.
17141	0166	THIS PARCEL WAS CREATED BASED ON INFORMATION CONTAINED IN DOCUMENT(S) NS213674, WHICH IS (ARE) RECORDED FOR PIN IDENTIFICATION ONLY.
17141	0167	THIS PARCEL WAS CREATED BASED ON INFORMATION CONTAINED IN DOCUMENT(S) VM39755, WHICH IS (ARE) RECORDED FOR PIN IDENTIFICATION ONLY.
17141	0168	THIS PARCEL WAS CREATED BASED ON INFORMATION CONTAINED IN DOCUMENT(S) VM137608, WHICH IS (ARE) RECORDED FOR PIN IDENTIFICATION ONLY.
17141	0182	THIS PARCEL WAS CREATED BASED ON INFORMATION CONTAINED IN DOCUMENT(S) VM11258, WHICH IS (ARE) RECORDED FOR PIN IDENTIFICATION ONLY.
17141	0201	THIS PARCEL WAS CREATED BASED ON INFORMATION CONTAINED IN DOCUMENT(S) CD207901, WHICH IS (ARE) RECORDED FOR PIN IDENTIFICATION ONLY.
17141	0203	THIS PARCEL WAS CREATED BASED ON INFORMATION CONTAINED IN DOCUMENT(S) VM204021, WHICH IS (ARE) RECORDED FOR PIN IDENTIFICATION ONLY.
17141	0223	THIS PARCEL WAS CREATED BASED ON INFORMATION CONTAINED IN DOCUMENT(S):VM39755 WHICH IS (ARE) RECORDED FOR PIN IDENTIFICATION ONLY.
17141	0225	THIS PARCEL WAS CREATED BASED ON INFORMATION CONTAINED IN DOCUMENT(S):VM137608 WHICH IS (ARE) RECORDED FOR PIN IDENTIFICATION ONLY.
17141	0227	THIS PARCEL WAS CREATED BASED ON INFORMATION CONTAINED IN DOCUMENT(S):NS213674, AB374189, VM196791 WHICH IS (ARE) RECORDED FOR PIN IDENTIFICATION ONLY.
17142	0033	THIS PARCEL WAS CREATED BASED ON INFORMATION CONTAINED IN DOCUMENT(S) CD339025, WHICH IS (ARE) RECORDED FOR PIN IDENTIFICATION ONLY.
17142	0050	THIS PARCEL WAS CREATED BASED ON INFORMATION CONTAINED IN DOCUMENT(S) VM28892, WHICH IS (ARE) RECORDED FOR PIN IDENTIFICATION ONLY.
17142	0059	THIS PARCEL WAS CREATED BASED ON INFORMATION CONTAINED IN DOCUMENT(S) CD472017, WHICH IS (ARE) RECORDED FOR PIN IDENTIFICATION ONLY.
17142	0070	THIS PARCEL WAS CREATED BASED ON INFORMATION CONTAINED IN DOCUMENT(S) VM217464, WHICH IS (ARE) RECORDED FOR PIN IDENTIFICATION ONLY.
17142	0091	THIS PARCEL WAS CREATED BASED ON INFORMATION CONTAINED IN DOCUMENT(S) VM124721, WHICH IS (ARE) RECORDED FOR PIN IDENTIFICATION ONLY.
17142	0094	THIS PARCEL WAS CREATED BASED ON INFORMATION CONTAINED IN DOCUMENT(S) VM236811, WHICH IS (ARE) RECORDED FOR PIN IDENTIFICATION ONLY.
17142	0105	THIS PARCEL WAS CREATED BASED ON INFORMATION CONTAINED IN DOCUMENT(S) VM137646, WHICH IS (ARE) RECORDED FOR PIN IDENTIFICATION ONLY.
17142	0124	THIS PARCEL WAS CREATED BASED ON INFORMATION CONTAINED IN DOCUMENT(S) HL155403, WHICH IS (ARE) RECORDED FOR PIN IDENTIFICATION ONLY.
17142	0129	THIS PARCEL WAS CREATED BASED ON INFORMATION CONTAINED IN DOCUMENT(S) VM217739, WHICH IS (ARE) RECORDED FOR PIN IDENTIFICATION ONLY.
17142	0133	THIS PARCEL WAS CREATED BASED ON INFORMATION CONTAINED IN DOCUMENT(S) CD468482, WHICH IS (ARE) RECORDED FOR PIN IDENTIFICATION ONLY.
17142	0134	THIS PARCEL WAS CREATED BASED ON INFORMATION CONTAINED IN DOCUMENT(S) VM113708, WHICH IS (ARE) RECORDED FOR PIN IDENTIFICATION ONLY.
17143	0009	THIS PARCEL WAS CREATED BASED ON INFORMATION CONTAINED IN DOCUMENT(S) CD386439, WHICH IS (ARE) RECORDED FOR PIN IDENTIFICATION ONLY.
17143	0010	THIS PARCEL WAS CREATED BASED ON INFORMATION CONTAINED IN DOCUMENT(S) VM174631, WHICH IS (ARE) RECORDED FOR PIN IDENTIFICATION ONLY.
17143	0012	THIS PARCEL WAS CREATED BASED ON INFORMATION CONTAINED IN DOCUMENT(S) CD500344,VM122630, WHICH IS (ARE) RECORDED FOR PIN IDENTIFICATION ONLY.
17143	0014	THIS PARCEL WAS CREATED BASED ON INFORMATION CONTAINED IN DOCUMENT(S) CD430758, WHICH IS (ARE) RECORDED FOR PIN IDENTIFICATION ONLY.
17143	0021	THIS PARCEL WAS CREATED BASED ON INFORMATION CONTAINED IN DOCUMENT(S) CD157092, WHICH IS (ARE) RECORDED FOR PIN IDENTIFICATION ONLY.
17143	0028	THIS PARCEL WAS CREATED BASED ON INFORMATION CONTAINED IN DOCUMENT(S) VM102079, WHICH IS (ARE) RECORDED FOR PIN IDENTIFICATION ONLY. CORRECTION: DOCUMENT WE10055826 REMOVED FROM 17143-0028 ON 2023/01/10 AT 13:15 BY STURINO, NADINE.
17143	0034	THIS PARCEL WAS CREATED BASED ON INFORMATION CONTAINED IN DOCUMENT(S) CD420414, WHICH IS (ARE) RECORDED FOR PIN IDENTIFICATION ONLY.
17143	0047	THIS PARCEL WAS CREATED BASED ON INFORMATION CONTAINED IN DOCUMENT(S) VM172092, WHICH IS (ARE) RECORDED FOR PIN IDENTIFICATION ONLY.
17143	0051	THIS PARCEL WAS CREATED BASED ON INFORMATION CONTAINED IN DOCUMENT(S) CD247064, WHICH IS (ARE) RECORDED FOR PIN IDENTIFICATION ONLY.
17143	0059	THIS PARCEL WAS CREATED BASED ON INFORMATION CONTAINED IN DOCUMENT(S) VM230563, WHICH IS (ARE) RECORDED FOR PIN IDENTIFICATION ONLY.
17143	0072	THIS PARCEL WAS CREATED BASED ON INFORMATION CONTAINED IN DOCUMENT(S) VM235473, WHICH IS (ARE) RECORDED FOR PIN IDENTIFICATION ONLY.
17143	0092	THIS PARCEL WAS CREATED BASED ON INFORMATION CONTAINED IN DOCUMENT(S) VM59739, WHICH IS (ARE) RECORDED FOR PIN IDENTIFICATION ONLY.
17143	0094	THIS PARCEL WAS CREATED BASED ON INFORMATION CONTAINED IN DOCUMENT(S) VM12384, WHICH IS (ARE) RECORDED FOR PIN IDENTIFICATION ONLY.
17143	0161	THIS PARCEL WAS CREATED BASED ON INFORMATION CONTAINED IN DOCUMENT(S):WHICH IS (ARE) RECORDED FOR PIN IDENTIFICATION ONLY.
17144	0027	THIS PARCEL WAS CREATED BASED ON INFORMATION CONTAINED IN DOCUMENT(S) CD363989, WHICH IS (ARE) RECORDED FOR PIN IDENTIFICATION ONLY.
17144	0065	THIS PARCEL WAS CREATED BASED ON INFORMATION CONTAINED IN DOCUMENT(S) VM167553, WHICH IS (ARE) RECORDED FOR PIN IDENTIFICATION ONLY.
17144	0066	THIS PARCEL WAS CREATED BASED ON INFORMATION CONTAINED IN DOCUMENT(S) CD171151, WHICH IS (ARE) RECORDED FOR PIN IDENTIFICATION ONLY.
17144	0067	THIS PARCEL WAS CREATED BASED ON INFORMATION CONTAINED IN DOCUMENT(S) CD281916,CD331765, WHICH IS (ARE) RECORDED FOR PIN IDENTIFICATION ONLY.
17144	0075	THIS PARCEL WAS CREATED BASED ON INFORMATION CONTAINED IN DOCUMENT(S) WHICH IS (ARE) RECORDED FOR PIN IDENTIFICATION ONLY.
17145	0004	THIS PARCEL WAS CREATED BASED ON INFORMATION CONTAINED IN DOCUMENT(S) VM145690, WHICH IS (ARE) RECORDED FOR PIN IDENTIFICATION ONLY.
17145	0005	THIS PARCEL WAS CREATED BASED ON INFORMATION CONTAINED IN DOCUMENT(S) CD319289, WHICH IS (ARE) RECORDED FOR PIN IDENTIFICATION ONLY.
17145	0007	THIS PARCEL WAS CREATED BASED ON INFORMATION CONTAINED IN DOCUMENT(S) VM56593, WHICH IS (ARE) RECORDED FOR PIN IDENTIFICATION ONLY.
17145	0017	THIS PARCEL WAS CREATED BASED ON INFORMATION CONTAINED IN DOCUMENT(S) VM178944, WHICH IS (ARE) RECORDED FOR PIN IDENTIFICATION ONLY.
17145	0049	THIS PARCEL WAS CREATED BASED ON INFORMATION CONTAINED IN DOCUMENT(S) VM140238, WHICH IS (ARE) RECORDED FOR PIN IDENTIFICATION ONLY.
17145	0053	THIS PARCEL WAS CREATED BASED ON INFORMATION CONTAINED IN DOCUMENT(S) CD389333, WHICH IS (ARE) RECORDED FOR PIN IDENTIFICATION ONLY.
17145	0075	THIS PARCEL WAS CREATED BASED ON INFORMATION CONTAINED IN DOCUMENT(S) VM55170, WHICH IS (ARE) RECORDED FOR PIN IDENTIFICATION ONLY.
17145	0122	THIS PARCEL WAS CREATED BASED ON INFORMATION CONTAINED IN DOCUMENT(S) VM54274, WHICH IS (ARE) RECORDED FOR PIN IDENTIFICATION ONLY.
17145	0133	THIS PARCEL WAS CREATED BASED ON INFORMATION CONTAINED IN DOCUMENT(S) CD246648, WHICH IS (ARE) RECORDED FOR PIN IDENTIFICATION ONLY.
17145	0135	THIS PARCEL WAS CREATED BASED ON INFORMATION CONTAINED IN DOCUMENT(S) VM71334, WHICH IS (ARE) RECORDED FOR PIN IDENTIFICATION ONLY.
17145	0157	THIS PARCEL WAS CREATED BASED ON INFORMATION CONTAINED IN DOCUMENT(S) VM180981, WHICH IS (ARE) RECORDED FOR PIN IDENTIFICATION ONLY.
17146	0001	THIS PARCEL WAS CREATED BASED ON INFORMATION CONTAINED IN DOCUMENT(S) CD405752, WHICH IS (ARE) RECORDED FOR PIN IDENTIFICATION ONLY.
17146	0009	THIS PARCEL WAS CREATED BASED ON INFORMATION CONTAINED IN DOCUMENT(S) VM73891, WHICH IS (ARE) RECORDED FOR PIN IDENTIFICATION ONLY.
17146	0014	THIS PARCEL WAS CREATED BASED ON INFORMATION CONTAINED IN DOCUMENT(S) CD473597, WHICH IS (ARE) RECORDED FOR PIN IDENTIFICATION ONLY.
17146	0036	THIS PARCEL WAS CREATED BASED ON INFORMATION CONTAINED IN DOCUMENT(S) VM133752, WHICH IS (ARE) RECORDED FOR PIN IDENTIFICATION ONLY.
17146	0039	THIS PARCEL WAS CREATED BASED ON INFORMATION CONTAINED IN DOCUMENT(S) VM60019, WHICH IS (ARE) RECORDED FOR PIN IDENTIFICATION ONLY.
17146	0058	THIS PARCEL WAS CREATED BASED ON INFORMATION CONTAINED IN DOCUMENT(S) VM233923, WHICH IS (ARE) RECORDED FOR PIN IDENTIFICATION ONLY.
17146	0074	THIS PARCEL WAS CREATED BASED ON INFORMATION CONTAINED IN DOCUMENT(S) AB103334,AB154902,AB248989,AB258118, AB263386,AB301735,AB344049,AB374735,CD1513,CD184844, CD300589,CD782,VM80329,VM80330, WHICH IS (ARE) RECORDED FOR PIN IDENTIFICATION ONLY.
17146	0079	THIS PARCEL WAS CREATED BASED ON INFORMATION CONTAINED IN DOCUMENT(S) CD222683, WHICH IS (ARE) RECORDED FOR PIN IDENTIFICATION ONLY.
17146	0084	THIS PARCEL WAS CREATED BASED ON INFORMATION CONTAINED IN DOCUMENT(S) VM223197, WHICH IS (ARE) RECORDED FOR PIN IDENTIFICATION ONLY.
17146	0088	THIS PARCEL WAS CREATED BASED ON INFORMATION CONTAINED IN DOCUMENT(S) VM132764, WHICH IS (ARE) RECORDED FOR PIN IDENTIFICATION ONLY.
17146	0093	THIS PARCEL WAS CREATED BASED ON INFORMATION CONTAINED IN DOCUMENT(S) VM47926, WHICH IS (ARE) RECORDED FOR PIN IDENTIFICATION ONLY.
17146	0096	THIS PARCEL WAS CREATED BASED ON INFORMATION CONTAINED IN DOCUMENT(S) VM89986, WHICH IS (ARE) RECORDED FOR PIN IDENTIFICATION ONLY.
17146	0098	THIS PARCEL WAS CREATED BASED ON INFORMATION CONTAINED IN DOCUMENT(S) VM199308, WHICH IS (ARE) RECORDED FOR PIN IDENTIFICATION ONLY.
17146	0107	THIS PARCEL WAS CREATED BASED ON INFORMATION CONTAINED IN DOCUMENT(S) VM234515, WHICH IS (ARE) RECORDED FOR PIN IDENTIFICATION ONLY.
17146	0148	THIS PARCEL WAS CREATED BASED ON INFORMATION CONTAINED IN DOCUMENT(S) VM166225, WHICH IS (ARE) RECORDED FOR PIN IDENTIFICATION ONLY.
17146	0152	THIS PARCEL WAS CREATED BASED ON INFORMATION CONTAINED IN DOCUMENT(S) VM230606, WHICH IS (ARE) RECORDED FOR PIN IDENTIFICATION ONLY.
17146	0177	THIS PARCEL WAS CREATED BASED ON INFORMATION CONTAINED IN DOCUMENT(S):AB263386,AB301735,AB344049,AB374735,CD184844,CD300589,CD782,VM80329,VM80330, CD1513 WHICH ARE RECORDED FOR PIN IDENTIFICATION ONLY.
17148	0212	CORRECTION: INSTRUMENT NUMBER WE72106 WAS OMITTED FROM THIS PROPERTY IN ERROR AND WAS ADDED AND CERTIFIED ON 2002/02/20 BY CHRISTINE HOARAN.
17148	0218	SUBJECT ON THE DATE OF REGISTRATION 98/10/29 TO SUBSECTION 44(1) OF THE LAND TITLES ACT, EXCEPT PARAGRAPHS 3 AND 14 THEREOF AND PROVINCIAL SUCCESSION DUTIES.
17149	0023	THIS PARCEL WAS CREATED BASED ON INFORMATION CONTAINED IN DOCUMENT(S) AB269564, WHICH IS (ARE) RECORDED FOR PIN IDENTIFICATION ONLY. CORRECTION: DOCUMENT WE10055826 REMOVED FROM 17149-0023 ON 2023/01/10 AT 13:14 BY STURINO, NADINE.
17149	0025	THIS PARCEL WAS CREATED BASED ON INFORMATION CONTAINED IN DOCUMENT(S) VM180051, WHICH IS (ARE) RECORDED FOR PIN IDENTIFICATION ONLY.
17149	0028	THIS PARCEL WAS CREATED BASED ON INFORMATION CONTAINED IN DOCUMENT(S) AB291247, WHICH IS (ARE) RECORDED FOR PIN IDENTIFICATION ONLY.
17149	0035	THIS PARCEL WAS CREATED BASED ON INFORMATION CONTAINED IN DOCUMENT(S) CD489196, WHICH IS (ARE) RECORDED FOR PIN IDENTIFICATION ONLY.
17149	0045	THIS PARCEL WAS CREATED BASED ON INFORMATION CONTAINED IN DOCUMENT(S) CD354716, WHICH IS (ARE) RECORDED FOR PIN IDENTIFICATION ONLY.
17149	0054	THIS PARCEL WAS CREATED BASED ON INFORMATION CONTAINED IN DOCUMENT(S) VM215796, WHICH IS (ARE) RECORDED FOR PIN IDENTIFICATION ONLY.
17149	0128	THIS PARCEL WAS CREATED BASED ON INFORMATION CONTAINED IN DOCUMENT(S) CD26493, WHICH IS (ARE) RECORDED FOR PIN IDENTIFICATION ONLY.
17149	0138	THIS PARCEL WAS CREATED BASED ON INFORMATION CONTAINED IN DOCUMENT(S) CD398593, WHICH IS (ARE) RECORDED FOR PIN IDENTIFICATION ONLY.
17149	0155	THIS PARCEL WAS CREATED BASED ON INFORMATION CONTAINED IN DOCUMENT(S) VM221968, WHICH IS (ARE) RECORDED FOR PIN IDENTIFICATION ONLY.
17149	0158	THIS PARCEL WAS CREATED BASED ON INFORMATION CONTAINED IN DOCUMENT(S) VM96084, WHICH IS (ARE) RECORDED FOR PIN IDENTIFICATION ONLY.
17149	0175	THIS PARCEL WAS CREATED BASED ON INFORMATION CONTAINED IN DOCUMENT(S) CD187895,CD334727, WHICH IS (ARE) RECORDED FOR PIN IDENTIFICATION ONLY.
17149	0179	THIS PARCEL WAS CREATED BASED ON INFORMATION CONTAINED IN DOCUMENT(S) VM49436, WHICH IS (ARE) RECORDED FOR PIN IDENTIFICATION ONLY.
17149	0190	THIS PARCEL WAS CREATED BASED ON INFORMATION CONTAINED IN DOCUMENT(S) CD465012, WHICH IS (ARE) RECORDED FOR PIN IDENTIFICATION ONLY.
17149	0191	THIS PARCEL WAS CREATED BASED ON INFORMATION CONTAINED IN DOCUMENT(S) VM158444, WHICH IS (ARE) RECORDED FOR PIN IDENTIFICATION ONLY.
17150	0010	THIS PARCEL WAS CREATED BASED ON INFORMATION CONTAINED IN DOCUMENT(S) VM178813, WHICH IS (ARE) RECORDED FOR PIN IDENTIFICATION ONLY.
17150	0022	THIS PARCEL WAS CREATED BASED ON INFORMATION CONTAINED IN DOCUMENT(S) VM198454, WHICH IS (ARE) RECORDED FOR PIN IDENTIFICATION ONLY.
17150	0036	THIS PARCEL WAS CREATED BASED ON INFORMATION CONTAINED IN DOCUMENT(S) AB318304, WHICH IS (ARE) RECORDED FOR PIN IDENTIFICATION ONLY.
17150	0094	THIS PARCEL WAS CREATED BASED ON INFORMATION CONTAINED IN DOCUMENT(S) CD248919, WHICH IS (ARE) RECORDED FOR PIN IDENTIFICATION ONLY.
17150	0095	THIS PARCEL WAS CREATED BASED ON INFORMATION CONTAINED IN DOCUMENT(S) CD379061, WHICH IS (ARE) RECORDED FOR PIN IDENTIFICATION ONLY.
17150	0103	THIS PARCEL WAS CREATED BASED ON INFORMATION CONTAINED IN DOCUMENT(S) NS235094, WHICH IS (ARE) RECORDED FOR PIN IDENTIFICATION ONLY.
17150	0106	THIS PARCEL WAS CREATED BASED ON INFORMATION CONTAINED IN DOCUMENT(S) CD460707, WHICH IS (ARE) RECORDED FOR PIN IDENTIFICATION ONLY.
17150	0108	THIS PARCEL WAS CREATED BASED ON INFORMATION CONTAINED IN DOCUMENT(S) VM209505, WHICH IS (ARE) RECORDED FOR PIN IDENTIFICATION ONLY.
17150	0123	THIS PARCEL WAS CREATED BASED ON INFORMATION CONTAINED IN DOCUMENT(S) AB157467,AB273696,AB304388,CD136759, CD136763,CD140067,CD143707,CD144218,CD157747,CD157748, CD157749,CD157750,CD157765,CD158485,CD163420,CD167346, CD168255,CD180500,CD181870,CD181871,CD
17150	0128	THIS PARCEL WAS CREATED BASED ON INFORMATION CONTAINED IN DOCUMENT(S) VM10134, WHICH IS (ARE) RECORDED FOR PIN IDENTIFICATION ONLY.
17150	0155	THIS PARCEL WAS CREATED BASED ON INFORMATION CONTAINED IN DOCUMENT(S) VM64778, WHICH IS (ARE) RECORDED FOR PIN IDENTIFICATION ONLY.
17150	0174	CORRECTION: INSTRUMENT NUMBER VM238941 WAS OMITTED FROM THIS PROPERTY IN ERROR AND WAS ADDED AND CERTIFIED ON 1997/08/01 BY DORRIE MORLEY.
17151	0006	THIS PARCEL WAS CREATED BASED ON INFORMATION CONTAINED IN DOCUMENT(S) VM221252, WHICH IS (ARE) RECORDED FOR PIN IDENTIFICATION ONLY.
17151	0032	THIS PARCEL WAS CREATED BASED ON INFORMATION CONTAINED IN DOCUMENT(S) VM67791,VM67792, WHICH IS (ARE) RECORDED FOR PIN IDENTIFICATION ONLY.
17151	0037	THIS PARCEL WAS CREATED BASED ON INFORMATION CONTAINED IN DOCUMENT(S) VM200779, WHICH IS (ARE) RECORDED FOR PIN IDENTIFICATION ONLY.
17151	0039	THIS PARCEL WAS CREATED BASED ON INFORMATION CONTAINED IN DOCUMENT(S) NS36186, WHICH IS (ARE) RECORDED FOR PIN IDENTIFICATION ONLY.
17151	0041	THIS PARCEL WAS CREATED BASED ON INFORMATION CONTAINED IN DOCUMENT(S) VM137749, WHICH IS (ARE) RECORDED FOR PIN IDENTIFICATION ONLY.
17151	0042	THIS PARCEL WAS CREATED BASED ON INFORMATION CONTAINED IN DOCUMENT(S) VM214699, WHICH IS (ARE) RECORDED FOR PIN IDENTIFICATION ONLY.
17151	0056	THIS PARCEL WAS CREATED BASED ON INFORMATION CONTAINED IN DOCUMENT(S) HL94794, WHICH IS (ARE) RECORDED FOR PIN IDENTIFICATION ONLY.
17151	0057	THIS PARCEL WAS CREATED BASED ON INFORMATION CONTAINED IN DOCUMENT(S) VM215627, WHICH IS (ARE) RECORDED FOR PIN IDENTIFICATION ONLY.
17151	0061	THIS PARCEL WAS CREATED BASED ON INFORMATION CONTAINED IN DOCUMENT(S) VM133236, WHICH IS (ARE) RECORDED FOR PIN IDENTIFICATION ONLY.
17151	0062	THIS PARCEL WAS CREATED BASED ON INFORMATION CONTAINED IN DOCUMENT(S) VM230271, WHICH IS (ARE) RECORDED FOR PIN IDENTIFICATION ONLY.
17152	0008	THIS PARCEL WAS CREATED BASED ON INFORMATION CONTAINED IN DOCUMENT(S) HL64974, WHICH IS (ARE) RECORDED FOR PIN IDENTIFICATION ONLY.
17152	0019	THIS PARCEL WAS CREATED BASED ON INFORMATION CONTAINED IN DOCUMENT(S) VM139944, WHICH IS (ARE) RECORDED FOR PIN IDENTIFICATION ONLY.
17152	0043	THIS PARCEL WAS CREATED BASED ON INFORMATION CONTAINED IN DOCUMENT(S) CD441895, WHICH IS (ARE) RECORDED FOR PIN IDENTIFICATION ONLY.
17152	0059	THIS PARCEL WAS CREATED BASED ON INFORMATION CONTAINED IN DOCUMENT(S) VM134451, WHICH IS (ARE) RECORDED FOR PIN IDENTIFICATION ONLY.
17152	0069	THIS PARCEL WAS CREATED BASED ON INFORMATION CONTAINED IN DOCUMENT(S) AB72559,CD171708, WHICH IS (ARE) RECORDED FOR PIN IDENTIFICATION ONLY.
17152	0074	THIS PARCEL WAS CREATED BASED ON INFORMATION CONTAINED IN DOCUMENT(S) NS84173, WHICH IS (ARE) RECORDED FOR PIN IDENTIFICATION ONLY.
17153	0149	CORRECTION: INSTRUMENT NUMBER VM175135 WAS OMITTED FROM THIS PROPERTY IN ERROR AND WAS ADDED AND CERTIFIED ON 2001/03/09 BY HELEN MACMILLAN.
17154	0019	THIS PARCEL WAS CREATED BASED ON INFORMATION CONTAINED IN DOCUMENT(S) AB160994, WHICH IS (ARE) RECORDED FOR PIN IDENTIFICATION ONLY.
17154	0033	THIS PARCEL WAS CREATED BASED ON INFORMATION CONTAINED IN DOCUMENT(S) VM227233, WHICH IS (ARE) RECORDED FOR PIN IDENTIFICATION ONLY.
17154	0034	THIS PARCEL WAS CREATED BASED ON INFORMATION CONTAINED IN DOCUMENT(S) NS123168, WHICH IS (ARE) RECORDED FOR PIN IDENTIFICATION ONLY.
17154	0046	THIS PARCEL WAS CREATED BASED ON INFORMATION CONTAINED IN DOCUMENT(S) NS210711, WHICH IS (ARE) RECORDED FOR PIN IDENTIFICATION ONLY.
17154	0048	THIS PARCEL WAS CREATED BASED ON INFORMATION CONTAINED IN DOCUMENT(S) HL265610, WHICH IS (ARE) RECORDED FOR PIN IDENTIFICATION ONLY.
17154	0051	THIS PARCEL WAS CREATED BASED ON INFORMATION CONTAINED IN DOCUMENT(S) VM202108, WHICH IS (ARE) RECORDED FOR PIN IDENTIFICATION ONLY.
17154	0068	THIS PARCEL WAS CREATED BASED ON INFORMATION CONTAINED IN DOCUMENT(S) VM175811, WHICH IS (ARE) RECORDED FOR PIN IDENTIFICATION ONLY.
17154	0091	THIS PARCEL WAS CREATED BASED ON INFORMATION CONTAINED IN DOCUMENT(S) VM222695, WHICH IS (ARE) RECORDED FOR PIN IDENTIFICATION ONLY.
17154	0094	THIS PARCEL WAS CREATED BASED ON INFORMATION CONTAINED IN DOCUMENT(S) VM210562, WHICH IS (ARE) RECORDED FOR PIN IDENTIFICATION ONLY.
17154	0096	THIS PARCEL WAS CREATED BASED ON INFORMATION CONTAINED IN DOCUMENT(S) VM150295, WHICH IS (ARE) RECORDED FOR PIN IDENTIFICATION ONLY.
17154	0107	THIS PARCEL WAS CREATED BASED ON INFORMATION CONTAINED IN DOCUMENT(S) CD287798, WHICH IS (ARE) RECORDED FOR PIN IDENTIFICATION ONLY.
17154	0112	THIS PARCEL WAS CREATED BASED ON INFORMATION CONTAINED IN DOCUMENT(S) VM157312, WHICH IS (ARE) RECORDED FOR PIN IDENTIFICATION ONLY.
17154	0120	THIS PARCEL WAS CREATED BASED ON INFORMATION CONTAINED IN DOCUMENT(S) VM179360, WHICH IS (ARE) RECORDED FOR PIN IDENTIFICATION ONLY.
17154	0122	THIS PARCEL WAS CREATED BASED ON INFORMATION CONTAINED IN DOCUMENT(S) AB302390, WHICH IS (ARE) RECORDED FOR PIN IDENTIFICATION ONLY.
17154	0125	THIS PARCEL WAS CREATED BASED ON INFORMATION CONTAINED IN DOCUMENT(S) CD68850, WHICH IS (ARE) RECORDED FOR PIN IDENTIFICATION ONLY.
17154	0144	THIS PARCEL WAS CREATED BASED ON INFORMATION CONTAINED IN DOCUMENT(S) VM213404, WHICH IS (ARE) RECORDED FOR PIN IDENTIFICATION ONLY.
17154	0183	THIS PARCEL WAS CREATED BASED ON INFORMATION CONTAINED IN DOCUMENT(S) VM170486,VM197965, WHICH IS (ARE) RECORDED FOR PIN IDENTIFICATION ONLY.
17154	0201	THIS PARCEL WAS CREATED BASED ON INFORMATION CONTAINED IN DOCUMENT(S) NS99479, WHICH IS (ARE) RECORDED FOR PIN IDENTIFICATION ONLY.
17155	0033	THIS PARCEL WAS CREATED BASED ON INFORMATION CONTAINED IN DOCUMENT(S) CD481504, WHICH IS (ARE) RECORDED FOR PIN IDENTIFICATION ONLY.
17155	0038	THIS PARCEL WAS CREATED BASED ON INFORMATION CONTAINED IN DOCUMENT(S) VM208493, WHICH IS (ARE) RECORDED FOR PIN IDENTIFICATION ONLY.
17155	0057	THIS PARCEL WAS CREATED BASED ON INFORMATION CONTAINED IN DOCUMENT(S) VM229483, WHICH IS (ARE) RECORDED FOR PIN IDENTIFICATION ONLY.
17155	0121	THIS PARCEL WAS CREATED BASED ON INFORMATION CONTAINED IN DOCUMENT(S) CD392167, WHICH IS (ARE) RECORDED FOR PIN IDENTIFICATION ONLY.
17155	0132	THIS PARCEL WAS CREATED BASED ON INFORMATION CONTAINED IN DOCUMENT(S) VM182452, WHICH IS (ARE) RECORDED FOR PIN IDENTIFICATION ONLY.
17155	0137	THIS PARCEL WAS CREATED BASED ON INFORMATION CONTAINED IN DOCUMENT(S) HL224661, WHICH IS (ARE) RECORDED FOR PIN IDENTIFICATION ONLY.
17155	0139	THIS PARCEL WAS CREATED BASED ON INFORMATION CONTAINED IN DOCUMENT(S) CD399632, WHICH IS (ARE) RECORDED FOR PIN IDENTIFICATION ONLY.
17155	0142	THIS PARCEL WAS CREATED BASED ON INFORMATION CONTAINED IN DOCUMENT(S) CD32539,HL191697, WHICH IS (ARE) RECORDED FOR PIN IDENTIFICATION ONLY.
17155	0143	THIS PARCEL WAS CREATED BASED ON INFORMATION CONTAINED IN DOCUMENT(S) CD359360, WHICH IS (ARE) RECORDED FOR PIN IDENTIFICATION ONLY.
17155	0163	THIS PARCEL WAS CREATED BASED ON INFORMATION CONTAINED IN DOCUMENT(S) CD483989, WHICH IS (ARE) RECORDED FOR PIN IDENTIFICATION ONLY.
17155	0171	THIS PARCEL WAS CREATED BASED ON INFORMATION CONTAINED IN DOCUMENT(S) HA108836,HA108850,HA108998,HA112394, HA114759,HA121084,HA122506,HA160723,HA36516,HA93874, WHICH IS (ARE) RECORDED FOR PIN IDENTIFICATION ONLY.
17155	0187	THIS PARCEL WAS CREATED BASED ON INFORMATION CONTAINED IN DOCUMENT(S) VM160408, WHICH IS (ARE) RECORDED FOR PIN IDENTIFICATION ONLY.
17155	0188	THIS PARCEL WAS CREATED BASED ON INFORMATION CONTAINED IN DOCUMENT(S) CD402603, WHICH IS (ARE) RECORDED FOR PIN IDENTIFICATION ONLY.
17155	0191	THIS PARCEL WAS CREATED BASED ON INFORMATION CONTAINED IN DOCUMENT(S) VM210079, WHICH IS (ARE) RECORDED FOR PIN IDENTIFICATION ONLY.
17155	0195	THIS PARCEL WAS CREATED BASED ON INFORMATION CONTAINED IN DOCUMENT(S) AB344496, WHICH IS (ARE) RECORDED FOR PIN IDENTIFICATION ONLY.
17155	0198	THIS PARCEL WAS CREATED BASED ON INFORMATION CONTAINED IN DOCUMENT(S) VM132051, WHICH IS (ARE) RECORDED FOR PIN IDENTIFICATION ONLY.
17155	0208	THIS PARCEL WAS CREATED BASED ON INFORMATION CONTAINED IN DOCUMENT(S) VM216025, WHICH IS (ARE) RECORDED FOR PIN IDENTIFICATION ONLY.
17155	0232	THIS PARCEL WAS CREATED BASED ON INFORMATION CONTAINED IN DOCUMENT(S) CD505209, WHICH IS (ARE) RECORDED FOR PIN IDENTIFICATION ONLY.
17155	0233	THIS PARCEL WAS CREATED BASED ON INFORMATION CONTAINED IN DOCUMENT(S) VM237457, WHICH IS (ARE) RECORDED FOR PIN IDENTIFICATION ONLY.
17156	0005	THIS PARCEL WAS CREATED BASED ON INFORMATION CONTAINED IN DOCUMENT(S) CD127066, WHICH IS (ARE) RECORDED FOR PIN IDENTIFICATION ONLY.
17156	0007	THIS PARCEL WAS CREATED BASED ON INFORMATION CONTAINED IN DOCUMENT(S) CD464723, WHICH IS (ARE) RECORDED FOR PIN IDENTIFICATION ONLY.
17156	0045	THIS PARCEL WAS CREATED BASED ON INFORMATION CONTAINED IN DOCUMENT(S) CD509570,VM196566,VM219740,VM93370, WHICH IS (ARE) RECORDED FOR PIN IDENTIFICATION ONLY.
17156	0055	THIS PARCEL WAS CREATED BASED ON INFORMATION CONTAINED IN DOCUMENT(S) CD509570, WHICH IS (ARE) RECORDED FOR PIN IDENTIFICATION ONLY.
17156	0057	THIS PARCEL WAS CREATED BASED ON INFORMATION CONTAINED IN DOCUMENT(S) VM196566, WHICH IS (ARE) RECORDED FOR PIN IDENTIFICATION ONLY.
17156	0063	THIS PARCEL WAS CREATED BASED ON INFORMATION CONTAINED IN DOCUMENT(S) CD202281, WHICH IS (ARE) RECORDED FOR PIN IDENTIFICATION ONLY.
17156	0065	THIS PARCEL WAS CREATED BASED ON INFORMATION CONTAINED IN DOCUMENT(S) NS298919, WHICH IS (ARE) RECORDED FOR PIN IDENTIFICATION ONLY.
17156	0121	THIS PARCEL WAS CREATED BASED ON INFORMATION CONTAINED IN DOCUMENT(S) CD302735, WHICH IS (ARE) RECORDED FOR PIN IDENTIFICATION ONLY.
17156	0143	THIS PARCEL WAS CREATED BASED ON INFORMATION CONTAINED IN DOCUMENT(S) VM10639, WHICH IS (ARE) RECORDED FOR PIN IDENTIFICATION ONLY.
17156	0158	THIS PARCEL WAS CREATED BASED ON INFORMATION CONTAINED IN DOCUMENT(S) AB386395, WHICH IS (ARE) RECORDED FOR PIN IDENTIFICATION ONLY.
17156	0161	THIS PARCEL WAS CREATED BASED ON INFORMATION CONTAINED IN DOCUMENT(S) AB399964, WHICH IS (ARE) RECORDED FOR PIN IDENTIFICATION ONLY.
17156	0174	THIS PARCEL WAS CREATED BASED ON INFORMATION CONTAINED IN DOCUMENT(S) CD161306, WHICH IS (ARE) RECORDED FOR PIN IDENTIFICATION ONLY.
17156	0176	THIS PARCEL WAS CREATED BASED ON INFORMATION CONTAINED IN DOCUMENT(S) CD169890, WHICH IS (ARE) RECORDED FOR PIN IDENTIFICATION ONLY.
17156	0183	THIS PARCEL WAS CREATED BASED ON INFORMATION CONTAINED IN DOCUMENT(S) CD503627, WHICH IS (ARE) RECORDED FOR PIN IDENTIFICATION ONLY.
17156	0197	THIS PARCEL WAS CREATED BASED ON INFORMATION CONTAINED IN DOCUMENT(S) NS25815, WHICH IS (ARE) RECORDED FOR PIN IDENTIFICATION ONLY.
17156	0199	THIS PARCEL WAS CREATED BASED ON INFORMATION CONTAINED IN DOCUMENT(S) AB67730, WHICH IS (ARE) RECORDED FOR PIN IDENTIFICATION ONLY.
17156	0200	THIS PARCEL WAS CREATED BASED ON INFORMATION CONTAINED IN DOCUMENT(S) HA103291, WHICH IS (ARE) RECORDED FOR PIN IDENTIFICATION ONLY.
17156	0237	THIS PARCEL WAS CREATED BASED ON INFORMATION CONTAINED IN DOCUMENT(S) HL285254, WHICH IS (ARE) RECORDED FOR PIN IDENTIFICATION ONLY.
17156	0238	THIS PARCEL WAS CREATED BASED ON INFORMATION CONTAINED IN DOCUMENT(S) HL176350, WHICH IS (ARE) RECORDED FOR PIN IDENTIFICATION ONLY.
17156	0246	THIS PARCEL WAS CREATED BASED ON INFORMATION CONTAINED IN DOCUMENT(S) VM83490, WHICH IS (ARE) RECORDED FOR PIN IDENTIFICATION ONLY.
17156	0262	THIS PARCEL WAS CREATED BASED ON INFORMATION CONTAINED IN DOCUMENT(S) VM136783, WHICH IS (ARE) RECORDED FOR PIN IDENTIFICATION ONLY.
17156	0277	THIS PARCEL WAS CREATED BASED ON INFORMATION CONTAINED IN DOCUMENT(S) AB6109, WHICH IS (ARE) RECORDED FOR PIN IDENTIFICATION ONLY.
17156	0303	THIS PARCEL WAS CREATED BASED ON INFORMATION CONTAINED IN DOCUMENT(S) CD398100, WHICH IS (ARE) RECORDED FOR PIN IDENTIFICATION ONLY.
17156	0314	THIS PARCEL WAS CREATED BASED ON INFORMATION CONTAINED IN DOCUMENT(S) VM228522, WHICH IS (ARE) RECORDED FOR PIN IDENTIFICATION ONLY.
17156	0324	THIS PARCEL WAS CREATED BASED ON INFORMATION CONTAINED IN DOCUMENT(S) HL33040, WHICH IS (ARE) RECORDED FOR PIN IDENTIFICATION ONLY.
17156	0329	THIS PARCEL WAS CREATED BASED ON INFORMATION CONTAINED IN DOCUMENT(S) HL141735, WHICH IS (ARE) RECORDED FOR PIN IDENTIFICATION ONLY.
17156	0377	THIS PARCEL WAS CREATED BASED ON INFORMATION CONTAINED IN DOCUMENT(S) CD447812, WHICH IS (ARE) RECORDED FOR PIN IDENTIFICATION ONLY.
17156	0378	THIS PARCEL WAS CREATED BASED ON INFORMATION CONTAINED IN DOCUMENT(S) VM192542, WHICH IS (ARE) RECORDED FOR PIN IDENTIFICATION ONLY.
17156	0411	THIS PARCEL WAS CREATED BASED ON INFORMATION CONTAINED IN DOCUMENT(S):WHICH IS (ARE) RECORDED FOR PIN IDENTIFICATION ONLY. CORRECTION: INSTRUMENT NUMBER VM261062 WAS OMITTED FROM THIS PROPERTY IN ERROR AND WAS ADDED AND CERTIFIED ON 2004/06/21 BY CHERYL L
17157	0033	THIS PARCEL WAS CREATED BASED ON INFORMATION CONTAINED IN DOCUMENT(S) CD479520, WHICH IS (ARE) RECORDED FOR PIN IDENTIFICATION ONLY.
17157	0046	THIS PARCEL WAS CREATED BASED ON INFORMATION CONTAINED IN DOCUMENT(S) CD165484, WHICH IS (ARE) RECORDED FOR PIN IDENTIFICATION ONLY.
17157	0070	THIS PARCEL WAS CREATED BASED ON INFORMATION CONTAINED IN DOCUMENT(S) VM62637, WHICH IS (ARE) RECORDED FOR PIN IDENTIFICATION ONLY.
17157	0089	THIS PARCEL WAS CREATED BASED ON INFORMATION CONTAINED IN DOCUMENT(S) CD363740, WHICH IS (ARE) RECORDED FOR PIN IDENTIFICATION ONLY.
17157	0137	THIS PARCEL WAS CREATED BASED ON INFORMATION CONTAINED IN DOCUMENT(S) AB7256, WHICH IS (ARE) RECORDED FOR PIN IDENTIFICATION ONLY.
17157	0144	THIS PARCEL WAS CREATED BASED ON INFORMATION CONTAINED IN DOCUMENT(S) VM115497, WHICH IS (ARE) RECORDED FOR PIN IDENTIFICATION ONLY.
17157	0166	THIS PARCEL WAS CREATED BASED ON INFORMATION CONTAINED IN DOCUMENT(S) HL18387, WHICH IS (ARE) RECORDED FOR PIN IDENTIFICATION ONLY.
17157	0190	THIS PARCEL WAS CREATED BASED ON INFORMATION CONTAINED IN DOCUMENT(S) HL160944, WHICH IS (ARE) RECORDED FOR PIN IDENTIFICATION ONLY.
17157	0200	THIS PARCEL WAS CREATED BASED ON INFORMATION CONTAINED IN DOCUMENT(S) CD453562, WHICH IS (ARE) RECORDED FOR PIN IDENTIFICATION ONLY.
17157	0208	THIS PARCEL WAS CREATED BASED ON INFORMATION CONTAINED IN DOCUMENT(S) CD463932, WHICH IS (ARE) RECORDED FOR PIN IDENTIFICATION ONLY.
17157	0211	THIS PARCEL WAS CREATED BASED ON INFORMATION CONTAINED IN DOCUMENT(S) CD78999, WHICH IS (ARE) RECORDED FOR PIN IDENTIFICATION ONLY.
17157	0216	THIS PARCEL WAS CREATED BASED ON INFORMATION CONTAINED IN DOCUMENT(S) CD509649, WHICH IS (ARE) RECORDED FOR PIN IDENTIFICATION ONLY.
17157	0223	THIS PARCEL WAS CREATED BASED ON INFORMATION CONTAINED IN DOCUMENT(S) NS211359, WHICH IS (ARE) RECORDED FOR PIN IDENTIFICATION ONLY.
17157	0228	THIS PARCEL WAS CREATED BASED ON INFORMATION CONTAINED IN DOCUMENT(S) VM227517, WHICH IS (ARE) RECORDED FOR PIN IDENTIFICATION ONLY.
17157	0237	THIS PARCEL WAS CREATED BASED ON INFORMATION CONTAINED IN DOCUMENT(S) HL302371, WHICH IS (ARE) RECORDED FOR PIN IDENTIFICATION ONLY.
17157	0255	THIS PARCEL WAS CREATED BASED ON INFORMATION CONTAINED IN DOCUMENT(S) VM194533, WHICH IS (ARE) RECORDED FOR PIN IDENTIFICATION ONLY.
17157	0263	THIS PARCEL WAS CREATED BASED ON INFORMATION CONTAINED IN DOCUMENT(S) AB381382, WHICH IS (ARE) RECORDED FOR PIN IDENTIFICATION ONLY.
17157	0270	THIS PARCEL WAS CREATED BASED ON INFORMATION CONTAINED IN DOCUMENT(S) AB103442, WHICH IS (ARE) RECORDED FOR PIN IDENTIFICATION ONLY.
17157	0285	THIS PARCEL WAS CREATED BASED ON INFORMATION CONTAINED IN DOCUMENT(S) VM124781, WHICH IS (ARE) RECORDED FOR PIN IDENTIFICATION ONLY.
17157	0298	THIS PARCEL WAS CREATED BASED ON INFORMATION CONTAINED IN DOCUMENT(S) VM235418, WHICH IS (ARE) RECORDED FOR PIN IDENTIFICATION ONLY.
17157	0299	THIS PARCEL WAS CREATED BASED ON INFORMATION CONTAINED IN DOCUMENT(S) VM180071, WHICH IS (ARE) RECORDED FOR PIN IDENTIFICATION ONLY.
17157	0310	THIS PARCEL WAS CREATED BASED ON INFORMATION CONTAINED IN DOCUMENT(S) CD331099, WHICH IS (ARE) RECORDED FOR PIN IDENTIFICATION ONLY.
17157	0326	THIS PARCEL WAS CREATED BASED ON INFORMATION CONTAINED IN DOCUMENT(S) CD375753, WHICH IS (ARE) RECORDED FOR PIN IDENTIFICATION ONLY.
17157	0336	THIS PARCEL WAS CREATED BASED ON INFORMATION CONTAINED IN DOCUMENT(S) VM221679, WHICH IS (ARE) RECORDED FOR PIN IDENTIFICATION ONLY.
17157	0348	THIS PARCEL WAS CREATED BASED ON INFORMATION CONTAINED IN DOCUMENT(S) VM199845, WHICH IS (ARE) RECORDED FOR PIN IDENTIFICATION ONLY.
17157	0374	THIS PARCEL WAS CREATED BASED ON INFORMATION CONTAINED IN DOCUMENT(S) VM45899, WHICH IS (ARE) RECORDED FOR PIN IDENTIFICATION ONLY.
17157	0408	THIS PARCEL WAS CREATED BASED ON INFORMATION CONTAINED IN DOCUMENT(S) CD238903, WHICH IS (ARE) RECORDED FOR PIN IDENTIFICATION ONLY.
17157	0416	THIS PARCEL WAS CREATED BASED ON INFORMATION CONTAINED IN DOCUMENT(S) VM30916,VM62306, WHICH IS (ARE) RECORDED FOR PIN IDENTIFICATION ONLY.
17157	0419	THIS PARCEL WAS CREATED BASED ON INFORMATION CONTAINED IN DOCUMENT(S) VM50039, WHICH IS (ARE) RECORDED FOR PIN IDENTIFICATION ONLY.
17157	0423	THIS PARCEL WAS CREATED BASED ON INFORMATION CONTAINED IN DOCUMENT(S) VM62929, WHICH IS (ARE) RECORDED FOR PIN IDENTIFICATION ONLY.
17157	0437	THIS PARCEL WAS CREATED BASED ON INFORMATION CONTAINED IN DOCUMENT(S) CD374271, WHICH IS (ARE) RECORDED FOR PIN IDENTIFICATION ONLY.
17157	0448	THIS PARCEL WAS CREATED BASED ON INFORMATION CONTAINED IN DOCUMENT(S) CD332001, WHICH IS (ARE) RECORDED FOR PIN IDENTIFICATION ONLY.
17157	0484	THIS PARCEL WAS CREATED BASED ON INFORMATION CONTAINED IN DOCUMENT(S):AB75660 WHICH IS (ARE) RECORDED FOR PIN IDENTIFICATION ONLY.
17157	0494	THIS PARCEL WAS CREATED BASED ON INFORMATION CONTAINED IN DOCUMENT(S):WHICH IS (ARE) RECORDED FOR PIN IDENTIFICATION ONLY.
17157	0495	PLANNING ACT CONSENT IN #VM259636.
17157	0496	THIS PARCEL WAS CREATED BASED ON INFORMATION CONTAINED IN DOCUMENT(S):WHICH IS (ARE) RECORDED FOR PIN IDENTIFICATION ONLY.
17157	0497	PLANNING ACT CONSENT ON #VM259638.
17157	0498	THIS PARCEL WAS CREATED BASED ON INFORMATION CONTAINED IN DOCUMENT(S):WHICH IS (ARE) RECORDED FOR PIN IDENTIFICATION ONLY.
17157	0502	CONSENT OBTAINED IN VM261489.
17158	0003	THIS PARCEL WAS CREATED BASED ON INFORMATION CONTAINED IN DOCUMENT(S) CD156597, WHICH IS (ARE) RECORDED FOR PIN IDENTIFICATION ONLY.
17158	0004	THIS PARCEL WAS CREATED BASED ON INFORMATION CONTAINED IN DOCUMENT(S) VM65725, WHICH IS (ARE) RECORDED FOR PIN IDENTIFICATION ONLY.
17158	0014	THIS PARCEL WAS CREATED BASED ON INFORMATION CONTAINED IN DOCUMENT(S) CD453450, WHICH IS (ARE) RECORDED FOR PIN IDENTIFICATION ONLY.
17158	0031	THIS PARCEL WAS CREATED BASED ON INFORMATION CONTAINED IN DOCUMENT(S) VM200418, WHICH IS (ARE) RECORDED FOR PIN IDENTIFICATION ONLY.
17158	0050	THIS PARCEL WAS CREATED BASED ON INFORMATION CONTAINED IN DOCUMENT(S) CD243302, WHICH IS (ARE) RECORDED FOR PIN IDENTIFICATION ONLY. CORRECTION: INSTRUMENT NUMBER VM206337 WAS OMITTED FROM THIS PROPERTY IN ERROR AND WAS ADDED AND CERTIFIED ON 2001/05/30 B
17158	0057	THIS PARCEL WAS CREATED BASED ON INFORMATION CONTAINED IN DOCUMENT(S) HL124036,NS55155, WHICH IS (ARE) RECORDED FOR PIN IDENTIFICATION ONLY.
17158	0066	THIS PARCEL WAS CREATED BASED ON INFORMATION CONTAINED IN DOCUMENT(S) HA17619,HA25363,HA523D,HA67377,HA68082, HA68714,HA8434,HA92542, WHICH IS (ARE) RECORDED FOR PIN IDENTIFICATION ONLY.
17159	0003	THIS PARCEL WAS CREATED BASED ON INFORMATION CONTAINED IN DOCUMENT(S) HA246561,HA283904,HA284726,HA284947, HA295D,HA303735,HA418C,HA471C,HA499D,HA611E,HA711C, WHICH IS (ARE) RECORDED FOR PIN IDENTIFICATION ONLY.
17159	0009	THIS PARCEL WAS CREATED BASED ON INFORMATION CONTAINED IN DOCUMENT(S) VM219746, WHICH IS (ARE) RECORDED FOR PIN IDENTIFICATION ONLY.
17159	0017	THIS PARCEL WAS CREATED BASED ON INFORMATION CONTAINED IN DOCUMENT(S) VM162927, WHICH IS (ARE) RECORDED FOR PIN IDENTIFICATION ONLY.
17159	0018	THIS PARCEL WAS CREATED BASED ON INFORMATION CONTAINED IN DOCUMENT(S) CD209591, WHICH IS (ARE) RECORDED FOR PIN IDENTIFICATION ONLY.
17159	0019	THIS PARCEL WAS CREATED BASED ON INFORMATION CONTAINED IN DOCUMENT(S) AB51124, WHICH IS (ARE) RECORDED FOR PIN IDENTIFICATION ONLY.
17159	0060	THIS PARCEL WAS CREATED BASED ON INFORMATION CONTAINED IN DOCUMENT(S) CD319664, WHICH IS (ARE) RECORDED FOR PIN IDENTIFICATION ONLY.
17159	0080	THIS PARCEL WAS CREATED BASED ON INFORMATION CONTAINED IN DOCUMENT(S) CD489770, WHICH IS (ARE) RECORDED FOR PIN IDENTIFICATION ONLY.
17159	0086	THIS PARCEL WAS CREATED BASED ON INFORMATION CONTAINED IN DOCUMENT(S) CD317402, WHICH IS (ARE) RECORDED FOR PIN IDENTIFICATION ONLY.
17159	0097	THIS PARCEL WAS CREATED BASED ON INFORMATION CONTAINED IN DOCUMENT(S) CD442875, WHICH IS (ARE) RECORDED FOR PIN IDENTIFICATION ONLY.
17159	0154	THIS PARCEL WAS CREATED BASED ON INFORMATION CONTAINED IN DOCUMENT(S) VM142908, WHICH IS (ARE) RECORDED FOR PIN IDENTIFICATION ONLY.
17159	0178	THIS PARCEL WAS CREATED BASED ON INFORMATION CONTAINED IN DOCUMENT(S) VM189400, WHICH IS (ARE) RECORDED FOR PIN IDENTIFICATION ONLY.
17159	0185	THIS PARCEL WAS CREATED BASED ON INFORMATION CONTAINED IN DOCUMENT(S) CD65604, WHICH IS (ARE) RECORDED FOR PIN IDENTIFICATION ONLY.
17159	0194	THIS PARCEL WAS CREATED BASED ON INFORMATION CONTAINED IN DOCUMENT(S) AB210609, WHICH IS (ARE) RECORDED FOR PIN IDENTIFICATION ONLY.
17160	0016	THIS PARCEL WAS CREATED BASED ON INFORMATION CONTAINED IN DOCUMENT(S) VM146066, WHICH IS (ARE) RECORDED FOR PIN IDENTIFICATION ONLY.
17160	0024	THIS PARCEL WAS CREATED BASED ON INFORMATION CONTAINED IN DOCUMENT(S) AB33220, WHICH IS (ARE) RECORDED FOR PIN IDENTIFICATION ONLY.
17160	0036	THIS PARCEL WAS CREATED BASED ON INFORMATION CONTAINED IN DOCUMENT(S) CD304573, WHICH IS (ARE) RECORDED FOR PIN IDENTIFICATION ONLY.
17160	0083	THIS PARCEL WAS CREATED BASED ON INFORMATION CONTAINED IN DOCUMENT(S) CD127953, WHICH IS (ARE) RECORDED FOR PIN IDENTIFICATION ONLY.
17160	0105	THIS PARCEL WAS CREATED BASED ON INFORMATION CONTAINED IN DOCUMENT(S) VM237523, WHICH IS (ARE) RECORDED FOR PIN IDENTIFICATION ONLY.
17160	0129	THIS PARCEL WAS CREATED BASED ON INFORMATION CONTAINED IN DOCUMENT(S) HL290618, WHICH IS (ARE) RECORDED FOR PIN IDENTIFICATION ONLY.
17160	0164	THIS PARCEL WAS CREATED BASED ON INFORMATION CONTAINED IN DOCUMENT(S) HL244214, WHICH IS (ARE) RECORDED FOR PIN IDENTIFICATION ONLY.
17160	0170	THIS PARCEL WAS CREATED BASED ON INFORMATION CONTAINED IN DOCUMENT(S) VM3968, WHICH IS (ARE) RECORDED FOR PIN IDENTIFICATION ONLY.
17160	0184	THIS PARCEL WAS CREATED BASED ON INFORMATION CONTAINED IN DOCUMENT(S) CD219066,HL19274,NS302003, WHICH IS (ARE) RECORDED FOR PIN IDENTIFICATION ONLY.
17160	0187	THIS PARCEL WAS CREATED BASED ON INFORMATION CONTAINED IN DOCUMENT(S) HA323633, WHICH IS (ARE) RECORDED FOR PIN IDENTIFICATION ONLY.
17160	0189	THIS PARCEL WAS CREATED BASED ON INFORMATION CONTAINED IN DOCUMENT(S) VM216029, WHICH IS (ARE) RECORDED FOR PIN IDENTIFICATION ONLY.
17160	0225	THIS PARCEL WAS CREATED BASED ON INFORMATION CONTAINED IN DOCUMENT(S) CD507962, WHICH IS (ARE) RECORDED FOR PIN IDENTIFICATION ONLY.
17160	0227	THIS PARCEL WAS CREATED BASED ON INFORMATION CONTAINED IN DOCUMENT(S) VM162069, WHICH IS (ARE) RECORDED FOR PIN IDENTIFICATION ONLY.
17160	0234	THIS PARCEL WAS CREATED BASED ON INFORMATION CONTAINED IN DOCUMENT(S) VM227688, WHICH IS (ARE) RECORDED FOR PIN IDENTIFICATION ONLY.
17160	0246	THIS PARCEL WAS CREATED BASED ON INFORMATION CONTAINED IN DOCUMENT(S) AB69119, WHICH IS (ARE) RECORDED FOR PIN IDENTIFICATION ONLY.
17160	0264	THIS PARCEL WAS CREATED BASED ON INFORMATION CONTAINED IN DOCUMENT(S) VM139615, WHICH IS (ARE) RECORDED FOR PIN IDENTIFICATION ONLY.
17160	0313	THIS PARCEL WAS CREATED BASED ON INFORMATION CONTAINED IN DOCUMENT(S) AB356033, WHICH IS (ARE) RECORDED FOR PIN IDENTIFICATION ONLY.
17161	0005	THIS PARCEL WAS CREATED BASED ON INFORMATION CONTAINED IN DOCUMENT(S) VM147373, WHICH IS (ARE) RECORDED FOR PIN IDENTIFICATION ONLY.
17161	0011	THIS PARCEL WAS CREATED BASED ON INFORMATION CONTAINED IN DOCUMENT(S) CD161400, WHICH IS (ARE) RECORDED FOR PIN IDENTIFICATION ONLY.
17161	0017	THIS PARCEL WAS CREATED BASED ON INFORMATION CONTAINED IN DOCUMENT(S) CD228479, WHICH IS (ARE) RECORDED FOR PIN IDENTIFICATION ONLY.
17161	0027	THIS PARCEL WAS CREATED BASED ON INFORMATION CONTAINED IN DOCUMENT(S) CD106480, WHICH IS (ARE) RECORDED FOR PIN IDENTIFICATION ONLY.
17161	0028	THIS PARCEL WAS CREATED BASED ON INFORMATION CONTAINED IN DOCUMENT(S) AB305366, WHICH IS (ARE) RECORDED FOR PIN IDENTIFICATION ONLY.
17161	0036	THIS PARCEL WAS CREATED BASED ON INFORMATION CONTAINED IN DOCUMENT(S) CD376398, WHICH IS (ARE) RECORDED FOR PIN IDENTIFICATION ONLY.
17161	0038	THIS PARCEL WAS CREATED BASED ON INFORMATION CONTAINED IN DOCUMENT(S) VM18240,VM182560, WHICH IS (ARE) RECORDED FOR PIN IDENTIFICATION ONLY.
17161	0049	THIS PARCEL WAS CREATED BASED ON INFORMATION CONTAINED IN DOCUMENT(S) VM233682, WHICH IS (ARE) RECORDED FOR PIN IDENTIFICATION ONLY.
17161	0077	THIS PARCEL WAS CREATED BASED ON INFORMATION CONTAINED IN DOCUMENT(S) CD514978, WHICH IS (ARE) RECORDED FOR PIN IDENTIFICATION ONLY.
17161	0098	THIS PARCEL WAS CREATED BASED ON INFORMATION CONTAINED IN DOCUMENT(S) CD424478, WHICH IS (ARE) RECORDED FOR PIN IDENTIFICATION ONLY.
17161	0108	THIS PARCEL WAS CREATED BASED ON INFORMATION CONTAINED IN DOCUMENT(S) VM158505, WHICH IS (ARE) RECORDED FOR PIN IDENTIFICATION ONLY.
17161	0116	THIS PARCEL WAS CREATED BASED ON INFORMATION CONTAINED IN DOCUMENT(S) CD328526, WHICH IS (ARE) RECORDED FOR PIN IDENTIFICATION ONLY.
17161	0121	THIS PARCEL WAS CREATED BASED ON INFORMATION CONTAINED IN DOCUMENT(S) HL327097, WHICH IS (ARE) RECORDED FOR PIN IDENTIFICATION ONLY.
17161	0127	THIS PARCEL WAS CREATED BASED ON INFORMATION CONTAINED IN DOCUMENT(S) AB104336, WHICH IS (ARE) RECORDED FOR PIN IDENTIFICATION ONLY.
17161	0147	THIS PARCEL WAS CREATED BASED ON INFORMATION CONTAINED IN DOCUMENT(S) VM197523, WHICH IS (ARE) RECORDED FOR PIN IDENTIFICATION ONLY.
17161	0152	THIS PARCEL WAS CREATED BASED ON INFORMATION CONTAINED IN DOCUMENT(S) VM201938, WHICH IS (ARE) RECORDED FOR PIN IDENTIFICATION ONLY.
17161	0161	THIS PARCEL WAS CREATED BASED ON INFORMATION CONTAINED IN DOCUMENT(S) CD454612, WHICH IS (ARE) RECORDED FOR PIN IDENTIFICATION ONLY.
17161	0167	THIS PARCEL WAS CREATED BASED ON INFORMATION CONTAINED IN DOCUMENT(S) VM197677, WHICH IS (ARE) RECORDED FOR PIN IDENTIFICATION ONLY.
17161	0177	THIS PARCEL WAS CREATED BASED ON INFORMATION CONTAINED IN DOCUMENT(S) VM1145,VM56090, WHICH IS (ARE) RECORDED FOR PIN IDENTIFICATION ONLY.
17162	0001	THIS PARCEL WAS CREATED BASED ON INFORMATION CONTAINED IN DOCUMENT(S) CD239435, WHICH IS (ARE) RECORDED FOR PIN IDENTIFICATION ONLY.
17162	0004	CORRECTION: INSTRUMENT NUMBER LT427975 WAS OMITTED FROM THIS PROPERTY IN ERROR AND WAS ADDED AND CERTIFIED ON 2002/02/12 BY HELEN MACMILLAN.
17162	0005	THIS PARCEL WAS CREATED BASED ON INFORMATION CONTAINED IN DOCUMENT(S) AB35534, WHICH IS (ARE) RECORDED FOR PIN IDENTIFICATION ONLY.
17162	0023	THIS PARCEL WAS CREATED BASED ON INFORMATION CONTAINED IN DOCUMENT(S) VM141725, WHICH IS (ARE) RECORDED FOR PIN IDENTIFICATION ONLY.
17162	0072	THIS PARCEL WAS CREATED BASED ON INFORMATION CONTAINED IN DOCUMENT(S) CD512732, WHICH IS (ARE) RECORDED FOR PIN IDENTIFICATION ONLY.
17162	0116	THIS PARCEL WAS CREATED BASED ON INFORMATION CONTAINED IN DOCUMENT(S) CD59705, WHICH IS (ARE) RECORDED FOR PIN IDENTIFICATION ONLY.
17162	0155	THIS PARCEL WAS CREATED BASED ON INFORMATION CONTAINED IN DOCUMENT(S) VM74162, WHICH IS (ARE) RECORDED FOR PIN IDENTIFICATION ONLY.
17162	0177	THIS PARCEL WAS CREATED BASED ON INFORMATION CONTAINED IN DOCUMENT(S) AB98791, WHICH IS (ARE) RECORDED FOR PIN IDENTIFICATION ONLY.
17163	0005	THIS PARCEL WAS CREATED BASED ON INFORMATION CONTAINED IN DOCUMENT(S) CD385174, WHICH IS (ARE) RECORDED FOR PIN IDENTIFICATION ONLY.
17163	0007	THIS PARCEL WAS CREATED BASED ON INFORMATION CONTAINED IN DOCUMENT(S) NS211900, WHICH IS (ARE) RECORDED FOR PIN IDENTIFICATION ONLY.
17163	0046	THIS PARCEL WAS CREATED BASED ON INFORMATION CONTAINED IN DOCUMENT(S) CD259037, WHICH IS (ARE) RECORDED FOR PIN IDENTIFICATION ONLY.
17163	0050	THIS PARCEL WAS CREATED BASED ON INFORMATION CONTAINED IN DOCUMENT(S) VM223433, WHICH IS (ARE) RECORDED FOR PIN IDENTIFICATION ONLY.
17163	0067	THIS PARCEL WAS CREATED BASED ON INFORMATION CONTAINED IN DOCUMENT(S) VM38309, WHICH IS (ARE) RECORDED FOR PIN IDENTIFICATION ONLY.
17163	0074	THIS PARCEL WAS CREATED BASED ON INFORMATION CONTAINED IN DOCUMENT(S) VM237043, WHICH IS (ARE) RECORDED FOR PIN IDENTIFICATION ONLY.
17163	0081	THIS PARCEL WAS CREATED BASED ON INFORMATION CONTAINED IN DOCUMENT(S) VM237687, WHICH IS (ARE) RECORDED FOR PIN IDENTIFICATION ONLY.
17163	0083	THIS PARCEL WAS CREATED BASED ON INFORMATION CONTAINED IN DOCUMENT(S) VM196412, WHICH IS (ARE) RECORDED FOR PIN IDENTIFICATION ONLY.
17164	0011	THIS PARCEL WAS CREATED BASED ON INFORMATION CONTAINED IN DOCUMENT(S) AB283540,AB299837,AB303795,AB316073, AB393435,CD150517,CD159253,CD160320,CD160678,CD160704, CD166334,CD170578,CD171687,CD172541,CD181799,CD183385, CD183545,CD186575,CD200197,CD208803,CD
17164	0012	THIS PARCEL WAS CREATED BASED ON INFORMATION CONTAINED IN DOCUMENT(S) VM154606, WHICH IS (ARE) RECORDED FOR PIN IDENTIFICATION ONLY.
17164	0051	THIS PARCEL WAS CREATED BASED ON INFORMATION CONTAINED IN DOCUMENT(S) VM174553, WHICH IS (ARE) RECORDED FOR PIN IDENTIFICATION ONLY.
17164	0056	THIS PARCEL WAS CREATED BASED ON INFORMATION CONTAINED IN DOCUMENT(S) CD483270, WHICH IS (ARE) RECORDED FOR PIN IDENTIFICATION ONLY.
17164	0058	THIS PARCEL WAS CREATED BASED ON INFORMATION CONTAINED IN DOCUMENT(S) CD288172, WHICH IS (ARE) RECORDED FOR PIN IDENTIFICATION ONLY.
17164	0059	THIS PARCEL WAS CREATED BASED ON INFORMATION CONTAINED IN DOCUMENT(S) AB46847,CD152229,CD152230,VM153649, WHICH IS (ARE) RECORDED FOR PIN IDENTIFICATION ONLY.
17164	0061	THIS PARCEL WAS CREATED BASED ON INFORMATION CONTAINED IN DOCUMENT(S) CD397940, WHICH IS (ARE) RECORDED FOR PIN IDENTIFICATION ONLY.
17164	0066	THIS PARCEL WAS CREATED BASED ON INFORMATION CONTAINED IN DOCUMENT(S) CD15211, WHICH IS (ARE) RECORDED FOR PIN IDENTIFICATION ONLY.
17164	0067	THIS PARCEL WAS CREATED BASED ON INFORMATION CONTAINED IN DOCUMENT(S) VM107543, WHICH IS (ARE) RECORDED FOR PIN IDENTIFICATION ONLY.
17164	0070	THIS PARCEL WAS CREATED BASED ON INFORMATION CONTAINED IN DOCUMENT(S) VM222531, WHICH IS (ARE) RECORDED FOR PIN IDENTIFICATION ONLY.
17164	0072	THIS PARCEL WAS CREATED BASED ON INFORMATION CONTAINED IN DOCUMENT(S) VM143266, WHICH IS (ARE) RECORDED FOR PIN IDENTIFICATION ONLY.
17164	0078	THIS PARCEL WAS CREATED BASED ON INFORMATION CONTAINED IN DOCUMENT(S) CD198302, WHICH IS (ARE) RECORDED FOR PIN IDENTIFICATION ONLY.
17164	0090	THIS PARCEL WAS CREATED BASED ON INFORMATION CONTAINED IN DOCUMENT(S) VM229663, WHICH IS (ARE) RECORDED FOR PIN IDENTIFICATION ONLY.
17164	0099	THIS PARCEL WAS CREATED BASED ON INFORMATION CONTAINED IN DOCUMENT(S) VM229044, WHICH IS (ARE) RECORDED FOR PIN IDENTIFICATION ONLY.
17164	0100	THIS PARCEL WAS CREATED BASED ON INFORMATION CONTAINED IN DOCUMENT(S) HA10422, WHICH IS (ARE) RECORDED FOR PIN IDENTIFICATION ONLY.
17164	0135	THIS PARCEL WAS CREATED BASED ON INFORMATION CONTAINED IN DOCUMENT(S) HL133815, WHICH IS (ARE) RECORDED FOR PIN IDENTIFICATION ONLY.
17164	0136	THIS PARCEL WAS CREATED BASED ON INFORMATION CONTAINED IN DOCUMENT(S) VM199241, WHICH IS (ARE) RECORDED FOR PIN IDENTIFICATION ONLY.
17164	0144	THIS PARCEL WAS CREATED BASED ON INFORMATION CONTAINED IN DOCUMENT(S) CD496553, WHICH IS (ARE) RECORDED FOR PIN IDENTIFICATION ONLY.
17164	0145	THIS PARCEL WAS CREATED BASED ON INFORMATION CONTAINED IN DOCUMENT(S) VM98271, WHICH IS (ARE) RECORDED FOR PIN IDENTIFICATION ONLY.
17164	0146	THIS PARCEL WAS CREATED BASED ON INFORMATION CONTAINED IN DOCUMENT(S) CD214711, WHICH IS (ARE) RECORDED FOR PIN IDENTIFICATION ONLY.
17164	0167	THIS PARCEL WAS CREATED BASED ON INFORMATION CONTAINED IN DOCUMENT(S):CD492711 WHICH IS (ARE) RECORDED FOR PIN IDENTIFICATION ONLY.
17164	0169	THIS PARCEL WAS CREATED BASED ON INFORMATION CONTAINED IN DOCUMENT(S):VM32606 WHICH IS (ARE) RECORDED FOR PIN IDENTIFICATION ONLY.
17164	0176	THIS PARCEL WAS CREATED BASED ON INFORMATION CONTAINED IN DOCUMENT(S): VM184403 WHICH IS (ARE) RECORDED FOR PIN IDENTIFICATION ONLY.
17164	0181	COMMITTEE OF ADJUSTMENT CONSENT IN VM263285.
17165	0008	THIS PARCEL WAS CREATED BASED ON INFORMATION CONTAINED IN DOCUMENT(S) NS109414,VM125335, WHICH IS (ARE) RECORDED FOR PIN IDENTIFICATION ONLY.
17165	0017	THIS PARCEL WAS CREATED BASED ON INFORMATION CONTAINED IN DOCUMENT(S) CD480252, WHICH IS (ARE) RECORDED FOR PIN IDENTIFICATION ONLY.
17165	0034	THIS PARCEL WAS CREATED BASED ON INFORMATION CONTAINED IN DOCUMENT(S) VM38761, WHICH IS (ARE) RECORDED FOR PIN IDENTIFICATION ONLY.
17165	0036	THIS PARCEL WAS CREATED BASED ON INFORMATION CONTAINED IN DOCUMENT(S) CD396719, WHICH IS (ARE) RECORDED FOR PIN IDENTIFICATION ONLY.
17165	0038	THIS PARCEL WAS CREATED BASED ON INFORMATION CONTAINED IN DOCUMENT(S) CD338594, WHICH IS (ARE) RECORDED FOR PIN IDENTIFICATION ONLY.
17165	0042	THIS PARCEL WAS CREATED BASED ON INFORMATION CONTAINED IN DOCUMENT(S) CD448376, WHICH IS (ARE) RECORDED FOR PIN IDENTIFICATION ONLY.
17165	0043	THIS PARCEL WAS CREATED BASED ON INFORMATION CONTAINED IN DOCUMENT(S) AB121647,AB284939,AB401482,CD115171, CD291660,CD291661, WHICH IS (ARE) RECORDED FOR PIN IDENTIFICATION ONLY.
17165	0050	THIS PARCEL WAS CREATED BASED ON INFORMATION CONTAINED IN DOCUMENT(S) CD76073, WHICH IS (ARE) RECORDED FOR PIN IDENTIFICATION ONLY.
17165	0073	THIS PARCEL WAS CREATED BASED ON INFORMATION CONTAINED IN DOCUMENT(S) VM213190, WHICH IS (ARE) RECORDED FOR PIN IDENTIFICATION ONLY.
17165	0139	THIS PARCEL WAS CREATED BASED ON INFORMATION CONTAINED IN DOCUMENT(S):WHICH IS (ARE) RECORDED FOR PIN IDENTIFICATION ONLY.
17165	0141	THIS PARCEL WAS CREATED BASED ON INFORMATION CONTAINED IN DOCUMENT(S):WHICH IS (ARE) RECORDED FOR PIN IDENTIFICATION ONLY.
17166	0012	CORRECTION: DOCUMENT WE10056121 REMOVED FROM 17166-0012 ON 2023/05/10 AT 15:42 BY STURINO, NADINE.
17167	0005	THIS PARCEL WAS CREATED BASED ON INFORMATION CONTAINED IN DOCUMENT(S) CD492891, WHICH IS (ARE) RECORDED FOR PIN IDENTIFICATION ONLY.
17167	0018	THIS PARCEL WAS CREATED BASED ON INFORMATION CONTAINED IN DOCUMENT(S) CD29278, WHICH IS (ARE) RECORDED FOR PIN IDENTIFICATION ONLY.
17167	0057	THIS PARCEL WAS CREATED BASED ON INFORMATION CONTAINED IN DOCUMENT(S) VM231130, WHICH IS (ARE) RECORDED FOR PIN IDENTIFICATION ONLY.
17167	0060	THIS PARCEL WAS CREATED BASED ON INFORMATION CONTAINED IN DOCUMENT(S) CD23387,CD29278, WHICH IS (ARE) RECORDED FOR PIN IDENTIFICATION ONLY.
17167	0068	THIS PARCEL WAS CREATED BASED ON INFORMATION CONTAINED IN DOCUMENT(S) CD29278,HL236265, WHICH IS (ARE) RECORDED FOR PIN IDENTIFICATION ONLY.
17167	0069	THIS PARCEL WAS CREATED BASED ON INFORMATION CONTAINED IN DOCUMENT(S) VM2200, WHICH IS (ARE) RECORDED FOR PIN IDENTIFICATION ONLY.
17167	0089	THIS PARCEL WAS CREATED BASED ON INFORMATION CONTAINED IN DOCUMENT(S) VM207293, WHICH IS (ARE) RECORDED FOR PIN IDENTIFICATION ONLY.
17167	0094	THIS PARCEL WAS CREATED BASED ON INFORMATION CONTAINED IN DOCUMENT(S) VM172214, WHICH IS (ARE) RECORDED FOR PIN IDENTIFICATION ONLY.
17167	0101	THIS PARCEL WAS CREATED BASED ON INFORMATION CONTAINED IN DOCUMENT(S) VM172214, WHICH IS (ARE) RECORDED FOR PIN IDENTIFICATION ONLY.
17167	0117	THIS PARCEL WAS CREATED BASED ON INFORMATION CONTAINED IN DOCUMENT(S):CD29278, HL236265, WHICH IS (ARE) FOR PIN IDENTIFICATION ONLY.
17168	0002	THIS PARCEL WAS CREATED BASED ON INFORMATION CONTAINED IN DOCUMENT(S) CD453186,VM205241, WHICH IS (ARE) RECORDED FOR PIN IDENTIFICATION ONLY.
17168	0003	THIS PARCEL WAS CREATED BASED ON INFORMATION CONTAINED IN DOCUMENT(S) VM53867, WHICH IS (ARE) RECORDED FOR PIN IDENTIFICATION ONLY. CORRECTION: INSTRUMENT NUMBER VM248954 WAS OMITTED FROM THIS PROPERTY IN ERROR AND WAS ADDED AND CERTIFIED ON 2000/10/03 BY
17168	0014	THIS PARCEL WAS CREATED BASED ON INFORMATION CONTAINED IN DOCUMENT(S) AB395301, WHICH IS (ARE) RECORDED FOR PIN IDENTIFICATION ONLY.
17168	0016	THIS PARCEL WAS CREATED BASED ON INFORMATION CONTAINED IN DOCUMENT(S) CD515688, WHICH IS (ARE) RECORDED FOR PIN IDENTIFICATION ONLY.
17168	0021	THIS PARCEL WAS CREATED BASED ON INFORMATION CONTAINED IN DOCUMENT(S) VM88551, WHICH IS (ARE) RECORDED FOR PIN IDENTIFICATION ONLY.
17168	0035	THIS PARCEL WAS CREATED BASED ON INFORMATION CONTAINED IN DOCUMENT(S) VM210285, WHICH IS (ARE) RECORDED FOR PIN IDENTIFICATION ONLY.
17168	0039	THIS PARCEL WAS CREATED BASED ON INFORMATION CONTAINED IN DOCUMENT(S) VM234777, WHICH IS (ARE) RECORDED FOR PIN IDENTIFICATION ONLY.
17168	0041	THIS PARCEL WAS CREATED BASED ON INFORMATION CONTAINED IN DOCUMENT(S) CD87732, WHICH IS (ARE) RECORDED FOR PIN IDENTIFICATION ONLY.
17168	0046	THIS PARCEL WAS CREATED BASED ON INFORMATION CONTAINED IN DOCUMENT(S) CD460624, WHICH IS (ARE) RECORDED FOR PIN IDENTIFICATION ONLY.
17168	0055	THIS PARCEL WAS CREATED BASED ON INFORMATION CONTAINED IN DOCUMENT(S) VM65492, WHICH IS (ARE) RECORDED FOR PIN IDENTIFICATION ONLY.
17168	0098	THIS PARCEL WAS CREATED BASED ON INFORMATION CONTAINED IN DOCUMENT(S) CD186524, WHICH IS (ARE) RECORDED FOR PIN IDENTIFICATION ONLY.
17168	0109	THIS PARCEL WAS CREATED BASED ON INFORMATION CONTAINED IN DOCUMENT(S) VM223575, WHICH IS (ARE) RECORDED FOR PIN IDENTIFICATION ONLY.
17168	0115	THIS PARCEL WAS CREATED BASED ON INFORMATION CONTAINED IN DOCUMENT(S) VM236888, WHICH IS (ARE) RECORDED FOR PIN IDENTIFICATION ONLY.
17168	0120	THIS PARCEL WAS CREATED BASED ON INFORMATION CONTAINED IN DOCUMENT(S) CD437696,VM112252,VM203338, WHICH IS (ARE) RECORDED FOR PIN IDENTIFICATION ONLY.
17168	0133	THIS PARCEL WAS CREATED BASED ON INFORMATION CONTAINED IN DOCUMENT(S) CD358846, WHICH IS (ARE) RECORDED FOR PIN IDENTIFICATION ONLY.
17168	0136	THIS PARCEL WAS CREATED BASED ON INFORMATION CONTAINED IN DOCUMENT(S) HL16417, WHICH IS (ARE) RECORDED FOR PIN IDENTIFICATION ONLY.
17168	0139	THIS PARCEL WAS CREATED BASED ON INFORMATION CONTAINED IN DOCUMENT(S) CD466676, WHICH IS (ARE) RECORDED FOR PIN IDENTIFICATION ONLY.
17168	0151	THIS PARCEL WAS CREATED BASED ON INFORMATION CONTAINED IN DOCUMENT(S) VM177778,VM237223,VM237655,VM237907, VM50268, WHICH IS (ARE) RECORDED FOR PIN IDENTIFICATION ONLY.
17168	0175	THIS PARCEL WAS CREATED BASED ON INFORMATION CONTAINED IN DOCUMENT(S):VM223575 WHICH IS (ARE) RECORDED FOR PIN IDENTIFICATION ONLY.
17168	0187	"FOR THE PURPOSE OF THE QUALIFIER THE DATE OF REGISTRATION OF ABSOLUTE TITLE IS 2005/10/20". S/T UNREGISTERED LEASES EXISTING AT THE TIME OF FIRST REGISTRATION OF THIS LAND UNDER THE LAND TITLES ACT.
17168	0188	THIS PARCEL WAS CREATED BASED ON INFORMATION CONTAINED IN DOCUMENT(S):VM223575 WHICH IS (ARE) RECORDED FOR PIN IDENTIFICATION ONLY.
17169	0004	THIS PARCEL WAS CREATED BASED ON INFORMATION CONTAINED IN DOCUMENT(S) CD487507, WHICH IS (ARE) RECORDED FOR PIN IDENTIFICATION ONLY.
17169	0035	THIS PARCEL WAS CREATED BASED ON INFORMATION CONTAINED IN DOCUMENT(S) AB185883, WHICH IS (ARE) RECORDED FOR PIN IDENTIFICATION ONLY.
17169	0039	THIS PARCEL WAS CREATED BASED ON INFORMATION CONTAINED IN DOCUMENT(S) VM237551, WHICH IS (ARE) RECORDED FOR PIN IDENTIFICATION ONLY.
17169	0040	THIS PARCEL WAS CREATED BASED ON INFORMATION CONTAINED IN DOCUMENT(S) VM102945, WHICH IS (ARE) RECORDED FOR PIN IDENTIFICATION ONLY.
17169	0050	THIS PARCEL WAS CREATED BASED ON INFORMATION CONTAINED IN DOCUMENT(S) VM219344, WHICH IS (ARE) RECORDED FOR PIN IDENTIFICATION ONLY.
17169	0094	THIS PARCEL WAS CREATED BASED ON INFORMATION CONTAINED IN DOCUMENT(S) CD296867, WHICH IS (ARE) RECORDED FOR PIN IDENTIFICATION ONLY.
17169	0096	THIS PARCEL WAS CREATED BASED ON INFORMATION CONTAINED IN DOCUMENT(S) VM157619, WHICH IS (ARE) RECORDED FOR PIN IDENTIFICATION ONLY.
17169	0101	THIS PARCEL WAS CREATED BASED ON INFORMATION CONTAINED IN DOCUMENT(S) CD123509, WHICH IS (ARE) RECORDED FOR PIN IDENTIFICATION ONLY.
17169	0111	THIS PARCEL WAS CREATED BASED ON INFORMATION CONTAINED IN DOCUMENT(S) VM197412, WHICH IS (ARE) RECORDED FOR PIN IDENTIFICATION ONLY.
17169	0113	THIS PARCEL WAS CREATED BASED ON INFORMATION CONTAINED IN DOCUMENT(S) CD496756, WHICH IS (ARE) RECORDED FOR PIN IDENTIFICATION ONLY.
17169	0121	THIS PARCEL WAS CREATED BASED ON INFORMATION CONTAINED IN DOCUMENT(S) CD422001, WHICH IS (ARE) RECORDED FOR PIN IDENTIFICATION ONLY.
17169	0133	THIS PARCEL WAS CREATED BASED ON INFORMATION CONTAINED IN DOCUMENT(S) VM221304, WHICH IS (ARE) RECORDED FOR PIN IDENTIFICATION ONLY.
17169	0138	THIS PARCEL WAS CREATED BASED ON INFORMATION CONTAINED IN DOCUMENT(S) CD362116, WHICH IS (ARE) RECORDED FOR PIN IDENTIFICATION ONLY.
17170	0049	THIS PARCEL WAS CREATED BASED ON INFORMATION CONTAINED IN DOCUMENT(S) HA3039, WHICH IS (ARE) RECORDED FOR PIN IDENTIFICATION ONLY.
17170	0082	THIS PARCEL WAS CREATED BASED ON INFORMATION CONTAINED IN DOCUMENT(S) CD151957, WHICH IS (ARE) RECORDED FOR PIN IDENTIFICATION ONLY.
17170	0094	THIS PARCEL WAS CREATED BASED ON INFORMATION CONTAINED IN DOCUMENT(S) NS91545, WHICH IS (ARE) RECORDED FOR PIN IDENTIFICATION ONLY.
17170	0104	THIS PARCEL WAS CREATED BASED ON INFORMATION CONTAINED IN DOCUMENT(S) HL124951, WHICH IS (ARE) RECORDED FOR PIN IDENTIFICATION ONLY.
17170	0119	THIS PARCEL WAS CREATED BASED ON INFORMATION CONTAINED IN DOCUMENT(S) VM107710,VM126802, WHICH IS (ARE) RECORDED FOR PIN IDENTIFICATION ONLY.
17170	0121	THIS PARCEL WAS CREATED BASED ON INFORMATION CONTAINED IN DOCUMENT(S) VM122006, WHICH IS (ARE) RECORDED FOR PIN IDENTIFICATION ONLY.
17170	0126	THIS PARCEL WAS CREATED BASED ON INFORMATION CONTAINED IN DOCUMENT(S) VM63192, WHICH IS (ARE) RECORDED FOR PIN IDENTIFICATION ONLY.
17170	0128	THIS PARCEL WAS CREATED BASED ON INFORMATION CONTAINED IN DOCUMENT(S) VM233417, WHICH IS (ARE) RECORDED FOR PIN IDENTIFICATION ONLY.
17171	0003	THIS PARCEL WAS CREATED BASED ON INFORMATION CONTAINED IN DOCUMENT(S) CD7184, WHICH IS (ARE) RECORDED FOR PIN IDENTIFICATION ONLY.
17171	0004	THIS PARCEL WAS CREATED BASED ON INFORMATION CONTAINED IN DOCUMENT(S) CD438826,VM140673, WHICH IS (ARE) RECORDED FOR PIN IDENTIFICATION ONLY.
17171	0038	THIS PARCEL WAS CREATED BASED ON INFORMATION CONTAINED IN DOCUMENT(S) CD361514, WHICH IS (ARE) RECORDED FOR PIN IDENTIFICATION ONLY.
17171	0040	THIS PARCEL WAS CREATED BASED ON INFORMATION CONTAINED IN DOCUMENT(S) CD389622, WHICH IS (ARE) RECORDED FOR PIN IDENTIFICATION ONLY.
17171	0041	THIS PARCEL WAS CREATED BASED ON INFORMATION CONTAINED IN DOCUMENT(S) CD109520, WHICH IS (ARE) RECORDED FOR PIN IDENTIFICATION ONLY.
17171	0049	THIS PARCEL WAS CREATED BASED ON INFORMATION CONTAINED IN DOCUMENT(S) CD495738, WHICH IS (ARE) RECORDED FOR PIN IDENTIFICATION ONLY.
17171	0052	THIS PARCEL WAS CREATED BASED ON INFORMATION CONTAINED IN DOCUMENT(S) VM229186, WHICH IS (ARE) RECORDED FOR PIN IDENTIFICATION ONLY.
17171	0067	THIS PARCEL WAS CREATED BASED ON INFORMATION CONTAINED IN DOCUMENT(S) AB106377, WHICH IS (ARE) RECORDED FOR PIN IDENTIFICATION ONLY.
17171	0084	THIS PARCEL WAS CREATED BASED ON INFORMATION CONTAINED IN DOCUMENT(S) CD398630, WHICH IS (ARE) RECORDED FOR PIN IDENTIFICATION ONLY.
17171	0085	THIS PARCEL WAS CREATED BASED ON INFORMATION CONTAINED IN DOCUMENT(S) CD398629, WHICH IS (ARE) RECORDED FOR PIN IDENTIFICATION ONLY.
17171	0099	THIS PARCEL WAS CREATED BASED ON INFORMATION CONTAINED IN DOCUMENT(S) VM142734, WHICH IS (ARE) RECORDED FOR PIN IDENTIFICATION ONLY.
17172	0170	ON 2004/02/02 AT 10:33 THE ESTATE/QUALIFIER WERE CHANGED TO FEE SIMPLE ABSOLUTE FROM FEE SIMPLE LT CONVERSION QUALIFIED BY ANNETTE VAN DUYN .
17173	0178	THIS PARCEL WAS CREATED BASED ON INFORMATION CONTAINED IN DOCUMENT(S) AB99583,HA322090,HA322730,HA324271, NS15355,NS197093,NS2574,VM215092, WHICH IS (ARE) RECORDED FOR PIN IDENTIFICATION ONLY.
17173	0189	THIS PARCEL WAS CREATED BASED ON INFORMATION CONTAINED IN DOCUMENT(S) CD462602, WHICH IS (ARE) RECORDED FOR PIN IDENTIFICATION ONLY.
17173	0193	THIS PARCEL WAS CREATED BASED ON INFORMATION CONTAINED IN DOCUMENT(S) AB2579, WHICH IS (ARE) RECORDED FOR PIN IDENTIFICATION ONLY.
17173	0219	THIS PARCEL WAS CREATED BASED ON INFORMATION CONTAINED IN DOCUMENT(S) CD245532, WHICH IS (ARE) RECORDED FOR PIN IDENTIFICATION ONLY.
17173	0221	THIS PARCEL WAS CREATED BASED ON INFORMATION CONTAINED IN DOCUMENT(S) CD309438, WHICH IS (ARE) RECORDED FOR PIN IDENTIFICATION ONLY.
17173	0272	THIS PARCEL WAS CREATED BASED ON INFORMATION CONTAINED IN DOCUMENT(S) AB226868, WHICH IS (ARE) RECORDED FOR PIN IDENTIFICATION ONLY.
17173	0285	THIS PARCEL WAS CREATED BASED ON INFORMATION CONTAINED IN DOCUMENT(S) CD20392, WHICH IS (ARE) RECORDED FOR PIN IDENTIFICATION ONLY.
17174	0024	THIS PARCEL WAS CREATED BASED ON INFORMATION CONTAINED IN DOCUMENT(S) VM17245, WHICH IS (ARE) RECORDED FOR PIN IDENTIFICATION ONLY.
17174	0048	THIS PARCEL WAS CREATED BASED ON INFORMATION CONTAINED IN DOCUMENT(S) VM192402, WHICH IS (ARE) RECORDED FOR PIN IDENTIFICATION ONLY.
17174	0056	THIS PARCEL WAS CREATED BASED ON INFORMATION CONTAINED IN DOCUMENT(S) VM216441, WHICH IS (ARE) RECORDED FOR PIN IDENTIFICATION ONLY.
17174	0069	THIS PARCEL WAS CREATED BASED ON INFORMATION CONTAINED IN DOCUMENT(S) CD91145, WHICH IS (ARE) RECORDED FOR PIN IDENTIFICATION ONLY.
17174	0073	THIS PARCEL WAS CREATED BASED ON INFORMATION CONTAINED IN DOCUMENT(S) CD342565, WHICH IS (ARE) RECORDED FOR PIN IDENTIFICATION ONLY.
17174	0077	THIS PARCEL WAS CREATED BASED ON INFORMATION CONTAINED IN DOCUMENT(S) CD222520, WHICH IS (ARE) RECORDED FOR PIN IDENTIFICATION ONLY.
17174	0099	THIS PARCEL WAS CREATED BASED ON INFORMATION CONTAINED IN DOCUMENT(S) VM193513, WHICH IS (ARE) RECORDED FOR PIN IDENTIFICATION ONLY.
17174	0101	THIS PARCEL WAS CREATED BASED ON INFORMATION CONTAINED IN DOCUMENT(S) HL203250, WHICH IS (ARE) RECORDED FOR PIN IDENTIFICATION ONLY.
17174	0108	THIS PARCEL WAS CREATED BASED ON INFORMATION CONTAINED IN DOCUMENT(S) VM10097, WHICH IS (ARE) RECORDED FOR PIN IDENTIFICATION ONLY.
17174	0112	THIS PARCEL WAS CREATED BASED ON INFORMATION CONTAINED IN DOCUMENT(S) HL83472, WHICH IS (ARE) RECORDED FOR PIN IDENTIFICATION ONLY.
17174	0113	THIS PARCEL WAS CREATED BASED ON INFORMATION CONTAINED IN DOCUMENT(S) GR2970,HA60480,HA60496,HA60592,HA62777, HA63703,HA63704,HA63705,HA63706,HA63707,HA63714, HA63723,HA63731,HA63741,HA63742,HA63746,HA63755, HA63756,HA63763,HA63775,HA63776,HA63796,HA63809
17174	0116	THIS PARCEL WAS CREATED BASED ON INFORMATION CONTAINED IN DOCUMENT(S) AB162585,AB254001,AB257986,AB262936, AB324717,AB330579,AB357959,CD176169,CD224177,CD274179, CD431797,CD479787,CD479788,CD74497,CD74498, WHICH IS (ARE) RECORDED FOR PIN IDENTIFICATION ON
17174	0131	THIS PARCEL WAS CREATED BASED ON INFORMATION CONTAINED IN DOCUMENT(S) CD202362, WHICH IS (ARE) RECORDED FOR PIN IDENTIFICATION ONLY.
17174	0147	THIS PARCEL WAS CREATED BASED ON INFORMATION CONTAINED IN DOCUMENT(S) CD393959, WHICH IS (ARE) RECORDED FOR PIN IDENTIFICATION ONLY.
17174	0171	THIS PARCEL WAS CREATED BASED ON INFORMATION CONTAINED IN DOCUMENT(S) AB35917, WHICH IS (ARE) RECORDED FOR PIN IDENTIFICATION ONLY.
17174	0176	THIS PARCEL WAS CREATED BASED ON INFORMATION CONTAINED IN DOCUMENT(S) VM183556, WHICH IS (ARE) RECORDED FOR PIN IDENTIFICATION ONLY.
17174	0184	THIS PARCEL WAS CREATED BASED ON INFORMATION CONTAINED IN DOCUMENT(S) AB346361,CD230735,CD421617,VM107195, WHICH IS (ARE) RECORDED FOR PIN IDENTIFICATION ONLY.
17174	0185	THIS PARCEL WAS CREATED BASED ON INFORMATION CONTAINED IN DOCUMENT(S) CD485658, WHICH IS (ARE) RECORDED FOR PIN IDENTIFICATION ONLY.
17174	0189	THIS PARCEL WAS CREATED BASED ON INFORMATION CONTAINED IN DOCUMENT(S) VM115267, WHICH IS (ARE) RECORDED FOR PIN IDENTIFICATION ONLY.
17174	0190	THIS PARCEL WAS CREATED BASED ON INFORMATION CONTAINED IN DOCUMENT(S) VM216588, WHICH IS (ARE) RECORDED FOR PIN IDENTIFICATION ONLY.
17174	0194	THIS PARCEL WAS CREATED BASED ON INFORMATION CONTAINED IN DOCUMENT(S) NS151255, WHICH IS (ARE) RECORDED FOR PIN IDENTIFICATION ONLY.
17174	0199	THIS PARCEL WAS CREATED BASED ON INFORMATION CONTAINED IN DOCUMENT(S) VM140242, WHICH IS (ARE) RECORDED FOR PIN IDENTIFICATION ONLY.
17174	0214	THIS PARCEL WAS CREATED BASED ON INFORMATION CONTAINED IN DOCUMENT(S) CD408962, WHICH IS (ARE) RECORDED FOR PIN IDENTIFICATION ONLY.
17174	0222	THIS PARCEL WAS CREATED BASED ON INFORMATION CONTAINED IN DOCUMENT(S) HA60939,HA60952,HA7580,HA7969,HA8325, HA8477,HA8647,HA8648,NS161131, WHICH IS (ARE) RECORDED FOR PIN IDENTIFICATION ONLY.
17174	0234	THIS PARCEL WAS CREATED BASED ON INFORMATION CONTAINED IN DOCUMENT(S) CD501051, WHICH IS (ARE) RECORDED FOR PIN IDENTIFICATION ONLY.
17174	0243	THIS PARCEL WAS CREATED BASED ON INFORMATION CONTAINED IN DOCUMENT(S):GR2970,HA60480,HA60496,HA60592,HA62777,HA63703,HA63704,HA63705,HA63706,HA63707,HA63714,HA63723,HA63731,HA63741,HA63742,HA63746,HA63755,HA63756,HA63763,HA63775,HA63776,HA63796,HA63809,HA
17174	0246	PLANNING ACT CONSENT ON VM256840.
17174	0247	THIS PARCEL WAS CREATED BASED ON INFORMATION CONTAINED IN DOCUMENT(S):AB346361, CD230735, CD421617, VM107195 SAVE & EXCEPT PT 3 ON 62R-16296WHICH IS (ARE) RECORDED FOR PIN IDENTIFICATION ONLY.
17175	0231	CORRECTION: INSTRUMENT NUMBER LT436106 WAS ENTERED IN ERROR AGAINST THIS PROPERTY AND WAS REMOVED AND CERTIFIED ON 1998/09/23 BY MARLENE HUNTER.
17183	0194	CORRECTION: INSTRUMENT NUMBER CD458399 WAS ENTERED IN ERROR AGAINST THIS PROPERTY AND WAS REMOVED AND CERTIFIED ON 1999/01/21 BY HELEN MERRILL. CORRECTION: INSTRUMENT NUMBER CD485399 WAS OMITTED FROM THIS PROPERTY IN ERROR AND WAS ADDED AND CERTIFIED ON 1
17184	0284	SUBSECTION 44 (1) OF THE LAND TITLES ACT, EXCEPT PARAGRAPH 11, PARAGRAPH 14, PROVINCIAL SUCCESSION DUTIES AND ESCHEATS OR FORFEITURE TO THE CROWN UP TO THE DATE OF CONVERSION AND EXCEPT PARAGRAPH 3 AND PARAGRAPH 14 THEREAFTER.
17186	0222	CORRECTION: INSTRUMENT NUMBER VM222817 WAS OMITTED FROM THIS PROPERTY IN ERROR AND WAS ADDED AND CERTIFIED ON 1997/04/01 BY JEFF GILBERT.
17186	0300	CORRECTION: INSTRUMENT NUMBER LT433905 WAS OMITTED FROM THIS PROPERTY IN ERROR AND WAS ADDED AND CERTIFIED ON 1997/03/29 BY JEFF GILBERT.
17186	0312	CORRECTION: INSTRUMENT NUMBER VM95419 WAS OMITTED FROM THIS PROPERTY IN ERROR AND WAS ADDED AND CERTIFIED ON 1997/06/03 BY MARLENE HUNTER.
17188	0065	CORRECTION: INSTRUMENT NUMBER LT604906 WAS OMITTED FROM THIS PROPERTY IN ERROR AND WAS ADDED AND CERTIFIED ON 2000/07/20 BY DEBBIE SARKANY.
17192	0049	CORRECTION: INSTRUMENT NUMBER VM247901 WAS ENTERED IN ERROR AGAINST THIS PROPERTY AND WAS REMOVED AND CERTIFIED ON 2000/05/03 BY ANNE MARIE BERTRAND. CORRECTION: INSTRUMENT NUMBER VM247892 WAS ENTERED IN ERROR AGAINST THIS PROPERTY AND WAS REMOVED AND CER
17192	0050	CORRECTION: INSTRUMENT NUMBER VM247901 WAS ENTERED IN ERROR AGAINST THIS PROPERTY AND WAS REMOVED AND CERTIFIED ON 2000/05/03 BY ANNE MARIE BERTRAND. CORRECTION: INSTRUMENT NUMBER VM247892 WAS ENTERED IN ERROR AGAINST THIS PROPERTY AND WAS REMOVED AND CER
17192	0051	CORRECTION: INSTRUMENT NUMBER VM247901 WAS ENTERED IN ERROR AGAINST THIS PROPERTY AND WAS REMOVED AND CERTIFIED ON 2000/05/03 BY ANNE MARIE BERTRAND. CORRECTION: INSTRUMENT NUMBER VM247892 WAS ENTERED IN ERROR AGAINST THIS PROPERTY AND WAS REMOVED AND CER
17192	0052	CORRECTION: INSTRUMENT NUMBER VM247901 WAS ENTERED IN ERROR AGAINST THIS PROPERTY AND WAS REMOVED AND CERTIFIED ON 2000/05/03 BY ANNE MARIE BERTRAND. CORRECTION: INSTRUMENT NUMBER VM247892 WAS ENTERED IN ERROR AGAINST THIS PROPERTY AND WAS REMOVED AND CER
17192	0053	CORRECTION: INSTRUMENT NUMBER VM247901 WAS ENTERED IN ERROR AGAINST THIS PROPERTY AND WAS REMOVED AND CERTIFIED ON 2000/05/03 BY ANNE MARIE BERTRAND. CORRECTION: INSTRUMENT NUMBER VM247892 WAS ENTERED IN ERROR AGAINST THIS PROPERTY AND WAS REMOVED AND CER
17192	0054	CORRECTION: INSTRUMENT NUMBER VM247901 WAS ENTERED IN ERROR AGAINST THIS PROPERTY AND WAS REMOVED AND CERTIFIED ON 2000/05/03 BY ANNE MARIE BERTRAND. CORRECTION: INSTRUMENT NUMBER VM247892 WAS ENTERED IN ERROR AGAINST THIS PROPERTY AND WAS REMOVED AND CER
17192	0063	CORRECTION: INSTRUMENT NUMBER VM247901 WAS ENTERED IN ERROR AGAINST THIS PROPERTY AND WAS REMOVED AND CERTIFIED ON 2000/05/03 BY ANNE MARIE BERTRAND. CORRECTION: INSTRUMENT NUMBER VM247892 WAS ENTERED IN ERROR AGAINST THIS PROPERTY AND WAS REMOVED AND CER
17192	0066	CORRECTION: INSTRUMENT NUMBER VM247901 WAS ENTERED IN ERROR AGAINST THIS PROPERTY AND WAS REMOVED AND CERTIFIED ON 2000/05/03 BY ANNE MARIE BERTRAND. CORRECTION: INSTRUMENT NUMBER VM247892 WAS ENTERED IN ERROR AGAINST THIS PROPERTY AND WAS REMOVED AND CER
17192	0067	CORRECTION: INSTRUMENT NUMBER VM247901 WAS ENTERED IN ERROR AGAINST THIS PROPERTY AND WAS REMOVED AND CERTIFIED ON 2000/05/03 BY ANNE MARIE BERTRAND. CORRECTION: INSTRUMENT NUMBER VM247892 WAS ENTERED IN ERROR AGAINST THIS PROPERTY AND WAS REMOVED AND CER
17192	0068	CORRECTION: INSTRUMENT NUMBER VM247901 WAS ENTERED IN ERROR AGAINST THIS PROPERTY AND WAS REMOVED AND CERTIFIED ON 2000/05/03 BY ANNE MARIE BERTRAND. CORRECTION: INSTRUMENT NUMBER VM247892 WAS ENTERED IN ERROR AGAINST THIS PROPERTY AND WAS REMOVED AND CER
17192	0070	CORRECTION: INSTRUMENT NUMBER VM132634 WAS OMITTED FROM THIS PROPERTY IN ERROR AND WAS ADDED AND CERTIFIED ON 1996/09/27 BY PETER GAIGAL. CORRECTION: INSTRUMENT NUMBER VM132635 WAS OMITTED FROM THIS PROPERTY IN ERROR AND WAS ADDED AND CERTIFIED ON 1996/09
17192	0071	CORRECTION: INSTRUMENT NUMBER VM247901 WAS ENTERED IN ERROR AGAINST THIS PROPERTY AND WAS REMOVED AND CERTIFIED ON 2000/05/03 BY ANNE MARIE BERTRAND. CORRECTION: INSTRUMENT NUMBER VM247892 WAS ENTERED IN ERROR AGAINST THIS PROPERTY AND WAS REMOVED AND CER
17192	0079	CORRECTION: INSTRUMENT NUMBER VM247901 WAS ENTERED IN ERROR AGAINST THIS PROPERTY AND WAS REMOVED AND CERTIFIED ON 2000/05/03 BY ANNE MARIE BERTRAND. CORRECTION: INSTRUMENT NUMBER VM247892 WAS ENTERED IN ERROR AGAINST THIS PROPERTY AND WAS REMOVED AND CER
17192	0080	CORRECTION: INSTRUMENT NUMBER VM247901 WAS ENTERED IN ERROR AGAINST THIS PROPERTY AND WAS REMOVED AND CERTIFIED ON 2000/05/03 BY ANNE MARIE BERTRAND. CORRECTION: INSTRUMENT NUMBER VM247892 WAS ENTERED IN ERROR AGAINST THIS PROPERTY AND WAS REMOVED AND CER
17192	0081	CORRECTION: INSTRUMENT NUMBER VM247901 WAS ENTERED IN ERROR AGAINST THIS PROPERTY AND WAS REMOVED AND CERTIFIED ON 2000/05/03 BY ANNE MARIE BERTRAND. CORRECTION: INSTRUMENT NUMBER VM247892 WAS ENTERED IN ERROR AGAINST THIS PROPERTY AND WAS REMOVED AND CER
17192	0082	CORRECTION: INSTRUMENT NUMBER VM247901 WAS ENTERED IN ERROR AGAINST THIS PROPERTY AND WAS REMOVED AND CERTIFIED ON 2000/05/03 BY ANNE MARIE BERTRAND. CORRECTION: INSTRUMENT NUMBER VM247892 WAS ENTERED IN ERROR AGAINST THIS PROPERTY AND WAS REMOVED AND CER
17192	0083	CORRECTION: INSTRUMENT NUMBER VM247901 WAS ENTERED IN ERROR AGAINST THIS PROPERTY AND WAS REMOVED AND CERTIFIED ON 2000/05/03 BY ANNE MARIE BERTRAND. CORRECTION: INSTRUMENT NUMBER VM247892 WAS ENTERED IN ERROR AGAINST THIS PROPERTY AND WAS REMOVED AND CER
17192	0095	CORRECTION: INSTRUMENT NUMBER LT469054 WAS OMITTED FROM THIS PROPERTY IN ERROR AND WAS ADDED AND CERTIFIED ON 2003/11/14 BY CATHY BUFALINO.
17204	0006	CORRECTION: INSTRUMENT NUMBER VM122444 WAS ENTERED IN ERROR AGAINST THIS PROPERTY AND WAS REMOVED AND CERTIFIED ON 1996/11/15 BY MARLENE HUNTER.
17204	0009	CORRECTION: INSTRUMENT NUMBER VM122444 WAS OMITTED FROM THIS PROPERTY IN ERROR AND WAS ADDED AND CERTIFIED ON 1996/11/15 BY MARLENE HUNTER.
17205	0037	CORRECTION: INSTRUMENT NUMBER LT432146 WAS ENTERED IN ERROR AGAINST THIS PROPERTY AND WAS REMOVED AND CERTIFIED ON 1999/03/18 BY ANNETTE VAN DUYN.
17207	0164	THE FOLLOWING REMARK HAS BEEN ADDED ON 2003/06/23 AT 11:38 BY CHERYL LANGKAMER : CONSENT OF LAND DIVISION COMMITTEE AS IN WE24590.
17209	0085	CORRECTION: INSTRUMENT NUMBER LT487998 WAS OMITTED FROM THIS PROPERTY IN ERROR AND WAS ADDED AND CERTIFIED ON 2003/04/28 BY ANNETTE VAN DUYN.
17213	0139	CORRECTION: INSTRUMENT NUMBER VM139270 WAS OMITTED FROM THIS PROPERTY IN ERROR AND WAS ADDED AND CERTIFIED ON 1996/06/27 BY JEFF GILBERT.
17217	0062	CORRECTION: INSTRUMENT NUMBER 62R-10098 WAS OMITTED FROM THIS PROPERTY IN ERROR AND WAS ADDED AND CERTIFIED ON 2000/01/21 BY DEBBIE SARKANY.
17217	0367	COMMITTEE OF ADJUSTMENT CONSENT IN WE317504.
17218	0010	THIS PARCEL WAS CREATED BASED ON INFORMATION CONTAINED IN DOCUMENT(S) AB157947,AB158688,AB169352,AB174264, AB183362,AB188810,AB228841,AB264017, WHICH IS (ARE) RECORDED FOR PIN IDENTIFICATION ONLY.
17218	0039	THIS PARCEL WAS CREATED BASED ON INFORMATION CONTAINED IN DOCUMENT(S) BR9207,BR9208,BR9236,CD19035,HA103285, HA136328,HA141790,HA167844, WHICH IS (ARE) RECORDED FOR PIN IDENTIFICATION ONLY.
17218	0069	PLANNING ACT CONSENT AS IN VM106761.
17218	0078	THIS PARCEL WAS CREATED BASED ON INFORMATION CONTAINED IN DOCUMENT(S) VM149661, WHICH IS (ARE) RECORDED FOR PIN IDENTIFICATION ONLY.
17218	0191	THIS PARCEL WAS CREATED BASED ON INFORMATION CONTAINED IN DOCUMENT(S):WHICH IS (ARE) RECORDED FOR PIN IDENTIFICATION ONLY.
17218	0197	THIS PARCEL WAS CREATED BASED ON INFORMATION CONTAINED IN DOCUMENT(S) CD445408, WHICH IS (ARE) RECORDED FOR PIN IDENTIFICATION ONLY.
17218	0236	THIS PARCEL WAS CREATED BASED ON INFORMATION CONTAINED IN DOCUMENT(S) VM212556, WHICH IS (ARE) RECORDED FOR PIN IDENTIFICATION ONLY.
17218	0241	THIS PARCEL WAS CREATED BASED ON INFORMATION CONTAINED IN DOCUMENT(S) VM211488, WHICH IS (ARE) RECORDED FOR PIN IDENTIFICATION ONLY.
17218	0247	THIS PARCEL WAS CREATED BASED ON INFORMATION CONTAINED IN DOCUMENT(S) VM9120, WHICH IS (ARE) RECORDED FOR PIN IDENTIFICATION ONLY.
17218	0254	THIS PARCEL WAS CREATED BASED ON INFORMATION CONTAINED IN DOCUMENT(S) CD420712, WHICH IS (ARE) RECORDED FOR PIN IDENTIFICATION ONLY.
17218	0257	THIS PARCEL WAS CREATED BASED ON INFORMATION CONTAINED IN DOCUMENT(S) CD178371, WHICH IS (ARE) RECORDED FOR PIN IDENTIFICATION ONLY.
17218	0312	THIS PARCEL WAS CREATED BASED ON INFORMATION CONTAINED IN DOCUMENT(S) CD383981, WHICH IS (ARE) RECORDED FOR PIN IDENTIFICATION ONLY.
17218	0325	THIS PARCEL WAS CREATED BASED ON INFORMATION CONTAINED IN DOCUMENT(S) HA227519, WHICH IS (ARE) RECORDED FOR PIN IDENTIFICATION ONLY.
17218	0350	THIS PARCEL WAS CREATED BASED ON INFORMATION CONTAINED IN DOCUMENT(S) CD447779, WHICH IS (ARE) RECORDED FOR PIN IDENTIFICATION ONLY.
17219	0211	THIS PARCEL WAS CREATED BASED ON INFORMATION CONTAINED IN DOCUMENT(S) AB17035, WHICH IS (ARE) RECORDED FOR PIN IDENTIFICATION ONLY.
17219	0387	THIS PARCEL WAS CREATED BASED ON INFORMATION CONTAINED IN DOCUMENT(S) CD248464,CD396510, WHICH IS (ARE) RECORDED FOR PIN IDENTIFICATION ONLY.
17219	0449	THIS PARCEL WAS CREATED BASED ON INFORMATION CONTAINED IN DOCUMENT(S) AB330132, WHICH IS (ARE) RECORDED FOR PIN IDENTIFICATION ONLY.
17219	0454	THIS PARCEL WAS CREATED BASED ON INFORMATION CONTAINED IN DOCUMENT(S) VM154603, WHICH IS (ARE) RECORDED FOR PIN IDENTIFICATION ONLY.
17219	0526	THIS PARCEL WAS CREATED BASED ON INFORMATION CONTAINED IN DOCUMENT(S) AB391972, WHICH IS (ARE) RECORDED FOR PIN IDENTIFICATION ONLY.
17219	0551	THIS PARCEL WAS CREATED BASED ON INFORMATION CONTAINED IN DOCUMENT(S) VM17252, WHICH IS (ARE) RECORDED FOR PIN IDENTIFICATION ONLY.
17219	0582	THIS PARCEL WAS CREATED BASED ON INFORMATION CONTAINED IN DOCUMENT(S) VM213819, WHICH IS (ARE) RECORDED FOR PIN IDENTIFICATION ONLY.
17219	0613	THIS PARCEL WAS CREATED BASED ON INFORMATION CONTAINED IN DOCUMENT(S) VM182972, WHICH IS (ARE) RECORDED FOR PIN IDENTIFICATION ONLY.
17228	0221	CORRECTION: INSTRUMENT NUMBER VM80086 WAS ENTERED IN ERROR AGAINST THIS PROPERTY AND WAS REMOVED AND CERTIFIED ON 1997/09/12 BY ERIC CANNON.
17238	0021	CORRECTION: INSTRUMENT NUMBER WE11763 WAS OMITTED FROM THIS PROPERTY IN ERROR AND WAS ADDED AND CERTIFIED ON 2006/02/06 BY ANNETTE VAN DUYN.
17244	0006	CORRECTION: INSTRUMENT NUMBER LT558866 WAS OMITTED FROM THIS PROPERTY IN ERROR AND WAS ADDED AND CERTIFIED ON 1999/11/23 BY MARLENE HUNTER.
17251	0021	THIS PARCEL WAS CREATED BASED ON INFORMATION CONTAINED IN DOCUMENT(S) VM230620, WHICH IS (ARE) RECORDED FOR PIN IDENTIFICATION ONLY.
17251	0022	THIS PARCEL WAS CREATED BASED ON INFORMATION CONTAINED IN DOCUMENT(S) VM208851, WHICH IS (ARE) RECORDED FOR PIN IDENTIFICATION ONLY. CORRECTION: INSTRUMENT NUMBER VM265926 WAS OMITTED FROM THIS PROPERTY IN ERROR AND WAS ADDED AND CERTIFIED ON 2006/03/07 B
17251	0037	THIS PARCEL WAS CREATED BASED ON INFORMATION CONTAINED IN DOCUMENT(S) AB385069, WHICH IS (ARE) RECORDED FOR PIN IDENTIFICATION ONLY.
17251	0061	THIS PARCEL WAS CREATED BASED ON INFORMATION CONTAINED IN DOCUMENT(S) VM208616, WHICH IS (ARE) RECORDED FOR PIN IDENTIFICATION ONLY.
17251	0065	THIS PARCEL WAS CREATED BASED ON INFORMATION CONTAINED IN DOCUMENT(S) CD514703, WHICH IS (ARE) RECORDED FOR PIN IDENTIFICATION ONLY.
17271	0117	CORRECTION: INSTRUMENT NUMBER CD465104 WAS OMITTED FROM THIS PROPERTY IN ERROR AND WAS ADDED AND CERTIFIED ON 1998/11/10 BY ST. CATHARINES.
17272	0241	CORRECTION: INSTRUMENT NUMBER CD273045 WAS OMITTED FROM THIS PROPERTY IN ERROR AND WAS ADDED AND CERTIFIED ON 1996/02/20 BY ERIC CANNON.
17274	0005	CORRECTION: INSTRUMENT NUMBER 62R7590 WAS OMITTED FROM THIS PROPERTY IN ERROR AND WAS ADDED AND CERTIFIED ON 1996/11/18 BY ERIC CANNON.
17275	0292	SUBJECT ON THE DATE OF REGISTRATION 97/07/21 TO SUBSECTION 44(1) OF THE LAND TITLES ACT, EXCEPT PARAGRAPHS 3 AND 14 THEREOF AND PROVINCIAL SUCCESSION DUTIES.
17275	0294	SUBJECT ON THE DATE OF REGISTRATION 97/07/21 TO SUBSECTION 44(1) OF THE LAND TITLES ACT, EXCEPT PARAGRAPHS 3 AND 14 THEREOF AND PROVINCIAL SUCCESSION DUTIES.
17275	0295	SUBJECT ON THE DATE OF REGISTRATION 97/07/21 TO SUBSECTION 44(1) OF THE LAND TITLES ACT, EXCEPT PARAGRAPHS 3 AND 14 THEREOF AND PROVINCIAL SUCCESSION DUTIES.
17275	0296	SUBJECT ON THE DATE OF REGISTRATION 97/07/21 TO SUBSECTION 44(1) OF THE LAND TITLES ACT, EXCEPT PARAGRAPHS 3 AND 14 THEREOF AND PROVINCIAL SUCCESSION DUTIES.
17275	0297	SUBJECT ON THE DATE OF REGISTRATION 97/07/21 TO SUBSECTION 44(1) OF THE LAND TITLES ACT, EXCEPT PARAGRAPHS 3 AND 14 THEREOF AND PROVINCIAL SUCCESSION DUTIES.
17275	0298	SUBJECT ON THE DATE OF REGISTRATION 97/07/21 TO SUBSECTION 44(1) OF THE LAND TITLES ACT, EXCEPT PARAGRAPHS 3 AND 14 THEREOF AND PROVINCIAL SUCCESSION DUTIES.
17275	0299	SUBJECT ON THE DATE OF REGISTRATION 97/07/21 TO SUBSECTION 44(1) OF THE LAND TITLES ACT, EXCEPT PARAGRAPHS 3 AND 14 THEREOF AND PROVINCIAL SUCCESSION DUTIES.
17275	0300	SUBJECT ON THE DATE OF REGISTRATION 97/07/21 TO SUBSECTION 44(1) OF THE LAND TITLES ACT, EXCEPT PARAGRAPHS 3 AND 14 THEREOF AND PROVINCIAL SUCCESSION DUTIES.
17275	0301	SUBJECT ON THE DATE OF REGISTRATION 97/07/21 TO SUBSECTION 44(1) OF THE LAND TITLES ACT, EXCEPT PARAGRAPHS 3 AND 14 THEREOF AND PROVINCIAL SUCCESSION DUTIES.
17275	0302	SUBJECT ON THE DATE OF REGISTRATION 97/07/21 TO SUBSECTION 44(1) OF THE LAND TITLES ACT, EXCEPT PARAGRAPHS 3 AND 14 THEREOF AND PROVINCIAL SUCCESSION DUTIES.
17275	0303	SUBJECT ON THE DATE OF REGISTRATION 97/07/21 TO SUBSECTION 44(1) OF THE LAND TITLES ACT, EXCEPT PARAGRAPHS 3 AND 14 THEREOF AND PROVINCIAL SUCCESSION DUTIES.
17275	0304	SUBJECT ON THE DATE OF REGISTRATION 97/07/21 TO SUBSECTION 44(1) OF THE LAND TITLES ACT, EXCEPT PARAGRAPHS 3 AND 14 THEREOF AND PROVINCIAL SUCCESSION DUTIES.
17275	0305	SUBJECT ON THE DATE OF REGISTRATION 97/07/21 TO SUBSECTION 44(1) OF THE LAND TITLES ACT, EXCEPT PARAGRAPHS 3 AND 14 THEREOF AND PROVINCIAL SUCCESSION DUTIES.
17275	0306	SUBJECT ON THE DATE OF REGISTRATION 97/07/21 TO SUBSECTION 44(1) OF THE LAND TITLES ACT, EXCEPT PARAGRAPHS 3 AND 14 THEREOF AND PROVINCIAL SUCCESSION DUTIES.
17275	0307	SUBJECT ON THE DATE OF REGISTRATION 97/07/21 TO SUBSECTION 44(1) OF THE LAND TITLES ACT, EXCEPT PARAGRAPHS 3 AND 14 THEREOF AND PROVINCIAL SUCCESSION DUTIES.
17275	0308	SUBJECT ON THE DATE OF REGISTRATION 97/07/21 TO SUBSECTION 44(1) OF THE LAND TITLES ACT, EXCEPT PARAGRAPHS 3 AND 14 THEREOF AND PROVINCIAL SUCCESSION DUTIES.
17275	0309	SUBJECT ON THE DATE OF REGISTRATION 97/07/21 TO SUBSECTION 44(1) OF THE LAND TITLES ACT, EXCEPT PARAGRAPHS 3 AND 14 THEREOF AND PROVINCIAL SUCCESSION DUTIES.
17275	0310	SUBJECT ON THE DATE OF REGISTRATION 97/07/21 TO SUBSECTION 44(1) OF THE LAND TITLES ACT, EXCEPT PARAGRAPHS 3 AND 14 THEREOF AND PROVINCIAL SUCCESSION DUTIES.
17275	0311	SUBJECT ON THE DATE OF REGISTRATION 97/07/21 TO SUBSECTION 44(1) OF THE LAND TITLES ACT, EXCEPT PARAGRAPHS 3 AND 14 THEREOF AND PROVINCIAL SUCCESSION DUTIES.
17275	0312	SUBJECT ON THE DATE OF REGISTRATION 97/07/21 TO SUBSECTION 44(1) OF THE LAND TITLES ACT, EXCEPT PARAGRAPHS 3 AND 14 THEREOF AND PROVINCIAL SUCCESSION DUTIES.
17275	0313	SUBJECT ON THE DATE OF REGISTRATION 97/07/21 TO SUBSECTION 44(1) OF THE LAND TITLES ACT, EXCEPT PARAGRAPHS 3 AND 14 THEREOF AND PROVINCIAL SUCCESSION DUTIES.
17275	0314	SUBJECT ON THE DATE OF REGISTRATION 97/07/21 TO SUBSECTION 44(1) OF THE LAND TITLES ACT, EXCEPT PARAGRAPHS 3 AND 14 THEREOF AND PROVINCIAL SUCCESSION DUTIES.
17275	0315	SUBJECT ON THE DATE OF REGISTRATION 97/07/21 TO SUBSECTION 44(1) OF THE LAND TITLES ACT, EXCEPT PARAGRAPHS 3 AND 14 THEREOF AND PROVINCIAL SUCCESSION DUTIES.
17275	0316	SUBJECT ON THE DATE OF REGISTRATION 97/07/21 TO SUBSECTION 44(1) OF THE LAND TITLES ACT, EXCEPT PARAGRAPHS 3 AND 14 THEREOF AND PROVINCIAL SUCCESSION DUTIES.
17275	0317	SUBJECT ON THE DATE OF REGISTRATION 97/07/21 TO SUBSECTION 44(1) OF THE LAND TITLES ACT, EXCEPT PARAGRAPHS 3 AND 14 THEREOF AND PROVINCIAL SUCCESSION DUTIES.
17275	0318	SUBJECT ON THE DATE OF REGISTRATION 97/07/21 TO SUBSECTION 44(1) OF THE LAND TITLES ACT, EXCEPT PARAGRAPHS 3 AND 14 THEREOF AND PROVINCIAL SUCCESSION DUTIES.
17275	0319	SUBJECT ON THE DATE OF REGISTRATION 97/07/21 TO SUBSECTION 44(1) OF THE LAND TITLES ACT, EXCEPT PARAGRAPHS 3 AND 14 THEREOF AND PROVINCIAL SUCCESSION DUTIES.
17275	0320	SUBJECT ON THE DATE OF REGISTRATION 97/07/21 TO SUBSECTION 44(1) OF THE LAND TITLES ACT, EXCEPT PARAGRAPHS 3 AND 14 THEREOF AND PROVINCIAL SUCCESSION DUTIES.
17275	0321	SUBJECT ON THE DATE OF REGISTRATION 97/07/21 TO SUBSECTION 44(1) OF THE LAND TITLES ACT, EXCEPT PARAGRAPHS 3 AND 14 THEREOF AND PROVINCIAL SUCCESSION DUTIES.
17275	0322	SUBJECT ON THE DATE OF REGISTRATION 97/07/21 TO SUBSECTION 44(1) OF THE LAND TITLES ACT, EXCEPT PARAGRAPHS 3 AND 14 THEREOF AND PROVINCIAL SUCCESSION DUTIES.
17275	0323	SUBJECT ON THE DATE OF REGISTRATION 97/07/21 TO SUBSECTION 44(1) OF THE LAND TITLES ACT, EXCEPT PARAGRAPHS 3 AND 14 THEREOF AND PROVINCIAL SUCCESSION DUTIES.
17275	0324	SUBJECT ON THE DATE OF REGISTRATION 97/07/21 TO SUBSECTION 44(1) OF THE LAND TITLES ACT, EXCEPT PARAGRAPHS 3 AND 14 THEREOF AND PROVINCIAL SUCCESSION DUTIES.
17275	0325	SUBJECT ON THE DATE OF REGISTRATION 97/07/21 TO SUBSECTION 44(1) OF THE LAND TITLES ACT, EXCEPT PARAGRAPHS 3 AND 14 THEREOF AND PROVINCIAL SUCCESSION DUTIES.
17275	0326	SUBJECT ON THE DATE OF REGISTRATION 97/07/21 TO SUBSECTION 44(1) OF THE LAND TITLES ACT, EXCEPT PARAGRAPHS 3 AND 14 THEREOF AND PROVINCIAL SUCCESSION DUTIES.
17275	0327	SUBJECT ON THE DATE OF REGISTRATION 97/07/21 TO SUBSECTION 44(1) OF THE LAND TITLES ACT, EXCEPT PARAGRAPHS 3 AND 14 THEREOF AND PROVINCIAL SUCCESSION DUTIES.
17275	0328	SUBJECT ON THE DATE OF REGISTRATION 97/07/21 TO SUBSECTION 44(1) OF THE LAND TITLES ACT, EXCEPT PARAGRAPHS 3 AND 14 THEREOF AND PROVINCIAL SUCCESSION DUTIES.
17275	0329	SUBJECT ON THE DATE OF REGISTRATION 97/07/21 TO SUBSECTION 44(1) OF THE LAND TITLES ACT, EXCEPT PARAGRAPHS 3 AND 14 THEREOF AND PROVINCIAL SUCCESSION DUTIES.
17275	0330	SUBJECT ON THE DATE OF REGISTRATION 97/07/21 TO SUBSECTION 44(1) OF THE LAND TITLES ACT, EXCEPT PARAGRAPHS 3 AND 14 THEREOF AND PROVINCIAL SUCCESSION DUTIES.
17275	0331	SUBJECT ON THE DATE OF REGISTRATION 97/07/21 TO SUBSECTION 44(1) OF THE LAND TITLES ACT, EXCEPT PARAGRAPHS 3 AND 14 THEREOF AND PROVINCIAL SUCCESSION DUTIES.
17275	0332	SUBJECT ON THE DATE OF REGISTRATION 97/07/21 TO SUBSECTION 44(1) OF THE LAND TITLES ACT, EXCEPT PARAGRAPHS 3 AND 14 THEREOF AND PROVINCIAL SUCCESSION DUTIES. THE FOLLOWING REMARK HAS BEEN ADDED ON 2000/05/03 AT 16:51 BY LYN WEAVER : S/T RT. TO ENTER ANY T
17275	0333	SUBJECT ON THE DATE OF REGISTRATION 97/07/21 TO SUBSECTION 44(1) OF THE LAND TITLES ACT, EXCEPT PARAGRAPHS 3 AND 14 THEREOF AND PROVINCIAL SUCCESSION DUTIES.
17275	0334	SUBJECT ON THE DATE OF REGISTRATION 97/07/21 TO SUBSECTION 44(1) OF THE LAND TITLES ACT, EXCEPT PARAGRAPHS 3 AND 14 THEREOF AND PROVINCIAL SUCCESSION DUTIES.
17275	0335	SUBJECT ON THE DATE OF REGISTRATION 97/07/21 TO SUBSECTION 44(1) OF THE LAND TITLES ACT, EXCEPT PARAGRAPHS 3 AND 14 THEREOF AND PROVINCIAL SUCCESSION DUTIES.
17275	0336	SUBJECT ON THE DATE OF REGISTRATION 97/07/21 TO SUBSECTION 44(1) OF THE LAND TITLES ACT, EXCEPT PARAGRAPHS 3 AND 14 THEREOF AND PROVINCIAL SUCCESSION DUTIES.
17277	0001	CORRECTION: INSTRUMENT NUMBER VM171172 WAS OMITTED FROM THIS PROPERTY IN ERROR AND WAS ADDED AND CERTIFIED ON 2000/07/11 BY AM BERTRAND. CORRECTION: INSTRUMENT NUMBER VM171173 WAS OMITTED FROM THIS PROPERTY IN ERROR AND WAS ADDED AND CERTIFIED ON 2000/07/
17277	0206	SUBJECT ON THE DATE OF REGISTRATION 98/10/22 TO SUBSECTION 44(1) OF THE LAND TITLES ACT, EXCEPT PARAGRAPHS 3 AND 14 THEREOF.
17277	0209	SUBJECT ON THE DATE OF REGISTRATION 98/10/22 TO SUBSECTION 44(1) OF THE LAND TITLES ACT, EXCEPT PARAGRAPHS 3 AND 14 THEREOF PROVINCIAL SUCCESSION DUTIES.
17277	0211	SUBJECT ON THE DATE OF REGISTRATION 98/10/22 TO SUBSECTION 44(1) OF THE LAND TITLES ACT, EXCEPT PARAGRAPHS 3 AND 14 THEREOF PROVINCIAL SUCCESSION DUTIES.
17278	0152	CORRECTION: INSTRUMENT NUMBER VM171172 WAS ENTERED IN ERROR AGAINST THIS PROPERTY AND WAS REMOVED AND CERTIFIED ON 2000/07/11 BY AM BERTRAND. CORRECTION: INSTRUMENT NUMBER VM171173 WAS ENTERED IN ERROR AGAINST THIS PROPERTY AND WAS REMOVED AND CERTIFIED O
17278	0261	CORRECTION: INSTRUMENT NUMBER NS277955 WAS OMITTED FROM THIS PROPERTY IN ERROR AND WAS ADDED AND CERTIFIED ON 1997/03/06 BY LAND REGISTRAR #1.
17282	0158	CORRECTION: INSTRUMENT NUMBER 62R-13671 WAS ENTERED IN ERROR AGAINST THIS PROPERTY AND WAS REMOVED AND CERTIFIED ON 2001/11/01 BY ANNETTE VAN DUYN.
17282	0162	CORRECTION: INSTRUMENT NUMBER 62R-13671 WAS ENTERED IN ERROR AGAINST THIS PROPERTY AND WAS REMOVED AND CERTIFIED ON 2001/11/01 BY ANNETTE VAN DUYN.
17282	0169	CORRECTION: INSTRUMENT NUMBER 62R-13671 WAS ENTERED IN ERROR AGAINST THIS PROPERTY AND WAS REMOVED AND CERTIFIED ON 2001/11/01 BY ANNETTE VAN DUYN.
17282	0179	CORRECTION: INSTRUMENT NUMBER 62R-13671 WAS ENTERED IN ERROR AGAINST THIS PROPERTY AND WAS REMOVED AND CERTIFIED ON 2001/11/01 BY ANNETTE VAN DUYN.
17284	0108	CORRECTION: DOCUMENT WE10056121 REMOVED FROM 17284-0108 ON 2023/05/10 AT 15:42 BY STURINO, NADINE.
17284	0121	CORRECTION: DOCUMENT WE10056121 REMOVED FROM 17284-0121 ON 2023/05/10 AT 15:42 BY STURINO, NADINE.
17284	0126	CORRECTION: DOCUMENT WE10056121 REMOVED FROM 17284-0126 ON 2023/05/10 AT 15:42 BY STURINO, NADINE.
17288	0045	THE FOLLOWING REMARK HAS BEEN ADDED ON 1999/01/27 AT 13:46 BY BELLE FIAMELLI : I. FIAMELLI.
17290	0061	CORRECTION: INSTRUMENT NUMBER VM176847 WAS OMITTED FROM THIS PROPERTY IN ERROR AND WAS ADDED AND CERTIFIED ON 1996/09/12 BY GAIL BUXTON.
17294	0172	THIS PARCEL WAS CREATED BASED ON INFORMATION CONTAINED IN DOCUMENT(S) AB95676, WHICH IS (ARE) RECORDED FOR PIN IDENTIFICATION ONLY.
17294	0186	THIS PARCEL WAS CREATED BASED ON INFORMATION CONTAINED IN DOCUMENT(S) CD310490, WHICH IS (ARE) RECORDED FOR PIN IDENTIFICATION ONLY.
17294	0197	THIS PARCEL WAS CREATED BASED ON INFORMATION CONTAINED IN DOCUMENT(S) CD261078, WHICH IS (ARE) RECORDED FOR PIN IDENTIFICATION ONLY.
17294	0199	THIS PARCEL WAS CREATED BASED ON INFORMATION CONTAINED IN DOCUMENT(S) AB316374, WHICH IS (ARE) RECORDED FOR PIN IDENTIFICATION ONLY.
17294	0214	THIS PARCEL WAS CREATED BASED ON INFORMATION CONTAINED IN DOCUMENT(S) CD421013, WHICH IS (ARE) RECORDED FOR PIN IDENTIFICATION ONLY.
17294	0218	THIS PARCEL WAS CREATED BASED ON INFORMATION CONTAINED IN DOCUMENT(S) HL305799, WHICH IS (ARE) RECORDED FOR PIN IDENTIFICATION ONLY.
17294	0224	THIS PARCEL WAS CREATED BASED ON INFORMATION CONTAINED IN DOCUMENT(S) CD116543, WHICH IS (ARE) RECORDED FOR PIN IDENTIFICATION ONLY.
17294	0245	THIS PARCEL WAS CREATED BASED ON INFORMATION CONTAINED IN DOCUMENT(S) AB307913, WHICH IS (ARE) RECORDED FOR PIN IDENTIFICATION ONLY.
17294	0251	THIS PARCEL WAS CREATED BASED ON INFORMATION CONTAINED IN DOCUMENT(S) NS181656,NS244304, WHICH IS (ARE) RECORDED FOR PIN IDENTIFICATION ONLY.
17294	0252	THIS PARCEL WAS CREATED BASED ON INFORMATION CONTAINED IN DOCUMENT(S) VM13979, WHICH IS (ARE) RECORDED FOR PIN IDENTIFICATION ONLY.
17294	0253	THIS PARCEL WAS CREATED BASED ON INFORMATION CONTAINED IN DOCUMENT(S) VM71287, WHICH IS (ARE) RECORDED FOR PIN IDENTIFICATION ONLY.
17294	0254	THIS PARCEL WAS CREATED BASED ON INFORMATION CONTAINED IN DOCUMENT(S) VM80201, WHICH IS (ARE) RECORDED FOR PIN IDENTIFICATION ONLY.
17294	0261	THIS PARCEL WAS CREATED BASED ON INFORMATION CONTAINED IN DOCUMENT(S) VM43734, WHICH IS (ARE) RECORDED FOR PIN IDENTIFICATION ONLY.
17294	0282	THIS PARCEL WAS CREATED BASED ON INFORMATION CONTAINED IN DOCUMENT(S) WHICH IS (ARE) RECORDED FOR PIN IDENTIFICATION ONLY.
17294	0292	THE FOLLOWING REMARK HAS BEEN ADDED ON 1997/06/23 AT 10:28 BY CAROL : THIS PARCEL WAS CREATED BASED ON INFORMATION CONTAINED IN DOCUMENT VM238758 WHICH IS RECORDED FOR PIN INDENTIFICATION ONLY.
17294	0293	THE FOLLOWING REMARK HAS BEEN ADDED ON 1997/06/23 AT 10:33 BY CAROL : THIS PARCEL WAS CREATED BASED ON INFORMATION CONTAINED IN DOCUMENTS SA292A AND SA354A WHICH ARE RECORDED FOR PIN IDENTIFICATION ONLY.
17294	0321	THIS PARCEL WAS CREATED BASED ON INFORMATION CONTAINED IN DOCUMENT(S) VM232457, WHICH IS (ARE) RECORDED FOR PIN IDENTIFICATION ONLY.
17294	0365	THIS PARCEL WAS CREATED BASED ON INFORMATION CONTAINED IN DOCUMENT(S) CD458803, WHICH IS (ARE) RECORDED FOR PIN IDENTIFICATION ONLY.
17294	0374	THIS PARCEL WAS CREATED BASED ON INFORMATION CONTAINED IN DOCUMENT(S) CD336105, WHICH IS (ARE) RECORDED FOR PIN IDENTIFICATION ONLY.
17294	0389	THIS PARCEL WAS CREATED BASED ON INFORMATION CONTAINED IN DOCUMENT(S) CD33921, WHICH IS (ARE) RECORDED FOR PIN IDENTIFICATION ONLY.
17294	0400	THIS PARCEL WAS CREATED BASED ON INFORMATION CONTAINED IN DOCUMENT(S) VM95425, WHICH IS (ARE) RECORDED FOR PIN IDENTIFICATION ONLY.
17294	0440	THIS PARCEL WAS CREATED BASED ON INFORMATION CONTAINED IN DOCUMENT(S) VM171991, WHICH IS (ARE) RECORDED FOR PIN IDENTIFICATION ONLY.
17294	0441	THIS PARCEL WAS CREATED BASED ON INFORMATION CONTAINED IN DOCUMENT(S) VM180288, WHICH IS (ARE) RECORDED FOR PIN IDENTIFICATION ONLY.
17294	0442	THIS PARCEL WAS CREATED BASED ON INFORMATION CONTAINED IN DOCUMENT(S) VM212764, WHICH IS (ARE) RECORDED FOR PIN IDENTIFICATION ONLY.
17294	0446	THIS PARCEL WAS CREATED BASED ON INFORMATION CONTAINED IN DOCUMENT(S) AB97624, WHICH IS (ARE) RECORDED FOR PIN IDENTIFICATION ONLY.
17294	0453	THIS PARCEL WAS CREATED BASED ON INFORMATION CONTAINED IN DOCUMENT(S):VM238758 WHICH IS (ARE) RECORDED FOR PIN IDENTIFICATION ONLY.
17295	0037	CORRECTION: INSTRUMENT NUMBER VM181187 WAS OMITTED FROM THIS PROPERTY IN ERROR AND WAS ADDED AND CERTIFIED ON 1997/03/26 BY JEFF GILBERT. CORRECTION: INSTRUMENT NUMBER VM181188 WAS OMITTED FROM THIS PROPERTY IN ERROR AND WAS ADDED AND CERTIFIED ON 1997/03
17297	0126	CORRECTION: INSTRUMENT NUMBER VM124060 WAS OMITTED FROM THIS PROPERTY IN ERROR AND WAS ADDED AND CERTIFIED ON 2003/06/20 BY KATHY CECE.
17299	0132	SUBJECT TO SUBSECTION 44(1) OF THE LAND TITLES ACT, EXCEPT PARAGRAPH 11, PARAGRAPH 14, PROVINCIAL SUCCESSION DUTIES AND ESCHEATS OR FORFEITURE TO THE CROWN, UP TO THE DATE OF CONVERSION, AND EXCEPT PARAGRAPH 3 AND 14 THEREAFTER.
17301	0179	CORRECTION: INSTRUMENT NUMBER VM150747 WAS OMITTED FROM THIS PROPERTY IN ERROR AND WAS ADDED AND CERTIFIED ON 1996/07/22 BY DORRIE MORLEY.
17304	0047	CORRECTION: INSTRUMENT NUMBER LT571655 WAS OMITTED FROM THIS PROPERTY IN ERROR AND WAS ADDED AND CERTIFIED ON 2004/10/04 BY ANNETTE VAN DUYN.
17307	0064	SUBJECT ON THE DATE OF REGISTRATION 98/09/29 TO SUBSECTION 44 (1) OF THE LAND TITLES ACT, EXCEPT PARAGRAPHS 3 AND 14 THEREOF.
17307	0065	SUBJECT ON THE DATE OF REGISTRATION 98/09/29 TO SUBSECTION 44(1) OF THE LAND TITLES ACT, EXCEPT PARAGRAPHS 3 AND 14 THEREOF. CORRECTION: INSTRUMENT NUMBER LT567229 WAS ENTERED IN ERROR AGAINST THIS PROPERTY AND WAS REMOVED AND CERTIFIED ON 1999/12/01 BY D
17309	0062	CORRECTION: INSTRUMENT NUMBER VM81806 WAS OMITTED FROM THIS PROPERTY IN ERROR AND WAS ADDED AND CERTIFIED ON 1995/10/23 BY JULIANN BEATTY. CORRECTION: INSTRUMENT NUMBER VM81805 WAS OMITTED FROM THIS PROPERTY IN ERROR AND WAS ADDED AND CERTIFIED ON 1995/10
17309	0088	CORRECTION: INSTRUMENT NUMBER VM97468 WAS OMITTED FROM THIS PROPERTY IN ERROR AND WAS ADDED AND CERTIFIED ON 2001/09/25 BY LR2.
17309	0093	CORRECTION: INSTRUMENT NUMBER LT469054 WAS OMITTED FROM THIS PROPERTY IN ERROR AND WAS ADDED AND CERTIFIED ON 1998/05/13 BY MARLENE HUNTER.
17310	0127	CORRECTION: INSTRUMENT NUMBER VM236460 WAS ENTERED IN ERROR AGAINST THIS PROPERTY AND WAS REMOVED AND CERTIFIED ON 1998/09/09 BY ERIC CANNON.
17313	0171	CORRECTION: INSTRUMENT NUMBER VM178897 WAS OMITTED FROM THIS PROPERTY IN ERROR AND WAS ADDED AND CERTIFIED ON 1997/03/08 BY ERIC CANNON.
17313	0174	CORRECTION: INSTRUMENT NUMBER AB369515 WAS OMITTED FROM THIS PROPERTY IN ERROR AND WAS ADDED AND CERTIFIED ON 1997/05/13 BY LAND REGISTRAR 2.
17315	0200	LT198333-CONSENT OF LAND DIVISION COMMITTEE.
17315	0266	ON 1996/06/17 AT 15:56 THE ESTATE/QUALIFIER WERE CHANGED TO FEE SIMPLE LT CONVERSION QUALIFIED FROM FEE SIMPLE ABSOLUTE BY BELLE FIAMELLI . ON 2004/09/08 AT 11:55 THE ESTATE/QUALIFIER WERE CHANGED TO FEE SIMPLE ABSOLUTE FROM FEE SIMPLE LT CONVERSION QUALI
17315	0267	ON 1996/06/17 AT 15:56 THE ESTATE/QUALIFIER WERE CHANGED TO FEE SIMPLE LT CONVERSION QUALIFIED FROM FEE SIMPLE ABSOLUTE BY BELLE FIAMELLI . ON 2004/09/08 AT 11:56 THE ESTATE/QUALIFIER WERE CHANGED TO FEE SIMPLE ABSOLUTE FROM FEE SIMPLE LT CONVERSION QUALI
17316	0056	CORRECTION: INSTRUMENT NUMBER CD212124 WAS OMITTED FROM THIS PROPERTY IN ERROR AND WAS ADDED AND CERTIFIED ON 2000/02/10 BY MARLENE HUNTER.
17319	0574	CORRECTION: INSTRUMENT NUMBER VM164320 WAS OMITTED FROM THIS PROPERTY IN ERROR AND WAS ADDED AND CERTIFIED ON 2001/03/19 BY LR2. CORRECTION: INSTRUMENT NUMBER VM227815 WAS OMITTED FROM THIS PROPERTY IN ERROR AND WAS ADDED AND CERTIFIED ON 2001/03/19 BY LR
17320	0009	CORRECTION: INSTRUMENT NUMBER VM240754 WAS ENTERED IN ERROR AGAINST THIS PROPERTY AND WAS REMOVED AND CERTIFIED ON 1998/01/15 BY CAROL OLENSKI.
17321	0078	CORRECTION: INSTRUMENT NUMBER VM136537 WAS OMITTED FROM THIS PROPERTY IN ERROR AND WAS ADDED AND CERTIFIED ON 1996/12/13 BY VICKI MCARTHUR.
17323	0155	"FOR THE PURPOSE OF THE QUALIFIER THE DATE OF REGISTRATION OF ABSOLUTE TITLE IS 2005/10/12".
17323	0157	" FOR THE PURPOSE OF THE QUALIFIER THE DATE OF REGISTRATION OF ABSOLUTE TITLE IS 2005-10-12".
17324	0002	CORRECTION: INSTRUMENT NUMBER CM133 WAS OMITTED FROM THIS PROPERTY IN ERROR AND WAS ADDED AND CERTIFIED ON 2001/08/24 BY HELEN MACMILLAN.
17328	0316	THE FOLLOWING REMARK HAS BEEN ADDED ON 1998/06/16 AT 10:01 BY BELLE FIAMELLI : SUBJECT TO SUBSECTION 44(1) OF THE LAND TITLES ACT, EXCEPT PARAGRAPHS 3 AND 14 THEREOF AND PROVINCIAL SUCCESSION DUTIES.
17328	0317	THE FOLLOWING REMARK HAS BEEN ADDED ON 1998/06/16 AT 10:01 BY BELLE FIAMELLI : SUBJECT TO SUBSECTION 44(1) OF THE LAND TITLES ACT, EXCEPT PARAGRAPHS 3 AND 14 THEREOF AND PROVINCIAL SUCCESSION DUTIES.
17328	0318	THE FOLLOWING REMARK HAS BEEN ADDED ON 1998/06/16 AT 10:01 BY BELLE FIAMELLI : SUBJECT TO SUBSECTION 44(1) OF THE LAND TITLES ACT, EXCEPT PARAGRAPHS 3 AND 14 THEREOF AND PROVINCIAL SUCCESSION DUTIES.
17328	0319	THE FOLLOWING REMARK HAS BEEN ADDED ON 1998/06/16 AT 10:01 BY BELLE FIAMELLI : SUBJECT TO SUBSECTION 44(1) OF THE LAND TITLES ACT, EXCEPT PARAGRAPHS 3 AND 14 THEREOF AND PROVINCIAL SUCCESSION DUTIES.
17328	0320	THE FOLLOWING REMARK HAS BEEN ADDED ON 1998/06/16 AT 10:01 BY BELLE FIAMELLI : SUBJECT TO SUBSECTION 44(1) OF THE LAND TITLES ACT, EXCEPT PARAGRAPHS 3 AND 14 THEREOF AND PROVINCIAL SUCCESSION DUTIES.
17328	0321	THE FOLLOWING REMARK HAS BEEN ADDED ON 1998/06/16 AT 10:01 BY BELLE FIAMELLI : SUBJECT TO SUBSECTION 44(1) OF THE LAND TITLES ACT, EXCEPT PARAGRAPHS 3 AND 14 THEREOF AND PROVINCIAL SUCCESSION DUTIES.
17328	0322	THE FOLLOWING REMARK HAS BEEN ADDED ON 1998/06/16 AT 10:01 BY BELLE FIAMELLI : SUBJECT TO SUBSECTION 44(1) OF THE LAND TITLES ACT, EXCEPT PARAGRAPHS 3 AND 14 THEREOF AND PROVINCIAL SUCCESSION DUTIES.
17328	0323	THE FOLLOWING REMARK HAS BEEN ADDED ON 1998/06/16 AT 10:01 BY BELLE FIAMELLI : SUBJECT TO SUBSECTION 44(1) OF THE LAND TITLES ACT, EXCEPT PARAGRAPHS 3 AND 14 THEREOF AND PROVINCIAL SUCCESSION DUTIES.
17328	0324	THE FOLLOWING REMARK HAS BEEN ADDED ON 1998/06/16 AT 10:01 BY BELLE FIAMELLI : SUBJECT TO SUBSECTION 44(1) OF THE LAND TITLES ACT, EXCEPT PARAGRAPHS 3 AND 14 THEREOF AND PROVINCIAL SUCCESSION DUTIES.
17328	0325	THE FOLLOWING REMARK HAS BEEN ADDED ON 1998/06/16 AT 10:01 BY BELLE FIAMELLI : SUBJECT TO SUBSECTION 44(1) OF THE LAND TITLES ACT, EXCEPT PARAGRAPHS 3 AND 14 THEREOF AND PROVINCIAL SUCCESSION DUTIES.
17328	0328	SUBJECT ON THE DATE OF REGISTRATION 97/06/16 TO SUBSECTION 44(1) OF THE LAND TITLES ACT, EXCEPT PARAGRAPHS 3 AND 14 THEREOF AND PROVINCIAL SUCCESION DUTIES; STONEY CREEK.
17328	0329	SUBJECT ON THE DATE OF REGISTRATION 97/06/16 TO SUBSECTION 44(1) OF THE LAND TITLES ACT, EXCEPT PARAGRAPHS 3 AND 14 THEREOF AND PROVINCIAL SUCCESION DUTIES; STONEY CREEK.
17328	0330	SUBJECT ON THE DATE OF REGISTRATION 97/06/16 TO SUBSECTION 44(1) OF THE LAND TITLES ACT, EXCEPT PARAGRAPHS 3 AND 14 THEREOF AND PROVINCIAL SUCCESION DUTIES; STONEY CREEK.
17328	0331	SUBJECT ON THE DATE OF REGISTRATION 97/06/16 TO SUBSECTION 44(1) OF THE LAND TITLES ACT, EXCEPT PARAGRAPHS 3 AND 14 THEREOF AND PROVINCIAL SUCCESION DUTIES; STONEY CREEK.
17328	0332	SUBJECT ON THE DATE OF REGISTRATION 97/06/16 TO SUBSECTION 44(1) OF THE LAND TITLES ACT, EXCEPT PARAGRAPHS 3 AND 14 THEREOF AND PROVINCIAL SUCCESION DUTIES; STONEY CREEK.
17328	0333	SUBJECT ON THE DATE OF REGISTRATION 97/06/16 TO SUBSECTION 44(1) OF THE LAND TITLES ACT, EXCEPT PARAGRAPHS 3 AND 14 THEREOF AND PROVINCIAL SUCCESION DUTIES; STONEY CREEK.
17328	0334	SUBJECT ON THE DATE OF REGISTRATION 97/06/16 TO SUBSECTION 44(1) OF THE LAND TITLES ACT, EXCEPT PARAGRAPHS 3 AND 14 THEREOF AND PROVINCIAL SUCCESION DUTIES; STONEY CREEK.
17328	0335	SUBJECT ON THE DATE OF REGISTRATION 97/06/16 TO SUBSECTION 44(1) OF THE LAND TITLES ACT, EXCEPT PARAGRAPHS 3 AND 14 THEREOF AND PROVINCIAL SUCCESION DUTIES; STONEY CREEK.
17328	0336	SUBJECT ON THE DATE OF REGISTRATION 97/06/16 TO SUBSECTION 44(1) OF THE LAND TITLES ACT, EXCEPT PARAGRAPHS 3 AND 14 THEREOF AND PROVINCIAL SUCCESION DUTIES; STONEY CREEK.
17328	0337	SUBJECT ON THE DATE OF REGISTRATION 97/06/16 TO SUBSECTION 44(1) OF THE LAND TITLES ACT, EXCEPT PARAGRAPHS 3 AND 14 THEREOF AND PROVINCIAL SUCCESION DUTIES; STONEY CREEK.
17328	0338	SUBJECT ON THE DATE OF REGISTRATION 97/06/16 TO SUBSECTION 44(1) OF THE LAND TITLES ACT, EXCEPT PARAGRAPHS 3 AND 14 THEREOF AND PROVINCIAL SUCCESION DUTIES; STONEY CREEK.
17328	0339	SUBJECT ON THE DATE OF REGISTRATION 97/06/16 TO SUBSECTION 44(1) OF THE LAND TITLES ACT, EXCEPT PARAGRAPHS 3 AND 14 THEREOF AND PROVINCIAL SUCCESION DUTIES; STONEY CREEK.
17328	0340	SUBJECT ON THE DATE OF REGISTRATION 97/06/16 TO SUBSECTION 44(1) OF THE LAND TITLES ACT, EXCEPT PARAGRAPHS 3 AND 14 THEREOF AND PROVINCIAL SUCCESION DUTIES; STONEY CREEK.
17328	0341	SUBJECT ON THE DATE OF REGISTRATION 97/06/16 TO SUBSECTION 44(1) OF THE LAND TITLES ACT, EXCEPT PARAGRAPHS 3 AND 14 THEREOF AND PROVINCIAL SUCCESION DUTIES; STONEY CREEK.
17328	0342	SUBJECT ON THE DATE OF REGISTRATION 97/06/16 TO SUBSECTION 44(1) OF THE LAND TITLES ACT, EXCEPT PARAGRAPHS 3 AND 14 THEREOF AND PROVINCIAL SUCCESION DUTIES; STONEY CREEK.
17328	0344	SUBJECT ON THE DATE OF REGISTRATION 97/06/16 TO SUBSECTION 44(1) OF THE LAND TITLES ACT, EXCEPT PARAGRAPHS 3 AND 14 THEREOF AND PROVINCIAL SUCCESION DUTIES; STONEY CREEK.
17328	0345	SUBJECT ON THE DATE OF REGISTRATION 97/06/16 TO SUBSECTION 44(1) OF THE LAND TITLES ACT, EXCEPT PARAGRAPHS 3 AND 14 THEREOF AND PROVINCIAL SUCCESION DUTIES; STONEY CREEK.
17329	0002	CORRECTION: INSTRUMENT NUMBER 62R10516 WAS OMITTED FROM THIS PROPERTY IN ERROR AND WAS ADDED AND CERTIFIED ON 1997/06/03 BY ERIC CANNON.
17331	0073	CORRECTION: INSTRUMENT NUMBER LT405459 WAS ENTERED IN ERROR AGAINST THIS PROPERTY AND WAS REMOVED AND CERTIFIED ON 2004/07/29 BY CRISSY DELDUCA. CORRECTION: INSTRUMENT NUMBER LT405459 WAS OMITTED FROM THIS PROPERTY IN ERROR AND WAS ADDED AND CERTIFIED ON
17331	0081	CORRECTION: INSTRUMENT NUMBER LT405459 WAS OMITTED FROM THIS PROPERTY IN ERROR AND WAS ADDED AND CERTIFIED ON 2004/07/29 BY CRISSY DELDUCA.
17331	0082	CORRECTION: INSTRUMENT NUMBER LT403435 WAS OMITTED FROM THIS PROPERTY IN ERROR AND WAS ADDED AND CERTIFIED ON 1997/06/10 BY BELLE FIAMELLI.
17333	0296	THE FOLLOWING REMARK HAS BEEN ADDED ON 2006/07/21 AT 11:54 BY ANNETTE VAN DUYN : OWNERSHIP FIELD - AMENDED 00/09/07 BY LR 2.
17333	0456	CORRECTION: INSTRUMENT NUMBER 62R10023 WAS OMITTED FROM THIS PROPERTY IN ERROR AND WAS ADDED AND CERTIFIED ON 1996/07/22 BY VICKI MCARTHUR.
17333	0592	THE FOLLOWING REMARK HAS BEEN ADDED ON 1998/12/11 AT 14:54 BY DEBBIE SARKANY : SUBJECT ON THE DATE OF REGISTRATION 98/04/20 TO SUBSECTION 44(1) OF THE LAND TITLES ACT, EXCEPT PARAGRAPHS 3 AND 14 THEREOF AND PROVINCIAL SUCCESSION DUTIES.
17333	0600	THE FOLLOWING REMARK HAS BEEN ADDED ON 1998/12/11 AT 14:54 BY DEBBIE SARKANY : SUBJECT ON THE DATE OF REGISTRATION 98/04/20 TO SUBSECTION 44(1) OF THE LAND TITLES ACT, EXCEPT PARAGRAPHS 3 AND 14 THEREOF AND PROVINCIAL SUCCESSION DUTIES.
17333	0614	THE FOLLOWING REMARK HAS BEEN ADDED ON 1998/12/11 AT 14:54 BY DEBBIE SARKANY : SUBJECT ON THE DATE OF REGISTRATION 98/04/20 TO SUBSECTION 44(1) OF THE LAND TITLES ACT, EXCEPT PARAGRAPHS 3 AND 14 THEREOF AND PROVINCIAL SUCCESSION DUTIES.
17333	0681	PLANNING ACT CONSENT IN WE223307.
17335	0174	CORRECTION: INSTRUMENT NUMBER VM103044 WAS ENTERED IN ERROR AGAINST THIS PROPERTY AND WAS REMOVED AND CERTIFIED ON 1998/08/17 BY BELLE FIAMELLI.
17337	0466	CONSENT UNDER THE PLANNING ACT HAS BEEN OBTAINED IN WE193891.
17339	0011	CORRECTION: INSTRUMENT NUMBER LT262057 WAS ENTERED IN ERROR AGAINST THIS PROPERTY AND WAS REMOVED AND CERTIFIED ON 2005/08/19 BY CRISSY DELDUCA. CORRECTION: INSTRUMENT NUMBER LT262057 WAS OMITTED FROM THIS PROPERTY IN ERROR AND WAS ADDED AND CERTIFIED ON
17341	0202	SUBJECT TO SUBSECTION 44(1) OF THE LAND TITLES ACT, EXCEPT PARAGRAPH 11, PARAGRAPH 14, PROVINCIAL SUCCESSION DUTIES AND ESCHEATS OR FORFEITURE TO THE CROWN, UP TO THE DATE OF CONVERSION, AND EXCEPT PARAGRAPH 3 AND PARAGRAPH 14 THEREAFTER.
17341	0203	SUBJECT TO SUBSECTION 44(1) OF THE LAND TITLES ACT, EXCEPT PARAGRAPH 11, PARAGRAPH 14, PROVINCIAL SUCCESSION DUTIES AND ESCHEATS OR FORFEITURE TO THE CROWN, UP TO THE DATE OF CONVERSION, AND EXCEPT PARAGRAPH 3 AND PARAGRAPH 14 THEREAFTER. CORRECTION: INST
17341	0204	SUBJECT TO SUBSECTION 44(1) OF THE LAND TITLES ACT, EXCEPT PARAGRAPH 11, PARAGRAPH 14, PROVINCIAL SUCCESSION DUTIES AND ESCHEATS OR FORFEITURE TO THE CROWN, UP TO THE DATE OF CONVERSION, AND EXCEPT PARAGRAPH 3 AND PARAGRAPH 14 THEREAFTER.
17341	0205	SUBJECT TO SUBSECTION 44(1) OF THE LAND TITLES ACT, EXCEPT PARAGRAPH 11, PARAGRAPH 14, PROVINCIAL SUCCESSION DUTIES AND ESCHEATS OR FORFEITURE TO THE CROWN, UP TO THE DATE OF CONVERSION, AND EXCEPT PARAGRAPH 3 AND PARAGRAPH 14 THEREAFTER.
17341	0206	SUBJECT TO SUBSECTION 44(1) OF THE LAND TITLES ACT, EXCEPT PARAGRAPH 11, PARAGRAPH 14, PROVINCIAL SUCCESSION DUTIES AND ESCHEATS OR FORFEITURE TO THE CROWN, UP TO THE DATE OF CONVERSION, AND EXCEPT PARAGRAPH 3 AND PARAGRAPH 14 THEREAFTER.
17341	0207	SUBJECT TO SUBSECTION 44(1) OF THE LAND TITLES ACT, EXCEPT PARAGRAPH 11, PARAGRAPH 14, PROVINCIAL SUCCESSION DUTIES AND ESCHEATS OR FORFEITURE TO THE CROWN, UP TO THE DATE OF CONVERSION, AND EXCEPT PARAGRAPH 3 AND PARAGRAPH 14 THEREAFTER.
17341	0208	SUBJECT TO SUBSECTION 44(1) OF THE LAND TITLES ACT, EXCEPT PARAGRAPH 11, PARAGRAPH 14, PROVINCIAL SUCCESSION DUTIES AND ESCHEATS OR FORFEITURE TO THE CROWN, UP TO THE DATE OF CONVERSION, AND EXCEPT PARAGRAPH 3 AND PARAGRAPH 14 THEREAFTER.
17341	0209	SUBJECT TO SUBSECTION 44(1) OF THE LAND TITLES ACT, EXCEPT PARAGRAPH 11, PARAGRAPH 14, PROVINCIAL SUCCESSION DUTIES AND ESCHEATS OR FORFEITURE TO THE CROWN, UP TO THE DATE OF CONVERSION, AND EXCEPT PARAGRAPH 3 AND PARAGRAPH 14 THEREAFTER.
17341	0210	SUBJECT TO SUBSECTION 44(1) OF THE LAND TITLES ACT, EXCEPT PARAGRAPH 11, PARAGRAPH 14, PROVINCIAL SUCCESSION DUTIES AND ESCHEATS OR FORFEITURE TO THE CROWN, UP TO THE DATE OF CONVERSION, AND EXCEPT PARAGRAPH 3 AND PARAGRAPH 14 THEREAFTER.
17341	0211	SUBJECT TO SUBSECTION 44(1) OF THE LAND TITLES ACT, EXCEPT PARAGRAPH 11, PARAGRAPH 14, PROVINCIAL SUCCESSION DUTIES AND ESCHEATS OR FORFEITURE TO THE CROWN, UP TO THE DATE OF CONVERSION, AND EXCEPT PARAGRAPH 3 AND PARAGRAPH 14 THEREAFTER.
17341	0212	SUBJECT TO SUBSECTION 44(1) OF THE LAND TITLES ACT, EXCEPT PARAGRAPH 11, PARAGRAPH 14, PROVINCIAL SUCCESSION DUTIES AND ESCHEATS OR FORFEITURE TO THE CROWN, UP TO THE DATE OF CONVERSION, AND EXCEPT PARAGRAPH 3 AND PARAGRAPH 14 THEREAFTER.
17341	0213	SUBJECT TO SUBSECTION 44(1) OF THE LAND TITLES ACT, EXCEPT PARAGRAPH 11, PARAGRAPH 14, PROVINCIAL SUCCESSION DUTIES AND ESCHEATS OR FORFEITURE TO THE CROWN, UP TO THE DATE OF CONVERSION, AND EXCEPT PARAGRAPH 3 AND PARAGRAPH 14 THEREAFTER.
17341	0214	SUBJECT TO SUBSECTION 44(1) OF THE LAND TITLES ACT, EXCEPT PARAGRAPH 11, PARAGRAPH 14, PROVINCIAL SUCCESSION DUTIES AND ESCHEATS OR FORFEITURE TO THE CROWN, UP TO THE DATE OF CONVERSION, AND EXCEPT PARAGRAPH 3 AND PARAGRAPH 14 THEREAFTER.
17341	0215	SUBJECT TO SUBSECTION 44(1) OF THE LAND TITLES ACT, EXCEPT PARAGRAPH 11, PARAGRAPH 14, PROVINCIAL SUCCESSION DUTIES AND ESCHEATS OR FORFEITURE TO THE CROWN, UP TO THE DATE OF CONVERSION, AND EXCEPT PARAGRAPH 3 AND PARAGRAPH 14 THEREAFTER.
17341	0216	SUBJECT TO SUBSECTION 44(1) OF THE LAND TITLES ACT, EXCEPT PARAGRAPH 11, PARAGRAPH 14, PROVINCIAL SUCCESSION DUTIES AND ESCHEATS OR FORFEITURE TO THE CROWN, UP TO THE DATE OF CONVERSION, AND EXCEPT PARAGRAPH 3 AND PARAGRAPH 14 THEREAFTER.
17341	0217	SUBJECT TO SUBSECTION 44(1) OF THE LAND TITLES ACT, EXCEPT PARAGRAPH 11, PARAGRAPH 14, PROVINCIAL SUCCESSION DUTIES AND ESCHEATS OR FORFEITURE TO THE CROWN, UP TO THE DATE OF CONVERSION, AND EXCEPT PARAGRAPH 3 AND PARAGRAPH 14 THEREAFTER.
17341	0218	SUBJECT TO SUBSECTION 44(1) OF THE LAND TITLES ACT, EXCEPT PARAGRAPH 11, PARAGRAPH 14, PROVINCIAL SUCCESSION DUTIES AND ESCHEATS OR FORFEITURE TO THE CROWN, UP TO THE DATE OF CONVERSION, AND EXCEPT PARAGRAPH 3 AND PARAGRAPH 14 THEREAFTER.
17341	0219	SUBJECT TO SUBSECTION 44(1) OF THE LAND TITLES ACT, EXCEPT PARAGRAPH 11, PARAGRAPH 14, PROVINCIAL SUCCESSION DUTIES AND ESCHEATS OR FORFEITURE TO THE CROWN, UP TO THE DATE OF CONVERSION, AND EXCEPT PARAGRAPH 3 AND PARAGRAPH 14 THEREAFTER.
17341	0220	SUBJECT TO SUBSECTION 44(1) OF THE LAND TITLES ACT, EXCEPT PARAGRAPH 11, PARAGRAPH 14, PROVINCIAL SUCCESSION DUTIES AND ESCHEATS OR FORFEITURE TO THE CROWN, UP TO THE DATE OF CONVERSION, AND EXCEPT PARAGRAPH 3 AND PARAGRAPH 14 THEREAFTER.
17341	0221	SUBJECT TO SUBSECTION 44(1) OF THE LAND TITLES ACT, EXCEPT PARAGRAPH 11, PARAGRAPH 14, PROVINCIAL SUCCESSION DUTIES AND ESCHEATS OR FORFEITURE TO THE CROWN, UP TO THE DATE OF CONVERSION, AND EXCEPT PARAGRAPH 3 AND PARAGRAPH 14 THEREAFTER.
17341	0222	SUBJECT TO SUBSECTION 44(1) OF THE LAND TITLES ACT, EXCEPT PARAGRAPH 11, PARAGRAPH 14, PROVINCIAL SUCCESSION DUTIES AND ESCHEATS OR FORFEITURE TO THE CROWN, UP TO THE DATE OF CONVERSION, AND EXCEPT PARAGRAPH 3 AND PARAGRAPH 14 THEREAFTER.
17341	0223	SUBJECT TO SUBSECTION 44(1) OF THE LAND TITLES ACT, EXCEPT PARAGRAPH 11, PARAGRAPH 14, PROVINCIAL SUCCESSION DUTIES AND ESCHEATS OR FORFEITURE TO THE CROWN, UP TO THE DATE OF CONVERSION, AND EXCEPT PARAGRAPH 3 AND PARAGRAPH 14 THEREAFTER.
17341	0224	SUBJECT TO SUBSECTION 44(1) OF THE LAND TITLES ACT, EXCEPT PARAGRAPH 11, PARAGRAPH 14, PROVINCIAL SUCCESSION DUTIES AND ESCHEATS OR FORFEITURE TO THE CROWN, UP TO THE DATE OF CONVERSION, AND EXCEPT PARAGRAPH 3 AND PARAGRAPH 14 THEREAFTER.
17341	0225	SUBJECT TO SUBSECTION 44(1) OF THE LAND TITLES ACT, EXCEPT PARAGRAPH 11, PARAGRAPH 14, PROVINCIAL SUCCESSION DUTIES AND ESCHEATS OR FORFEITURE TO THE CROWN, UP TO THE DATE OF CONVERSION, AND EXCEPT PARAGRAPH 3 AND PARAGRAPH 14 THEREAFTER.
17341	0226	SUBJECT TO SUBSECTION 44(1) OF THE LAND TITLES ACT, EXCEPT PARAGRAPH 11, PARAGRAPH 14, PROVINCIAL SUCCESSION DUTIES AND ESCHEATS OR FORFEITURE TO THE CROWN, UP TO THE DATE OF CONVERSION, AND EXCEPT PARAGRAPH 3 AND PARAGRAPH 14 THEREAFTER.
17341	0227	SUBJECT TO SUBSECTION 44(1) OF THE LAND TITLES ACT, EXCEPT PARAGRAPH 11, PARAGRAPH 14, PROVINCIAL SUCCESSION DUTIES AND ESCHEATS OR FORFEITURE TO THE CROWN, UP TO THE DATE OF CONVERSION, AND EXCEPT PARAGRAPH 3 AND PARAGRAPH 14 THEREAFTER.
17341	0228	SUBJECT TO SUBSECTION 44(1) OF THE LAND TITLES ACT, EXCEPT PARAGRAPH 11, PARAGRAPH 14, PROVINCIAL SUCCESSION DUTIES AND ESCHEATS OR FORFEITURE TO THE CROWN, UP TO THE DATE OF CONVERSION, AND EXCEPT PARAGRAPH 3 AND PARAGRAPH 14 THEREAFTER.
17341	0229	SUBJECT TO SUBSECTION 44(1) OF THE LAND TITLES ACT, EXCEPT PARAGRAPH 11, PARAGRAPH 14, PROVINCIAL SUCCESSION DUTIES AND ESCHEATS OR FORFEITURE TO THE CROWN, UP TO THE DATE OF CONVERSION, AND EXCEPT PARAGRAPH 3 AND PARAGRAPH 14 THEREAFTER.
17341	0230	SUBJECT TO SUBSECTION 44(1) OF THE LAND TITLES ACT, EXCEPT PARAGRAPH 11, PARAGRAPH 14, PROVINCIAL SUCCESSION DUTIES AND ESCHEATS OR FORFEITURE TO THE CROWN, UP TO THE DATE OF CONVERSION, AND EXCEPT PARAGRAPH 3 AND PARAGRAPH 14 THEREAFTER.
17341	0231	SUBJECT TO SUBSECTION 44(1) OF THE LAND TITLES ACT, EXCEPT PARAGRAPH 11, PARAGRAPH 14, PROVINCIAL SUCCESSION DUTIES AND ESCHEATS OR FORFEITURE TO THE CROWN, UP TO THE DATE OF CONVERSION, AND EXCEPT PARAGRAPH 3 AND PARAGRAPH 14 THEREAFTER.
17341	0232	SUBJECT TO SUBSECTION 44(1) OF THE LAND TITLES ACT, EXCEPT PARAGRAPH 11, PARAGRAPH 14, PROVINCIAL SUCCESSION DUTIES AND ESCHEATS OR FORFEITURE TO THE CROWN, UP TO THE DATE OF CONVERSION, AND EXCEPT PARAGRAPH 3 AND PARAGRAPH 14 THEREAFTER.
17341	0233	SUBJECT TO SUBSECTION 44(1) OF THE LAND TITLES ACT, EXCEPT PARAGRAPH 11, PARAGRAPH 14, PROVINCIAL SUCCESSION DUTIES AND ESCHEATS OR FORFEITURE TO THE CROWN, UP TO THE DATE OF CONVERSION, AND EXCEPT PARAGRAPH 3 AND PARAGRAPH 14 THEREAFTER.
17341	0234	SUBJECT TO SUBSECTION 44(1) OF THE LAND TITLES ACT, EXCEPT PARAGRAPH 11, PARAGRAPH 14, PROVINCIAL SUCCESSION DUTIES AND ESCHEATS OR FORFEITURE TO THE CROWN, UP TO THE DATE OF CONVERSION, AND EXCEPT PARAGRAPH 3 AND PARAGRAPH 14 THEREAFTER.
17341	0235	SUBJECT TO SUBSECTION 44(1) OF THE LAND TITLES ACT, EXCEPT PARAGRAPH 11, PARAGRAPH 14, PROVINCIAL SUCCESSION DUTIES AND ESCHEATS OR FORFEITURE TO THE CROWN, UP TO THE DATE OF CONVERSION, AND EXCEPT PARAGRAPH 3 AND PARAGRAPH 14 THEREAFTER.
17341	0236	SUBJECT TO SUBSECTION 44(1) OF THE LAND TITLES ACT, EXCEPT PARAGRAPH 11, PARAGRAPH 14, PROVINCIAL SUCCESSION DUTIES AND ESCHEATS OR FORFEITURE TO THE CROWN, UP TO THE DATE OF CONVERSION, AND EXCEPT PARAGRAPH 3 AND PARAGRAPH 14 THEREAFTER.
17341	0237	SUBJECT TO SUBSECTION 44(1) OF THE LAND TITLES ACT, EXCEPT PARAGRAPH 11, PARAGRAPH 14, PROVINCIAL SUCCESSION DUTIES AND ESCHEATS OR FORFEITURE TO THE CROWN, UP TO THE DATE OF CONVERSION, AND EXCEPT PARAGRAPH 3 AND PARAGRAPH 14 THEREAFTER.
17341	0238	SUBJECT TO SUBSECTION 44(1) OF THE LAND TITLES ACT, EXCEPT PARAGRAPH 11, PARAGRAPH 14, PROVINCIAL SUCCESSION DUTIES AND ESCHEATS OR FORFEITURE TO THE CROWN, UP TO THE DATE OF CONVERSION, AND EXCEPT PARAGRAPH 3 AND PARAGRAPH 14 THEREAFTER.
17341	0239	SUBJECT TO SUBSECTION 44(1) OF THE LAND TITLES ACT, EXCEPT PARAGRAPH 11, PARAGRAPH 14, PROVINCIAL SUCCESSION DUTIES AND ESCHEATS OR FORFEITURE TO THE CROWN, UP TO THE DATE OF CONVERSION, AND EXCEPT PARAGRAPH 3 AND PARAGRAPH 14 THEREAFTER.
17341	0240	SUBJECT TO SUBSECTION 44(1) OF THE LAND TITLES ACT, EXCEPT PARAGRAPH 11, PARAGRAPH 14, PROVINCIAL SUCCESSION DUTIES AND ESCHEATS OR FORFEITURE TO THE CROWN, UP TO THE DATE OF CONVERSION, AND EXCEPT PARAGRAPH 3 AND PARAGRAPH 14 THEREAFTER.
17341	0241	SUBJECT TO SUBSECTION 44(1) OF THE LAND TITLES ACT, EXCEPT PARAGRAPH 11, PARAGRAPH 14, PROVINCIAL SUCCESSION DUTIES AND ESCHEATS OR FORFEITURE TO THE CROWN, UP TO THE DATE OF CONVERSION, AND EXCEPT PARAGRAPH 3 AND PARAGRAPH 14 THEREAFTER.
17341	0242	SUBJECT TO SUBSECTION 44(1) OF THE LAND TITLES ACT, EXCEPT PARAGRAPH 11, PARAGRAPH 14, PROVINCIAL SUCCESSION DUTIES AND ESCHEATS OR FORFEITURE TO THE CROWN, UP TO THE DATE OF CONVERSION, AND EXCEPT PARAGRAPH 3 AND PARAGRAPH 14 THEREAFTER.
17341	0243	SUBJECT TO SUBSECTION 44(1) OF THE LAND TITLES ACT, EXCEPT PARAGRAPH 11, PARAGRAPH 14, PROVINCIAL SUCCESSION DUTIES AND ESCHEATS OR FORFEITURE TO THE CROWN, UP TO THE DATE OF CONVERSION, AND EXCEPT PARAGRAPH 3 AND PARAGRAPH 14 THEREAFTER.
17341	0244	SUBJECT TO SUBSECTION 44(1) OF THE LAND TITLES ACT, EXCEPT PARAGRAPH 11, PARAGRAPH 14, PROVINCIAL SUCCESSION DUTIES AND ESCHEATS OR FORFEITURE TO THE CROWN, UP TO THE DATE OF CONVERSION, AND EXCEPT PARAGRAPH 3 AND PARAGRAPH 14 THEREAFTER.
17341	0245	SUBJECT TO SUBSECTION 44(1) OF THE LAND TITLES ACT, EXCEPT PARAGRAPH 11, PARAGRAPH 14, PROVINCIAL SUCCESSION DUTIES AND ESCHEATS OR FORFEITURE TO THE CROWN, UP TO THE DATE OF CONVERSION, AND EXCEPT PARAGRAPH 3 AND PARAGRAPH 14 THEREAFTER.
17341	0246	SUBJECT TO SUBSECTION 44(1) OF THE LAND TITLES ACT, EXCEPT PARAGRAPH 11, PARAGRAPH 14, PROVINCIAL SUCCESSION DUTIES AND ESCHEATS OR FORFEITURE TO THE CROWN, UP TO THE DATE OF CONVERSION, AND EXCEPT PARAGRAPH 3 AND PARAGRAPH 14 THEREAFTER.
17341	0247	SUBJECT TO SUBSECTION 44(1) OF THE LAND TITLES ACT, EXCEPT PARAGRAPH 11, PARAGRAPH 14, PROVINCIAL SUCCESSION DUTIES AND ESCHEATS OR FORFEITURE TO THE CROWN, UP TO THE DATE OF CONVERSION, AND EXCEPT PARAGRAPH 3 AND PARAGRAPH 14 THEREAFTER.
17341	0248	SUBJECT TO SUBSECTION 44(1) OF THE LAND TITLES ACT, EXCEPT PARAGRAPH 11, PARAGRAPH 14, PROVINCIAL SUCCESSION DUTIES AND ESCHEATS OR FORFEITURE TO THE CROWN, UP TO THE DATE OF CONVERSION, AND EXCEPT PARAGRAPH 3 AND PARAGRAPH 14 THEREAFTER.
17341	0249	SUBJECT TO SUBSECTION 44(1) OF THE LAND TITLES ACT, EXCEPT PARAGRAPH 11, PARAGRAPH 14, PROVINCIAL SUCCESSION DUTIES AND ESCHEATS OR FORFEITURE TO THE CROWN, UP TO THE DATE OF CONVERSION, AND EXCEPT PARAGRAPH 3 AND PARAGRAPH 14 THEREAFTER.
17341	0250	SUBJECT TO SUBSECTION 44(1) OF THE LAND TITLES ACT, EXCEPT PARAGRAPH 11, PARAGRAPH 14, PROVINCIAL SUCCESSION DUTIES AND ESCHEATS OR FORFEITURE TO THE CROWN, UP TO THE DATE OF CONVERSION, AND EXCEPT PARAGRAPH 3 AND PARAGRAPH 14 THEREAFTER.
17341	0251	SUBJECT TO SUBSECTION 44(1) OF THE LAND TITLES ACT, EXCEPT PARAGRAPH 11, PARAGRAPH 14, PROVINCIAL SUCCESSION DUTIES AND ESCHEATS OR FORFEITURE TO THE CROWN, UP TO THE DATE OF CONVERSION, AND EXCEPT PARAGRAPH 3 AND PARAGRAPH 14 THEREAFTER.
17341	0252	SUBJECT TO SUBSECTION 44(1) OF THE LAND TITLES ACT, EXCEPT PARAGRAPH 11, PARAGRAPH 14, PROVINCIAL SUCCESSION DUTIES AND ESCHEATS OR FORFEITURE TO THE CROWN, UP TO THE DATE OF CONVERSION, AND EXCEPT PARAGRAPH 3 AND PARAGRAPH 14 THEREAFTER.
17341	0253	SUBJECT TO SUBSECTION 44(1) OF THE LAND TITLES ACT, EXCEPT PARAGRAPH 11, PARAGRAPH 14, PROVINCIAL SUCCESSION DUTIES AND ESCHEATS OR FORFEITURE TO THE CROWN, UP TO THE DATE OF CONVERSION, AND EXCEPT PARAGRAPH 3 AND PARAGRAPH 14 THEREAFTER.
17341	0254	SUBJECT TO SUBSECTION 44(1) OF THE LAND TITLES ACT, EXCEPT PARAGRAPH 11, PARAGRAPH 14, PROVINCIAL SUCCESSION DUTIES AND ESCHEATS OR FORFEITURE TO THE CROWN, UP TO THE DATE OF CONVERSION, AND EXCEPT PARAGRAPH 3 AND PARAGRAPH 14 THEREAFTER.
17341	0255	SUBJECT TO SUBSECTION 44(1) OF THE LAND TITLES ACT, EXCEPT PARAGRAPH 11, PARAGRAPH 14, PROVINCIAL SUCCESSION DUTIES AND ESCHEATS OR FORFEITURE TO THE CROWN, UP TO THE DATE OF CONVERSION, AND EXCEPT PARAGRAPH 3 AND PARAGRAPH 14 THEREAFTER.
17341	0256	SUBJECT TO SUBSECTION 44(1) OF THE LAND TITLES ACT, EXCEPT PARAGRAPH 11, PARAGRAPH 14, PROVINCIAL SUCCESSION DUTIES AND ESCHEATS OR FORFEITURE TO THE CROWN, UP TO THE DATE OF CONVERSION, AND EXCEPT PARAGRAPH 3 AND PARAGRAPH 14 THEREAFTER.
17341	0257	SUBJECT TO SUBSECTION 44(1) OF THE LAND TITLES ACT, EXCEPT PARAGRAPH 11, PARAGRAPH 14, PROVINCIAL SUCCESSION DUTIES AND ESCHEATS OR FORFEITURE TO THE CROWN, UP TO THE DATE OF CONVERSION, AND EXCEPT PARAGRAPH 3 AND PARAGRAPH 14 THEREAFTER.
17341	0258	SUBJECT TO SUBSECTION 44(1) OF THE LAND TITLES ACT, EXCEPT PARAGRAPH 11, PARAGRAPH 14, PROVINCIAL SUCCESSION DUTIES AND ESCHEATS OR FORFEITURE TO THE CROWN, UP TO THE DATE OF CONVERSION, AND EXCEPT PARAGRAPH 3 AND PARAGRAPH 14 THEREAFTER.
17341	0259	SUBJECT TO SUBSECTION 44(1) OF THE LAND TITLES ACT, EXCEPT PARAGRAPH 11, PARAGRAPH 14, PROVINCIAL SUCCESSION DUTIES AND ESCHEATS OR FORFEITURE TO THE CROWN, UP TO THE DATE OF CONVERSION, AND EXCEPT PARAGRAPH 3 AND PARAGRAPH 14 THEREAFTER.
17341	0260	SUBJECT TO SUBSECTION 44(1) OF THE LAND TITLES ACT, EXCEPT PARAGRAPH 11, PARAGRAPH 14, PROVINCIAL SUCCESSION DUTIES AND ESCHEATS OR FORFEITURE TO THE CROWN, UP TO THE DATE OF CONVERSION, AND EXCEPT PARAGRAPH 3 AND PARAGRAPH 14 THEREAFTER.
17341	0261	SUBJECT TO SUBSECTION 44(1) OF THE LAND TITLES ACT, EXCEPT PARAGRAPH 11, PARAGRAPH 14, PROVINCIAL SUCCESSION DUTIES AND ESCHEATS OR FORFEITURE TO THE CROWN, UP TO THE DATE OF CONVERSION, AND EXCEPT PARAGRAPH 3 AND PARAGRAPH 14 THEREAFTER.
17341	0262	SUBJECT TO SUBSECTION 44(1) OF THE LAND TITLES ACT, EXCEPT PARAGRAPH 11, PARAGRAPH 14, PROVINCIAL SUCCESSION DUTIES AND ESCHEATS OR FORFEITURE TO THE CROWN, UP TO THE DATE OF CONVERSION, AND EXCEPT PARAGRAPH 3 AND PARAGRAPH 14 THEREAFTER.
17341	0263	SUBJECT TO SUBSECTION 44(1) OF THE LAND TITLES ACT, EXCEPT PARAGRAPH 11, PARAGRAPH 14, PROVINCIAL SUCCESSION DUTIES AND ESCHEATS OR FORFEITURE TO THE CROWN, UP TO THE DATE OF CONVERSION, AND EXCEPT PARAGRAPH 3 AND PARAGRAPH 14 THEREAFTER.
17341	0264	SUBJECT TO SUBSECTION 44(1) OF THE LAND TITLES ACT, EXCEPT PARAGRAPH 11, PARAGRAPH 14, PROVINCIAL SUCCESSION DUTIES AND ESCHEATS OR FORFEITURE TO THE CROWN, UP TO THE DATE OF CONVERSION, AND EXCEPT PARAGRAPH 3 AND PARAGRAPH 14 THEREAFTER.
17341	0265	SUBJECT TO SUBSECTION 44(1) OF THE LAND TITLES ACT, EXCEPT PARAGRAPH 11, PARAGRAPH 14, PROVINCIAL SUCCESSION DUTIES AND ESCHEATS OR FORFEITURE TO THE CROWN, UP TO THE DATE OF CONVERSION, AND EXCEPT PARAGRAPH 3 AND PARAGRAPH 14 THEREAFTER.
17341	0266	SUBJECT TO SUBSECTION 44(1) OF THE LAND TITLES ACT, EXCEPT PARAGRAPH 11, PARAGRAPH 14, PROVINCIAL SUCCESSION DUTIES AND ESCHEATS OR FORFEITURE TO THE CROWN, UP TO THE DATE OF CONVERSION, AND EXCEPT PARAGRAPH 3 AND PARAGRAPH 14 THEREAFTER.
17341	0267	SUBJECT TO SUBSECTION 44(1) OF THE LAND TITLES ACT, EXCEPT PARAGRAPH 11, PARAGRAPH 14, PROVINCIAL SUCCESSION DUTIES AND ESCHEATS OR FORFEITURE TO THE CROWN, UP TO THE DATE OF CONVERSION, AND EXCEPT PARAGRAPH 3 AND PARAGRAPH 14 THEREAFTER.
17341	0268	SUBJECT TO SUBSECTION 44(1) OF THE LAND TITLES ACT, EXCEPT PARAGRAPH 11, PARAGRAPH 14, PROVINCIAL SUCCESSION DUTIES AND ESCHEATS OR FORFEITURE TO THE CROWN, UP TO THE DATE OF CONVERSION, AND EXCEPT PARAGRAPH 3 AND PARAGRAPH 14 THEREAFTER.
17341	0269	SUBJECT TO SUBSECTION 44(1) OF THE LAND TITLES ACT, EXCEPT PARAGRAPH 11, PARAGRAPH 14, PROVINCIAL SUCCESSION DUTIES AND ESCHEATS OR FORFEITURE TO THE CROWN, UP TO THE DATE OF CONVERSION, AND EXCEPT PARAGRAPH 3 AND PARAGRAPH 14 THEREAFTER.
17341	0270	SUBJECT TO SUBSECTION 44(1) OF THE LAND TITLES ACT, EXCEPT PARAGRAPH 11, PARAGRAPH 14, PROVINCIAL SUCCESSION DUTIES AND ESCHEATS OR FORFEITURE TO THE CROWN, UP TO THE DATE OF CONVERSION, AND EXCEPT PARAGRAPH 3 AND PARAGRAPH 14 THEREAFTER.
17341	0271	SUBJECT TO SUBSECTION 44(1) OF THE LAND TITLES ACT, EXCEPT PARAGRAPH 11, PARAGRAPH 14, PROVINCIAL SUCCESSION DUTIES AND ESCHEATS OR FORFEITURE TO THE CROWN, UP TO THE DATE OF CONVERSION, AND EXCEPT PARAGRAPH 3 AND PARAGRAPH 14 THEREAFTER.
17341	0272	SUBJECT TO SUBSECTION 44(1) OF THE LAND TITLES ACT, EXCEPT PARAGRAPH 11, PARAGRAPH 14, PROVINCIAL SUCCESSION DUTIES AND ESCHEATS OR FORFEITURE TO THE CROWN, UP TO THE DATE OF CONVERSION, AND EXCEPT PARAGRAPH 3 AND PARAGRAPH 14 THEREAFTER.
17341	0273	SUBJECT TO SUBSECTION 44(1) OF THE LAND TITLES ACT, EXCEPT PARAGRAPH 11, PARAGRAPH 14, PROVINCIAL SUCCESSION DUTIES AND ESCHEATS OR FORFEITURE TO THE CROWN, UP TO THE DATE OF CONVERSION, AND EXCEPT PARAGRAPH 3 AND PARAGRAPH 14 THEREAFTER.
17341	0274	SUBJECT TO SUBSECTION 44(1) OF THE LAND TITLES ACT, EXCEPT PARAGRAPH 11, PARAGRAPH 14, PROVINCIAL SUCCESSION DUTIES AND ESCHEATS OR FORFEITURE TO THE CROWN, UP TO THE DATE OF CONVERSION, AND EXCEPT PARAGRAPH 3 AND PARAGRAPH 14 THEREAFTER.
17341	0275	SUBJECT TO SUBSECTION 44(1) OF THE LAND TITLES ACT, EXCEPT PARAGRAPH 11, PARAGRAPH 14, PROVINCIAL SUCCESSION DUTIES AND ESCHEATS OR FORFEITURE TO THE CROWN, UP TO THE DATE OF CONVERSION, AND EXCEPT PARAGRAPH 3 AND PARAGRAPH 14 THEREAFTER.
17341	0276	SUBJECT TO SUBSECTION 44(1) OF THE LAND TITLES ACT, EXCEPT PARAGRAPH 11, PARAGRAPH 14, PROVINCIAL SUCCESSION DUTIES AND ESCHEATS OR FORFEITURE TO THE CROWN, UP TO THE DATE OF CONVERSION, AND EXCEPT PARAGRAPH 3 AND PARAGRAPH 14 THEREAFTER.
17341	0277	SUBJECT TO SUBSECTION 44(1) OF THE LAND TITLES ACT, EXCEPT PARAGRAPH 11, PARAGRAPH 14, PROVINCIAL SUCCESSION DUTIES AND ESCHEATS OR FORFEITURE TO THE CROWN, UP TO THE DATE OF CONVERSION, AND EXCEPT PARAGRAPH 3 AND PARAGRAPH 14 THEREAFTER.
17341	0278	SUBJECT TO SUBSECTION 44(1) OF THE LAND TITLES ACT, EXCEPT PARAGRAPH 11, PARAGRAPH 14, PROVINCIAL SUCCESSION DUTIES AND ESCHEATS OR FORFEITURE TO THE CROWN, UP TO THE DATE OF CONVERSION, AND EXCEPT PARAGRAPH 3 AND PARAGRAPH 14 THEREAFTER.
17341	0279	SUBJECT TO SUBSECTION 44(1) OF THE LAND TITLES ACT, EXCEPT PARAGRAPH 11, PARAGRAPH 14, PROVINCIAL SUCCESSION DUTIES AND ESCHEATS OR FORFEITURE TO THE CROWN, UP TO THE DATE OF CONVERSION, AND EXCEPT PARAGRAPH 3 AND PARAGRAPH 14 THEREAFTER.
17341	0280	SUBJECT TO SUBSECTION 44(1) OF THE LAND TITLES ACT, EXCEPT PARAGRAPH 11, PARAGRAPH 14, PROVINCIAL SUCCESSION DUTIES AND ESCHEATS OR FORFEITURE TO THE CROWN, UP TO THE DATE OF CONVERSION, AND EXCEPT PARAGRAPH 3 AND PARAGRAPH 14 THEREAFTER.
17341	0281	SUBJECT TO SUBSECTION 44(1) OF THE LAND TITLES ACT, EXCEPT PARAGRAPH 11, PARAGRAPH 14, PROVINCIAL SUCCESSION DUTIES AND ESCHEATS OR FORFEITURE TO THE CROWN, UP TO THE DATE OF CONVERSION, AND EXCEPT PARAGRAPH 3 AND PARAGRAPH 14 THEREAFTER.
17341	0282	SUBJECT TO SUBSECTION 44(1) OF THE LAND TITLES ACT, EXCEPT PARAGRAPH 11, PARAGRAPH 14, PROVINCIAL SUCCESSION DUTIES AND ESCHEATS OR FORFEITURE TO THE CROWN, UP TO THE DATE OF CONVERSION, AND EXCEPT PARAGRAPH 3 AND PARAGRAPH 14 THEREAFTER.
17341	0283	SUBJECT TO SUBSECTION 44(1) OF THE LAND TITLES ACT, EXCEPT PARAGRAPH 11, PARAGRAPH 14, PROVINCIAL SUCCESSION DUTIES AND ESCHEATS OR FORFEITURE TO THE CROWN, UP TO THE DATE OF CONVERSION, AND EXCEPT PARAGRAPH 3 AND PARAGRAPH 14 THEREAFTER.
17341	0284	SUBJECT TO SUBSECTION 44(1) OF THE LAND TITLES ACT, EXCEPT PARAGRAPH 11, PARAGRAPH 14, PROVINCIAL SUCCESSION DUTIES AND ESCHEATS OR FORFEITURE TO THE CROWN, UP TO THE DATE OF CONVERSION, AND EXCEPT PARAGRAPH 3 AND PARAGRAPH 14 THEREAFTER.
17341	0285	SUBJECT TO SUBSECTION 44(1) OF THE LAND TITLES ACT, EXCEPT PARAGRAPH 11, PARAGRAPH 14, PROVINCIAL SUCCESSION DUTIES AND ESCHEATS OR FORFEITURE TO THE CROWN, UP TO THE DATE OF CONVERSION, AND EXCEPT PARAGRAPH 3 AND PARAGRAPH 14 THEREAFTER.
17341	0286	SUBJECT TO SUBSECTION 44(1) OF THE LAND TITLES ACT, EXCEPT PARAGRAPH 11, PARAGRAPH 14, PROVINCIAL SUCCESSION DUTIES AND ESCHEATS OR FORFEITURE TO THE CROWN, UP TO THE DATE OF CONVERSION, AND EXCEPT PARAGRAPH 3 AND PARAGRAPH 14 THEREAFTER.
17341	0287	SUBJECT TO SUBSECTION 44(1) OF THE LAND TITLES ACT, EXCEPT PARAGRAPH 11, PARAGRAPH 14, PROVINCIAL SUCCESSION DUTIES AND ESCHEATS OR FORFEITURE TO THE CROWN, UP TO THE DATE OF CONVERSION, AND EXCEPT PARAGRAPH 3 AND PARAGRAPH 14 THEREAFTER.
17341	0288	SUBJECT TO SUBSECTION 44(1) OF THE LAND TITLES ACT, EXCEPT PARAGRAPH 11, PARAGRAPH 14, PROVINCIAL SUCCESSION DUTIES AND ESCHEATS OR FORFEITURE TO THE CROWN, UP TO THE DATE OF CONVERSION, AND EXCEPT PARAGRAPH 3 AND PARAGRAPH 14 THEREAFTER.
17341	0289	SUBJECT TO SUBSECTION 44(1) OF THE LAND TITLES ACT, EXCEPT PARAGRAPH 11, PARAGRAPH 14, PROVINCIAL SUCCESSION DUTIES AND ESCHEATS OR FORFEITURE TO THE CROWN, UP TO THE DATE OF CONVERSION, AND EXCEPT PARAGRAPH 3 AND PARAGRAPH 14 THEREAFTER.
17341	0290	SUBJECT TO SUBSECTION 44(1) OF THE LAND TITLES ACT, EXCEPT PARAGRAPH 11, PARAGRAPH 14, PROVINCIAL SUCCESSION DUTIES AND ESCHEATS OR FORFEITURE TO THE CROWN, UP TO THE DATE OF CONVERSION, AND EXCEPT PARAGRAPH 3 AND PARAGRAPH 14 THEREAFTER.
17341	0291	SUBJECT TO SUBSECTION 44(1) OF THE LAND TITLES ACT, EXCEPT PARAGRAPH 11, PARAGRAPH 14, PROVINCIAL SUCCESSION DUTIES AND ESCHEATS OR FORFEITURE TO THE CROWN, UP TO THE DATE OF CONVERSION, AND EXCEPT PARAGRAPH 3 AND PARAGRAPH 14 THEREAFTER.
17341	0292	SUBJECT TO SUBSECTION 44(1) OF THE LAND TITLES ACT, EXCEPT PARAGRAPH 11, PARAGRAPH 14, PROVINCIAL SUCCESSION DUTIES AND ESCHEATS OR FORFEITURE TO THE CROWN, UP TO THE DATE OF CONVERSION, AND EXCEPT PARAGRAPH 3 AND PARAGRAPH 14 THEREAFTER.
17341	0293	SUBJECT TO SUBSECTION 44(1) OF THE LAND TITLES ACT, EXCEPT PARAGRAPH 11, PARAGRAPH 14, PROVINCIAL SUCCESSION DUTIES AND ESCHEATS OR FORFEITURE TO THE CROWN, UP TO THE DATE OF CONVERSION, AND EXCEPT PARAGRAPH 3 AND PARAGRAPH 14 THEREAFTER.
17341	0294	SUBJECT TO SUBSECTION 44(1) OF THE LAND TITLES ACT, EXCEPT PARAGRAPH 11, PARAGRAPH 14, PROVINCIAL SUCCESSION DUTIES AND ESCHEATS OR FORFEITURE TO THE CROWN, UP TO THE DATE OF CONVERSION, AND EXCEPT PARAGRAPH 3 AND PARAGRAPH 14 THEREAFTER.
17341	0295	SUBJECT TO SUBSECTION 44(1) OF THE LAND TITLES ACT, EXCEPT PARAGRAPH 11, PARAGRAPH 14, PROVINCIAL SUCCESSION DUTIES AND ESCHEATS OR FORFEITURE TO THE CROWN, UP TO THE DATE OF CONVERSION, AND EXCEPT PARAGRAPH 3 AND PARAGRAPH 14 THEREAFTER.
17341	0296	SUBJECT TO SUBSECTION 44(1) OF THE LAND TITLES ACT, EXCEPT PARAGRAPH 11, PARAGRAPH 14, PROVINCIAL SUCCESSION DUTIES AND ESCHEATS OR FORFEITURE TO THE CROWN, UP TO THE DATE OF CONVERSION, AND EXCEPT PARAGRAPH 3 AND PARAGRAPH 14 THEREAFTER.
17341	0297	SUBJECT TO SUBSECTION 44(1) OF THE LAND TITLES ACT, EXCEPT PARAGRAPH 11, PARAGRAPH 14, PROVINCIAL SUCCESSION DUTIES AND ESCHEATS OR FORFEITURE TO THE CROWN, UP TO THE DATE OF CONVERSION, AND EXCEPT PARAGRAPH 3 AND PARAGRAPH 14 THEREAFTER.
17341	0298	SUBJECT TO SUBSECTION 44(1) OF THE LAND TITLES ACT, EXCEPT PARAGRAPH 11, PARAGRAPH 14, PROVINCIAL SUCCESSION DUTIES AND ESCHEATS OR FORFEITURE TO THE CROWN, UP TO THE DATE OF CONVERSION, AND EXCEPT PARAGRAPH 3 AND PARAGRAPH 14 THEREAFTER.
17341	0299	SUBJECT TO SUBSECTION 44(1) OF THE LAND TITLES ACT, EXCEPT PARAGRAPH 11, PARAGRAPH 14, PROVINCIAL SUCCESSION DUTIES AND ESCHEATS OR FORFEITURE TO THE CROWN, UP TO THE DATE OF CONVERSION, AND EXCEPT PARAGRAPH 3 AND PARAGRAPH 14 THEREAFTER.
17341	0301	SUBJECT TO SUBSECTION 44(1) OF THE LAND TITLES ACT, EXCEPT PARAGRAPH 11, PARAGRAPH 14, PROVINCIAL SUCCESSION DUTIES AND ESCHEATS OR FORFEITURE TO THE CROWN, UP TO THE DATE OF CONVERSION, AND EXCEPT PARAGRAPH 3 AND PARAGRAPH 14 THEREAFTER.
17341	0305	SUBJECT TO SUBSECTION 44(1) OF THE LAND TITLES ACT, EXCEPT PARAGRAPH 11, PARAGRAPH 14, PROVINCIAL SUCCESSION DUTIES AND ESCHEATS OR FORFEITURE TO THE CROWN, UP TO THE DATE OF CONVERSION, AND EXCEPT PARAGRAPH 3 AND PARAGRAPH 14 THEREAFTER.
17341	0306	SUBJECT TO SUBSECTION 44(1) OF THE LAND TITLES ACT, EXCEPT PARAGRAPH 11, PARAGRAPH 14, PROVINCIAL SUCCESSION DUTIES AND ESCHEATS OR FORFEITURE TO THE CROWN, UP TO THE DATE OF CONVERSION, AND EXCEPT PARAGRAPH 3 AND PARAGRAPH 14 THEREAFTER.
17341	0307	SUBJECT TO SUBSECTION 44(1) OF THE LAND TITLES ACT, EXCEPT PARAGRAPH 11, PARAGRAPH 14, PROVINCIAL SUCCESSION DUTIES AND ESCHEATS OR FORFEITURE TO THE CROWN, UP TO THE DATE OF CONVERSION, AND EXCEPT PARAGRAPH 3 AND PARAGRAPH 14 THEREAFTER.
17341	0314	SUBJECT TO SUBSECTION 44 (1) OF THE LAND TITLES ACT EXCEPT PARAGRAPH 11, PARAGRAPH 14, PROVINCIAL SUCCESSION DUTIES AND ESCHEATS OR FORFEITURE TO THE CROWN UP TO THE DATE OF CONVERSION AND EXCEPT PARAGRAPHS 3 AND 14 THEREAFTER.
17341	0317	SUBJECT TO SUBSECTION 44(1) OF THE LAND TITLES ACT, EXCEPT PARAGRAPH 11, PARAGRAPH 14, PROVINCIAL SUCCESSION DUTIES AND ESCHEATS OR FORFEITURE TO THE CROWN, UP TO THE DATE OF CONVERSION, AND EXCEPT PARAGRAPH 3 AND PARAGRAPH 14 THEREAFTER.
17341	0319	SUBJECT TO SUBSECTION 44(1) OF THE LAND TITLES ACT, EXCEPT PARAGRAPH 11, PARAGRAPH 14, PROVINCIAL SUCCESSION DUTIES AND ESCHEATS OR FORFEITURE TO THE CROWN, UP TO THE DATE OF CONVERSION, AND EXCEPT PARAGRAPH 3 AND PARAGRAPH 14 THEREAFTER.
17341	0329	SUBJECT TO SUBSECTION 44(1) OF THE LAND TITLES ACT, EXCEPT PARAGRAPH 14, PROVINCIAL SUCCESSION DUTIES AND ESCHEATS OR FORFEITURE TO THE CROWN, UP TO THE DATE OF CONVERSION, AND EXCEPT PARAGRAPH 3 AND PARAGRAPH 14 THEREAFTER.
17341	0330	SUBJECT TO SUBSECTION 44(1) OF THE LAND TITLES ACT, EXCEPT PARAGRAPH 11, PARAGRAPH 14, PROVINCIAL SUCCESSION DUTIES AND ESCHEATS OR FORFEITURE TO THE CROWN, UP TO THE DATE OF CONVERSION, AND EXCEPT PARAGRAPH 3 AND PARAGRAPH 14 THEREAFTER.
17341	0342	SUBJECT TO SUBSECTION 44(1) OF THE LAND TITLES ACT, EXCEPT PARAGRAPH 11, PARAGRAPH 14, PROVINCIAL SUCCESSION DUTIES AND ESCHEATS OR FORFEITURE TO THE CROWN, UP TO THE DATE OF CONVERSION, AND EXCEPT PARAGRAPH 3 AND PARAGRAPH 14 THEREAFTER.
17344	0002	CORRECTION: INSTRUMENT NUMBER 400890CD WAS OMITTED FROM THIS PROPERTY IN ERROR AND WAS ADDED AND CERTIFIED ON 1995/12/22 BY VICKI MCARTHUR.
17344	0065	CORRECTION: INSTRUMENT NUMBER 62R12417 WAS OMITTED FROM THIS PROPERTY IN ERROR AND WAS ADDED AND CERTIFIED ON 1997/03/21 BY ERIC CANNON.
17347	0001	THE FOLLOWING REMARK HAS BEEN ADDED ON 2002/07/16 AT 10:54 BY BELLE FIAMELLI : PT LT 13, CON 1 SALTFLEET BEING PT 1, 62R7897 SHOULD HAVE BEEN INCLUDED ON THIS PIN, NEW PIN NOW BEING 17347-0785.
17347	0044	CORRECTION: INSTRUMENT NUMBER LT424030 WAS OMITTED FROM THIS PROPERTY IN ERROR AND WAS ADDED AND CERTIFIED ON 1999/01/11 BY LAND REGISTRAR 2.
17347	0126	CORRECTION: INSTRUMENT NUMBER LT424126 WAS OMITTED FROM THIS PROPERTY IN ERROR AND WAS ADDED AND CERTIFIED ON 1997/01/15 BY ERIC CANNON.
17347	0269	CORRECTION: INSTRUMENT NUMBER LT424030 WAS OMITTED FROM THIS PROPERTY IN ERROR AND WAS ADDED AND CERTIFIED ON 1997/02/13 BY MARLENE HUNTER.
17347	0277	CORRECTION: INSTRUMENT NUMBER LT424030 WAS OMITTED FROM THIS PROPERTY IN ERROR AND WAS ADDED AND CERTIFIED ON 2003/07/30 BY ANNETTE VAN DUYN.
17347	0447	CORRECTION: INSTRUMENT NUMBER 62R16056 WAS OMITTED FROM THIS PROPERTY IN ERROR AND WAS ADDED AND CERTIFIED ON 2002/11/01 BY HELEN MACMILLAN.
17347	0448	CORRECTION: INSTRUMENT NUMBER 62R16056 WAS OMITTED FROM THIS PROPERTY IN ERROR AND WAS ADDED AND CERTIFIED ON 2002/11/01 BY HELEN MACMILLAN.
17347	0476	CORRECTION: INSTRUMENT NUMBER LT599711 WAS OMITTED FROM THIS PROPERTY IN ERROR AND WAS ADDED AND CERTIFIED ON 2000/06/14 BY JENNY LALONDE.
17347	0478	CORRECTION: INSTRUMENT NUMBER LT599711 WAS OMITTED FROM THIS PROPERTY IN ERROR AND WAS ADDED AND CERTIFIED ON 2000/06/14 BY JENNY LALONDE.
17347	0480	CORRECTION: INSTRUMENT NUMBER LT599711 WAS OMITTED FROM THIS PROPERTY IN ERROR AND WAS ADDED AND CERTIFIED ON 2000/06/14 BY JENNY LALONDE.
17347	0482	CORRECTION: INSTRUMENT NUMBER LT599711 WAS OMITTED FROM THIS PROPERTY IN ERROR AND WAS ADDED AND CERTIFIED ON 2000/06/13 BY MARLENE HUNTER.
17347	0483	CORRECTION: INSTRUMENT NUMBER LT599713 WAS OMITTED FROM THIS PROPERTY IN ERROR AND WAS ADDED AND CERTIFIED ON 2000/06/14 BY MARLENE HUNTER.
17347	0484	CORRECTION: INSTRUMENT NUMBER LT599711 WAS OMITTED FROM THIS PROPERTY IN ERROR AND WAS ADDED AND CERTIFIED ON 2000/06/14 BY JENNY LALONDE.
17347	0486	CORRECTION: INSTRUMENT NUMBER LT599711 WAS OMITTED FROM THIS PROPERTY IN ERROR AND WAS ADDED AND CERTIFIED ON 2000/06/14 BY JENNY LALONDE.
17347	0488	CORRECTION: INSTRUMENT NUMBER LT599711 WAS OMITTED FROM THIS PROPERTY IN ERROR AND WAS ADDED AND CERTIFIED ON 2000/06/14 BY JENNY LALONDE.
17347	0490	CORRECTION: INSTRUMENT NUMBER LT599711 WAS OMITTED FROM THIS PROPERTY IN ERROR AND WAS ADDED AND CERTIFIED ON 2000/06/14 BY JENNY LALONDE.
17347	0492	CORRECTION: INSTRUMENT NUMBER LT599711 WAS OMITTED FROM THIS PROPERTY IN ERROR AND WAS ADDED AND CERTIFIED ON 2000/06/14 BY JENNY LALONDE.
17347	0494	CORRECTION: INSTRUMENT NUMBER LT599711 WAS OMITTED FROM THIS PROPERTY IN ERROR AND WAS ADDED AND CERTIFIED ON 2000/06/14 BY JENNY LALONDE.
17347	0496	CORRECTION: INSTRUMENT NUMBER LT599711 WAS OMITTED FROM THIS PROPERTY IN ERROR AND WAS ADDED AND CERTIFIED ON 2000/06/14 BY JENNY LALONDE.
17347	0498	CORRECTION: INSTRUMENT NUMBER LT599711 WAS OMITTED FROM THIS PROPERTY IN ERROR AND WAS ADDED AND CERTIFIED ON 2000/06/14 BY JENNY LALONDE.
17347	0500	CORRECTION: INSTRUMENT NUMBER LT599711 WAS OMITTED FROM THIS PROPERTY IN ERROR AND WAS ADDED AND CERTIFIED ON 2000/06/14 BY JENNY LALONDE.
17347	0502	CORRECTION: INSTRUMENT NUMBER LT599711 WAS OMITTED FROM THIS PROPERTY IN ERROR AND WAS ADDED AND CERTIFIED ON 2000/06/14 BY JENNY LALONDE.
17347	0504	CORRECTION: INSTRUMENT NUMBER LT599711 WAS OMITTED FROM THIS PROPERTY IN ERROR AND WAS ADDED AND CERTIFIED ON 2000/06/14 BY JENNY LALONDE.
17347	0506	CORRECTION: INSTRUMENT NUMBER LT599711 WAS OMITTED FROM THIS PROPERTY IN ERROR AND WAS ADDED AND CERTIFIED ON 2000/06/14 BY JENNY LALONDE.
17347	0508	CORRECTION: INSTRUMENT NUMBER LT599711 WAS OMITTED FROM THIS PROPERTY IN ERROR AND WAS ADDED AND CERTIFIED ON 2000/06/14 BY JENNY LALONDE.
17347	0510	CORRECTION: INSTRUMENT NUMBER LT599711 WAS OMITTED FROM THIS PROPERTY IN ERROR AND WAS ADDED AND CERTIFIED ON 2000/06/14 BY JENNY LALONDE.
17347	0512	CORRECTION: INSTRUMENT NUMBER LT599711 WAS OMITTED FROM THIS PROPERTY IN ERROR AND WAS ADDED AND CERTIFIED ON 2000/06/14 BY JENNY LALONDE.
17347	0514	CORRECTION: INSTRUMENT NUMBER LT599711 WAS OMITTED FROM THIS PROPERTY IN ERROR AND WAS ADDED AND CERTIFIED ON 2000/06/14 BY JENNY LALONDE.
17347	0516	CORRECTION: INSTRUMENT NUMBER LT599711 WAS OMITTED FROM THIS PROPERTY IN ERROR AND WAS ADDED AND CERTIFIED ON 2000/06/14 BY JENNY LALONDE.
17347	0518	CORRECTION: INSTRUMENT NUMBER LT599711 WAS OMITTED FROM THIS PROPERTY IN ERROR AND WAS ADDED AND CERTIFIED ON 2000/06/14 BY JENNY LALONDE.
17347	0520	CORRECTION: INSTRUMENT NUMBER LT599711 WAS OMITTED FROM THIS PROPERTY IN ERROR AND WAS ADDED AND CERTIFIED ON 2000/06/14 BY JENNY LALONDE.
17347	0522	CORRECTION: INSTRUMENT NUMBER LT599711 WAS OMITTED FROM THIS PROPERTY IN ERROR AND WAS ADDED AND CERTIFIED ON 2000/06/14 BY JENNY LALONDE.
17347	0524	CORRECTION: INSTRUMENT NUMBER LT599711 WAS OMITTED FROM THIS PROPERTY IN ERROR AND WAS ADDED AND CERTIFIED ON 2000/06/14 BY JENNY LALONDE.
17347	0526	CORRECTION: INSTRUMENT NUMBER LT599711 WAS OMITTED FROM THIS PROPERTY IN ERROR AND WAS ADDED AND CERTIFIED ON 2000/06/14 BY JENNY LALONDE.
17347	0528	CORRECTION: INSTRUMENT NUMBER LT599711 WAS OMITTED FROM THIS PROPERTY IN ERROR AND WAS ADDED AND CERTIFIED ON 2000/06/14 BY JENNY LALONDE.
17347	0530	CORRECTION: INSTRUMENT NUMBER LT599711 WAS OMITTED FROM THIS PROPERTY IN ERROR AND WAS ADDED AND CERTIFIED ON 2000/06/14 BY JENNY LALONDE.
17347	0532	CORRECTION: INSTRUMENT NUMBER LT599711 WAS OMITTED FROM THIS PROPERTY IN ERROR AND WAS ADDED AND CERTIFIED ON 2000/06/14 BY JENNY LALONDE.
17347	0534	CORRECTION: INSTRUMENT NUMBER LT599711 WAS OMITTED FROM THIS PROPERTY IN ERROR AND WAS ADDED AND CERTIFIED ON 2000/06/14 BY JENNY LALONDE.
17347	0536	CORRECTION: INSTRUMENT NUMBER LT599711 WAS OMITTED FROM THIS PROPERTY IN ERROR AND WAS ADDED AND CERTIFIED ON 2000/06/14 BY JENNY LALONDE.
17347	0538	CORRECTION: INSTRUMENT NUMBER LT599711 WAS OMITTED FROM THIS PROPERTY IN ERROR AND WAS ADDED AND CERTIFIED ON 2000/06/14 BY JENNY LALONDE.
17347	0540	CORRECTION: INSTRUMENT NUMBER LT599711 WAS OMITTED FROM THIS PROPERTY IN ERROR AND WAS ADDED AND CERTIFIED ON 2000/06/14 BY JENNY LALONDE.
17347	0542	CORRECTION: INSTRUMENT NUMBER LT599711 WAS OMITTED FROM THIS PROPERTY IN ERROR AND WAS ADDED AND CERTIFIED ON 2000/06/14 BY JENNY LALONDE.
17347	0544	CORRECTION: INSTRUMENT NUMBER LT599711 WAS OMITTED FROM THIS PROPERTY IN ERROR AND WAS ADDED AND CERTIFIED ON 2000/06/14 BY JENNY LALONDE.
17347	0546	CORRECTION: INSTRUMENT NUMBER LT599711 WAS OMITTED FROM THIS PROPERTY IN ERROR AND WAS ADDED AND CERTIFIED ON 2000/06/14 BY JENNY LALONDE.
17347	0548	CORRECTION: INSTRUMENT NUMBER LT599711 WAS OMITTED FROM THIS PROPERTY IN ERROR AND WAS ADDED AND CERTIFIED ON 2000/06/14 BY JENNY LALONDE.
17347	0550	CORRECTION: INSTRUMENT NUMBER LT599711 WAS OMITTED FROM THIS PROPERTY IN ERROR AND WAS ADDED AND CERTIFIED ON 2000/06/14 BY JENNY LALONDE.
17347	0552	CORRECTION: INSTRUMENT NUMBER LT599711 WAS OMITTED FROM THIS PROPERTY IN ERROR AND WAS ADDED AND CERTIFIED ON 2000/06/14 BY JENNY LALONDE.
17347	0554	CORRECTION: INSTRUMENT NUMBER LT599711 WAS OMITTED FROM THIS PROPERTY IN ERROR AND WAS ADDED AND CERTIFIED ON 2000/06/14 BY JENNY LALONDE.
17347	0556	CORRECTION: INSTRUMENT NUMBER LT599711 WAS OMITTED FROM THIS PROPERTY IN ERROR AND WAS ADDED AND CERTIFIED ON 2000/06/14 BY JENNY LALONDE.
17347	0558	CORRECTION: INSTRUMENT NUMBER LT599711 WAS OMITTED FROM THIS PROPERTY IN ERROR AND WAS ADDED AND CERTIFIED ON 2000/06/14 BY JENNY LALONDE.
17347	0560	CORRECTION: INSTRUMENT NUMBER LT599711 WAS OMITTED FROM THIS PROPERTY IN ERROR AND WAS ADDED AND CERTIFIED ON 2000/06/14 BY JENNY LALONDE.
17347	0562	CORRECTION: INSTRUMENT NUMBER LT599711 WAS OMITTED FROM THIS PROPERTY IN ERROR AND WAS ADDED AND CERTIFIED ON 2000/06/14 BY JENNY LALONDE.
17347	0564	CORRECTION: INSTRUMENT NUMBER LT599711 WAS OMITTED FROM THIS PROPERTY IN ERROR AND WAS ADDED AND CERTIFIED ON 2000/06/14 BY JENNY LALONDE.
17347	0566	CORRECTION: INSTRUMENT NUMBER LT599711 WAS OMITTED FROM THIS PROPERTY IN ERROR AND WAS ADDED AND CERTIFIED ON 2000/06/14 BY JENNY LALONDE.
17347	0568	CORRECTION: INSTRUMENT NUMBER LT599711 WAS OMITTED FROM THIS PROPERTY IN ERROR AND WAS ADDED AND CERTIFIED ON 2000/06/14 BY JENNY LALONDE.
17347	0570	CORRECTION: INSTRUMENT NUMBER LT599711 WAS OMITTED FROM THIS PROPERTY IN ERROR AND WAS ADDED AND CERTIFIED ON 2000/06/14 BY JENNY LALONDE.
17347	0572	CORRECTION: INSTRUMENT NUMBER LT599711 WAS OMITTED FROM THIS PROPERTY IN ERROR AND WAS ADDED AND CERTIFIED ON 2000/06/14 BY JENNY LALONDE.
17347	0574	CORRECTION: INSTRUMENT NUMBER LT599711 WAS OMITTED FROM THIS PROPERTY IN ERROR AND WAS ADDED AND CERTIFIED ON 2000/06/14 BY JENNY LALONDE.
17347	0576	CORRECTION: INSTRUMENT NUMBER LT599711 WAS OMITTED FROM THIS PROPERTY IN ERROR AND WAS ADDED AND CERTIFIED ON 2000/06/14 BY JENNY LALONDE.
17347	0578	CORRECTION: INSTRUMENT NUMBER LT599711 WAS OMITTED FROM THIS PROPERTY IN ERROR AND WAS ADDED AND CERTIFIED ON 2000/06/14 BY JENNY LALONDE.
17347	0580	CORRECTION: INSTRUMENT NUMBER LT599711 WAS OMITTED FROM THIS PROPERTY IN ERROR AND WAS ADDED AND CERTIFIED ON 2000/06/14 BY JENNY LALONDE.
17347	0582	CORRECTION: INSTRUMENT NUMBER LT599711 WAS OMITTED FROM THIS PROPERTY IN ERROR AND WAS ADDED AND CERTIFIED ON 2000/06/14 BY JENNY LALONDE.
17347	0584	CORRECTION: INSTRUMENT NUMBER LT599711 WAS OMITTED FROM THIS PROPERTY IN ERROR AND WAS ADDED AND CERTIFIED ON 2000/06/14 BY JENNY LALONDE.
17347	0586	CORRECTION: INSTRUMENT NUMBER LT599711 WAS OMITTED FROM THIS PROPERTY IN ERROR AND WAS ADDED AND CERTIFIED ON 2000/06/14 BY JENNY LALONDE.
17347	0588	CORRECTION: INSTRUMENT NUMBER LT599711 WAS OMITTED FROM THIS PROPERTY IN ERROR AND WAS ADDED AND CERTIFIED ON 2000/06/14 BY JENNY LALONDE.
17347	0590	CORRECTION: INSTRUMENT NUMBER LT599711 WAS OMITTED FROM THIS PROPERTY IN ERROR AND WAS ADDED AND CERTIFIED ON 2000/06/14 BY JENNY LALONDE.
17347	0592	CORRECTION: INSTRUMENT NUMBER LT599711 WAS OMITTED FROM THIS PROPERTY IN ERROR AND WAS ADDED AND CERTIFIED ON 2000/06/14 BY JENNY LALONDE.
17347	0594	CORRECTION: INSTRUMENT NUMBER LT599711 WAS OMITTED FROM THIS PROPERTY IN ERROR AND WAS ADDED AND CERTIFIED ON 2000/06/14 BY JENNY LALONDE.
17347	0596	CORRECTION: INSTRUMENT NUMBER LT599711 WAS OMITTED FROM THIS PROPERTY IN ERROR AND WAS ADDED AND CERTIFIED ON 2000/06/14 BY JENNY LALONDE.
17347	0598	CORRECTION: INSTRUMENT NUMBER LT599711 WAS OMITTED FROM THIS PROPERTY IN ERROR AND WAS ADDED AND CERTIFIED ON 2000/06/14 BY JENNY LALONDE.
17347	0600	CORRECTION: INSTRUMENT NUMBER LT599711 WAS OMITTED FROM THIS PROPERTY IN ERROR AND WAS ADDED AND CERTIFIED ON 2000/06/14 BY JENNY LALONDE.
17347	0602	CORRECTION: INSTRUMENT NUMBER LT599711 WAS OMITTED FROM THIS PROPERTY IN ERROR AND WAS ADDED AND CERTIFIED ON 2000/06/14 BY JENNY LALONDE.
17347	0604	CORRECTION: INSTRUMENT NUMBER LT599711 WAS OMITTED FROM THIS PROPERTY IN ERROR AND WAS ADDED AND CERTIFIED ON 2000/06/14 BY JENNY LALONDE.
17347	0606	CORRECTION: INSTRUMENT NUMBER LT599711 WAS OMITTED FROM THIS PROPERTY IN ERROR AND WAS ADDED AND CERTIFIED ON 2000/06/14 BY JENNY LALONDE.
17347	0608	CORRECTION: INSTRUMENT NUMBER LT599711 WAS OMITTED FROM THIS PROPERTY IN ERROR AND WAS ADDED AND CERTIFIED ON 2000/06/14 BY JENNY LALONDE.
17347	0610	CORRECTION: INSTRUMENT NUMBER LT599711 WAS OMITTED FROM THIS PROPERTY IN ERROR AND WAS ADDED AND CERTIFIED ON 2000/06/14 BY JENNY LALONDE.
17347	0612	CORRECTION: INSTRUMENT NUMBER LT599711 WAS OMITTED FROM THIS PROPERTY IN ERROR AND WAS ADDED AND CERTIFIED ON 2000/06/14 BY JENNY LALONDE.
17347	0614	CORRECTION: INSTRUMENT NUMBER LT599711 WAS OMITTED FROM THIS PROPERTY IN ERROR AND WAS ADDED AND CERTIFIED ON 2000/06/14 BY JENNY LALONDE.
17347	0616	CORRECTION: INSTRUMENT NUMBER LT599711 WAS OMITTED FROM THIS PROPERTY IN ERROR AND WAS ADDED AND CERTIFIED ON 2000/06/14 BY JENNY LALONDE.
17347	0618	CORRECTION: INSTRUMENT NUMBER LT599711 WAS OMITTED FROM THIS PROPERTY IN ERROR AND WAS ADDED AND CERTIFIED ON 2000/06/14 BY JENNY LALONDE.
17347	0620	CORRECTION: INSTRUMENT NUMBER LT599711 WAS OMITTED FROM THIS PROPERTY IN ERROR AND WAS ADDED AND CERTIFIED ON 2000/06/14 BY JENNY LALONDE.
17347	0622	CORRECTION: INSTRUMENT NUMBER LT599711 WAS OMITTED FROM THIS PROPERTY IN ERROR AND WAS ADDED AND CERTIFIED ON 2000/06/14 BY JENNY LALONDE.
17347	0624	CORRECTION: INSTRUMENT NUMBER LT599711 WAS OMITTED FROM THIS PROPERTY IN ERROR AND WAS ADDED AND CERTIFIED ON 2000/06/14 BY JENNY LALONDE.
17347	0626	CORRECTION: INSTRUMENT NUMBER LT599711 WAS OMITTED FROM THIS PROPERTY IN ERROR AND WAS ADDED AND CERTIFIED ON 2000/06/14 BY JENNY LALONDE.
17347	0628	CORRECTION: INSTRUMENT NUMBER LT599711 WAS OMITTED FROM THIS PROPERTY IN ERROR AND WAS ADDED AND CERTIFIED ON 2000/06/14 BY JENNY LALONDE.
17347	0630	CORRECTION: INSTRUMENT NUMBER LT599711 WAS OMITTED FROM THIS PROPERTY IN ERROR AND WAS ADDED AND CERTIFIED ON 2000/06/14 BY JENNY LALONDE.
17347	0632	CORRECTION: INSTRUMENT NUMBER LT599711 WAS OMITTED FROM THIS PROPERTY IN ERROR AND WAS ADDED AND CERTIFIED ON 2000/06/14 BY JENNY LALONDE.
17347	0634	CORRECTION: INSTRUMENT NUMBER LT599711 WAS OMITTED FROM THIS PROPERTY IN ERROR AND WAS ADDED AND CERTIFIED ON 2000/06/14 BY JENNY LALONDE.
17347	0636	CORRECTION: INSTRUMENT NUMBER LT599711 WAS OMITTED FROM THIS PROPERTY IN ERROR AND WAS ADDED AND CERTIFIED ON 2000/06/14 BY JENNY LALONDE.
17347	0638	CORRECTION: INSTRUMENT NUMBER LT599711 WAS OMITTED FROM THIS PROPERTY IN ERROR AND WAS ADDED AND CERTIFIED ON 2000/06/14 BY JENNY LALONDE.
17347	0640	CORRECTION: INSTRUMENT NUMBER LT599711 WAS OMITTED FROM THIS PROPERTY IN ERROR AND WAS ADDED AND CERTIFIED ON 2000/06/14 BY JENNY LALONDE.
17347	0642	CORRECTION: INSTRUMENT NUMBER LT599711 WAS OMITTED FROM THIS PROPERTY IN ERROR AND WAS ADDED AND CERTIFIED ON 2000/06/14 BY JENNY LALONDE.
17347	0644	CORRECTION: INSTRUMENT NUMBER LT599711 WAS OMITTED FROM THIS PROPERTY IN ERROR AND WAS ADDED AND CERTIFIED ON 2000/06/14 BY JENNY LALONDE.
17347	0646	CORRECTION: INSTRUMENT NUMBER LT599711 WAS OMITTED FROM THIS PROPERTY IN ERROR AND WAS ADDED AND CERTIFIED ON 2000/06/14 BY JENNY LALONDE.
17347	0648	CORRECTION: INSTRUMENT NUMBER LT599711 WAS OMITTED FROM THIS PROPERTY IN ERROR AND WAS ADDED AND CERTIFIED ON 2000/06/14 BY JENNY LALONDE.
17347	0650	CORRECTION: INSTRUMENT NUMBER LT599711 WAS OMITTED FROM THIS PROPERTY IN ERROR AND WAS ADDED AND CERTIFIED ON 2000/06/14 BY JENNY LALONDE.
17347	0652	CORRECTION: INSTRUMENT NUMBER LT599711 WAS OMITTED FROM THIS PROPERTY IN ERROR AND WAS ADDED AND CERTIFIED ON 2000/06/14 BY JENNY LALONDE.
17347	0654	CORRECTION: INSTRUMENT NUMBER LT599711 WAS OMITTED FROM THIS PROPERTY IN ERROR AND WAS ADDED AND CERTIFIED ON 2000/06/14 BY JENNY LALONDE.
17347	0655	CORRECTION: INSTRUMENT NUMBER LT599713 WAS OMITTED FROM THIS PROPERTY IN ERROR AND WAS ADDED AND CERTIFIED ON 2000/06/14 BY JENNY LALONDE.
17347	0658	CORRECTION: INSTRUMENT NUMBER LT599711 WAS OMITTED FROM THIS PROPERTY IN ERROR AND WAS ADDED AND CERTIFIED ON 2000/06/14 BY JENNY LALONDE.
17347	0660	CORRECTION: INSTRUMENT NUMBER LT599711 WAS OMITTED FROM THIS PROPERTY IN ERROR AND WAS ADDED AND CERTIFIED ON 2000/06/14 BY JENNY LALONDE.
17347	0662	CORRECTION: INSTRUMENT NUMBER LT599711 WAS OMITTED FROM THIS PROPERTY IN ERROR AND WAS ADDED AND CERTIFIED ON 2000/06/14 BY JENNY LALONDE.
17347	0664	CORRECTION: INSTRUMENT NUMBER LT599711 WAS OMITTED FROM THIS PROPERTY IN ERROR AND WAS ADDED AND CERTIFIED ON 2000/06/14 BY JENNY LALONDE.
17347	0666	CORRECTION: INSTRUMENT NUMBER LT599711 WAS OMITTED FROM THIS PROPERTY IN ERROR AND WAS ADDED AND CERTIFIED ON 2000/06/14 BY JENNY LALONDE.
17347	0668	CORRECTION: INSTRUMENT NUMBER LT599711 WAS OMITTED FROM THIS PROPERTY IN ERROR AND WAS ADDED AND CERTIFIED ON 2000/06/14 BY JENNY LALONDE.
17347	0670	CORRECTION: INSTRUMENT NUMBER LT599711 WAS OMITTED FROM THIS PROPERTY IN ERROR AND WAS ADDED AND CERTIFIED ON 2000/06/14 BY JENNY LALONDE.
17347	0672	CORRECTION: INSTRUMENT NUMBER LT599711 WAS OMITTED FROM THIS PROPERTY IN ERROR AND WAS ADDED AND CERTIFIED ON 2000/06/14 BY JENNY LALONDE.
17347	0674	CORRECTION: INSTRUMENT NUMBER LT599711 WAS OMITTED FROM THIS PROPERTY IN ERROR AND WAS ADDED AND CERTIFIED ON 2000/06/14 BY JENNY LALONDE.
17347	0676	CORRECTION: INSTRUMENT NUMBER LT599711 WAS OMITTED FROM THIS PROPERTY IN ERROR AND WAS ADDED AND CERTIFIED ON 2000/06/14 BY JENNY LALONDE.
17347	0678	CORRECTION: INSTRUMENT NUMBER LT599711 WAS OMITTED FROM THIS PROPERTY IN ERROR AND WAS ADDED AND CERTIFIED ON 2000/06/14 BY JENNY LALONDE.
17347	0680	CORRECTION: INSTRUMENT NUMBER LT599711 WAS OMITTED FROM THIS PROPERTY IN ERROR AND WAS ADDED AND CERTIFIED ON 2000/06/14 BY JENNY LALONDE.
17347	0682	CORRECTION: INSTRUMENT NUMBER LT599711 WAS OMITTED FROM THIS PROPERTY IN ERROR AND WAS ADDED AND CERTIFIED ON 2000/06/14 BY JENNY LALONDE.
17347	0684	CORRECTION: INSTRUMENT NUMBER LT599711 WAS OMITTED FROM THIS PROPERTY IN ERROR AND WAS ADDED AND CERTIFIED ON 2000/06/14 BY JENNY LALONDE.
17347	0686	CORRECTION: INSTRUMENT NUMBER LT599711 WAS OMITTED FROM THIS PROPERTY IN ERROR AND WAS ADDED AND CERTIFIED ON 2000/06/14 BY JENNY LALONDE.
17347	0688	CORRECTION: INSTRUMENT NUMBER LT599711 WAS OMITTED FROM THIS PROPERTY IN ERROR AND WAS ADDED AND CERTIFIED ON 2000/06/14 BY JENNY LALONDE.
17347	0690	CORRECTION: INSTRUMENT NUMBER LT599711 WAS OMITTED FROM THIS PROPERTY IN ERROR AND WAS ADDED AND CERTIFIED ON 2000/06/14 BY JENNY LALONDE.
17347	0691	CORRECTION: INSTRUMENT NUMBER LT599713 WAS OMITTED FROM THIS PROPERTY IN ERROR AND WAS ADDED AND CERTIFIED ON 2000/06/14 BY JENNY LALONDE.
17347	0692	CORRECTION: INSTRUMENT NUMBER LT599711 WAS OMITTED FROM THIS PROPERTY IN ERROR AND WAS ADDED AND CERTIFIED ON 2000/06/14 BY JENNY LALONDE.
17347	0693	CORRECTION: INSTRUMENT NUMBER LT599713 WAS OMITTED FROM THIS PROPERTY IN ERROR AND WAS ADDED AND CERTIFIED ON 2000/06/14 BY JENNY LALONDE.
17347	0694	CORRECTION: INSTRUMENT NUMBER LT599711 WAS OMITTED FROM THIS PROPERTY IN ERROR AND WAS ADDED AND CERTIFIED ON 2000/06/14 BY JENNY LALONDE.
17347	0695	CORRECTION: INSTRUMENT NUMBER LT599713 WAS OMITTED FROM THIS PROPERTY IN ERROR AND WAS ADDED AND CERTIFIED ON 2000/06/14 BY JENNY LALONDE.
17347	0696	CORRECTION: INSTRUMENT NUMBER LT599711 WAS OMITTED FROM THIS PROPERTY IN ERROR AND WAS ADDED AND CERTIFIED ON 2000/06/14 BY JENNY LALONDE.
17347	0697	CORRECTION: INSTRUMENT NUMBER LT599713 WAS OMITTED FROM THIS PROPERTY IN ERROR AND WAS ADDED AND CERTIFIED ON 2000/06/14 BY JENNY LALONDE.
17347	0698	CORRECTION: INSTRUMENT NUMBER LT599711 WAS OMITTED FROM THIS PROPERTY IN ERROR AND WAS ADDED AND CERTIFIED ON 2000/06/14 BY JENNY LALONDE.
17347	0699	CORRECTION: INSTRUMENT NUMBER LT599713 WAS OMITTED FROM THIS PROPERTY IN ERROR AND WAS ADDED AND CERTIFIED ON 2000/06/14 BY JENNY LALONDE.
17347	0700	CORRECTION: INSTRUMENT NUMBER LT599711 WAS OMITTED FROM THIS PROPERTY IN ERROR AND WAS ADDED AND CERTIFIED ON 2000/06/14 BY JENNY LALONDE.
17347	0702	CORRECTION: INSTRUMENT NUMBER LT599711 WAS OMITTED FROM THIS PROPERTY IN ERROR AND WAS ADDED AND CERTIFIED ON 2000/06/14 BY JENNY LALONDE.
17347	0704	CORRECTION: INSTRUMENT NUMBER LT599711 WAS OMITTED FROM THIS PROPERTY IN ERROR AND WAS ADDED AND CERTIFIED ON 2000/06/14 BY JENNY LALONDE.
17347	0706	CORRECTION: INSTRUMENT NUMBER LT599711 WAS OMITTED FROM THIS PROPERTY IN ERROR AND WAS ADDED AND CERTIFIED ON 2000/06/14 BY JENNY LALONDE.
17347	0708	CORRECTION: INSTRUMENT NUMBER LT599711 WAS OMITTED FROM THIS PROPERTY IN ERROR AND WAS ADDED AND CERTIFIED ON 2000/06/14 BY JENNY LALONDE.
17347	0710	CORRECTION: INSTRUMENT NUMBER LT599711 WAS OMITTED FROM THIS PROPERTY IN ERROR AND WAS ADDED AND CERTIFIED ON 2000/06/14 BY JENNY LALONDE.
17347	0712	CORRECTION: INSTRUMENT NUMBER LT599711 WAS OMITTED FROM THIS PROPERTY IN ERROR AND WAS ADDED AND CERTIFIED ON 2000/06/14 BY JENNY LALONDE.
17347	0714	CORRECTION: INSTRUMENT NUMBER LT599711 WAS OMITTED FROM THIS PROPERTY IN ERROR AND WAS ADDED AND CERTIFIED ON 2000/06/14 BY JENNY LALONDE.
17347	0715	CORRECTION: INSTRUMENT NUMBER LT367252 WAS OMITTED FROM THIS PROPERTY IN ERROR AND WAS ADDED AND CERTIFIED ON 1997/03/13 BY LAND REGISTRAR 2. CORRECTION: INSTRUMENT NUMBER 62R-10803 WAS OMITTED FROM THIS PROPERTY IN ERROR AND WAS ADDED AND CERTIFIED ON 19
17347	0728	CORRECTION: INSTRUMENT NUMBER LT479043 WAS OMITTED FROM THIS PROPERTY IN ERROR AND WAS ADDED AND CERTIFIED ON 2001/02/14 BY AM BERTRAND. CORRECTION: INSTRUMENT NUMBER LT479044 WAS OMITTED FROM THIS PROPERTY IN ERROR AND WAS ADDED AND CERTIFIED ON 2001/02/
17349	0031	LT187552 LAND DIVISION COMMITTEE CONSENT.
17349	0036	LT187544 CONSENT LAND DIVISION COMMITTEE.
17349	0037	LT187544 CONSENT LAND DIVISION COMMITTEE.
17349	0437	PAC IN LT277257.
17349	0438	PAC IN LT277256.
17349	0439	LT277255 CONSENT LAND DIVISION COMMITTEE.
17349	0440	PAC IN LT277254.
17349	0441	PAC IN LT277253.
17349	0498	LT296644 CONSENT LAND DIVISION COMMITTEE.
17349	0508	CORRECTION: INSTRUMENT NUMBER LT382450 WAS OMITTED FROM THIS PROPERTY IN ERROR AND WAS ADDED AND CERTIFIED ON 1998/04/20 BY LAND REGISTRAR 2.
17354	0113	CORRECTION: INSTRUMENT NUMBER VM80205 WAS OMITTED FROM THIS PROPERTY IN ERROR AND WAS ADDED AND CERTIFIED ON 1996/11/15 BY JEFF GILBERT.
17355	0006	CORRECTION: INSTRUMENT NUMBER 62R9390 WAS OMITTED FROM THIS PROPERTY IN ERROR AND WAS ADDED AND CERTIFIED ON 1999/02/17 BY PETER GAIGAL.
17355	0008	CORRECTION: INSTRUMENT NUMBER 62R9390 WAS OMITTED FROM THIS PROPERTY IN ERROR AND WAS ADDED AND CERTIFIED ON 1999/02/17 BY PETER GAIGAL.
17359	0172	CORRECTION: INSTRUMENT NUMBER LT406269 WAS OMITTED FROM THIS PROPERTY IN ERROR AND WAS ADDED AND CERTIFIED ON 1996/05/27 BY BELLE FIAMELLI.
17361	0029	CORRECTION: INSTRUMENT NUMBER CD506348 WAS OMITTED FROM THIS PROPERTY IN ERROR AND WAS ADDED AND CERTIFIED ON 1996/09/13 BY DORRIE MORLEY.
17361	0039	CORRECTION: INSTRUMENT NUMBER CD462065 WAS OMITTED FROM THIS PROPERTY IN ERROR AND WAS ADDED AND CERTIFIED ON 1997/05/29 BY ERIC CANNON.
17361	0043	CORRECTION: INSTRUMENT NUMBER VM207893 WAS OMITTED FROM THIS PROPERTY IN ERROR AND WAS ADDED AND CERTIFIED ON 2000/06/07 BY PETER GAIGAL.
17361	0044	CORRECTION: INSTRUMENT NUMBER VM219613 WAS OMITTED FROM THIS PROPERTY IN ERROR AND WAS ADDED AND CERTIFIED ON 2000/10/05 BY HELEN MERRILL.
17361	0064	CORRECTION: INSTRUMENT NUMBER LT546924 WAS OMITTED FROM THIS PROPERTY IN ERROR AND WAS ADDED AND CERTIFIED ON 1999/07/09 BY MARLENE HUNTER.
17362	0359	CORRECTION: INSTRUMENT NUMBER WE75840 WAS ENTERED IN ERROR AGAINST THIS PROPERTY AND WAS REMOVED AND CERTIFIED ON 2002/05/28 BY BELLE FIAMELLI.
17362	0363	CORRECTION: INSTRUMENT NUMBER LT284314 WAS OMITTED FROM THIS PROPERTY IN ERROR AND WAS ADDED AND CERTIFIED ON 2002/05/29 BY BELLE FIAMELLI. CORRECTION: INSTRUMENT NUMBER 62M665 WAS OMITTED FROM THIS PROPERTY IN ERROR AND WAS ADDED AND CERTIFIED ON 2005/04
17362	0433	FOR THE PURPOSE OF THE QUALIFIER THE DATE OF REGISTRATION OF ABSOLUTE TITLE IS 2002/09/03.
17362	0439	THIS DESCRIPTION WAS NULL, WE CHNAGED IT SO IT DOESN'T CAUSE GREEN SCREEN.
17362	0441	"FOR THE PURPOSE OF THE QUALIFIER THE DATE OF REGISTRATION OF ABSOLUTE TITLE IS 2005/01/12".
17362	0458	"FOR THE PURPOSE OF THE QUALIFIER THE DATE OF REGISTRATION OF ABSOLUTE TITLE IS 2002/09/03".
17362	0459	"FOR THE PURPOSE OF THE QUALIFIER THE DATE OF REGISTRATION OF ABSOLUTE TITLE IS 2002/09/03".
17362	0460	"FOR THE PURPOSE OF THE QUALIFIER THE DATE OF REGISTRATION OF ABSOLUTE TITLE IS 2002/09/03".
17362	0461	"FOR THE PURPOSE OF THE QUALIFIER THE DATE OF REGISTRATION OF ABSOLUTE TITLE IS 2002/09/03".
17362	0462	"FOR THE PURPOSE OF THE QUALIFIER THE DATE OF REGISTRATION OF ABSOLUTE TITLE IS 2002/09/03".
17362	0463	"FOR THE PURPOSE OF THE QUALIFIER THE DATE OF REGISTRATION OF ABSOLUTE TITLE IS 2002/09/03".
17362	0464	"FOR THE PURPOSE OF THE QUALIFIER THE DATE OF REGISTRATION OF ABSOLUTE TITLE IS 2002/09/03".
17362	0465	"FOR THE PURPOSE OF THE QUALIFIER THE DATE OF REGISTRATION OF ABSOLUTE TITLE IS 2002/09/03".
17362	0519	"FOR THE PURPOSE OF THE QUALIFIER THE DATE OF REGISTRATION OF ABSOLUTE TITLE IS 2005/01/12".
17362	0520	"FOR THE PURPOSE OF THE QUALIFIER THE DATE OF REGISTRATION OF ABSOLUTE TITLE IS 2005/01/12".
17362	0521	"FOR THE PURPOSE OF THE QUALIFIER THE DATE OF REGISTRATION OF ABSOLUTE TITLE IS 2005/01/12".
17362	0522	"FOR THE PURPOSE OF THE QUALIFIER THE DATE OF REGISTRATION OF ABSOLUTE TITLE IS 2005/01/12".
17362	0523	"FOR THE PURPOSE OF THE QUALIFIER THE DATE OF REGISTRATION OF ABSOLUTE TITLE IS 2005/01/12".
17362	0524	"FOR THE PURPOSE OF THE QUALIFIER THE DATE OF REGISTRATION OF ABSOLUTE TITLE IS 2005/01/12".
17362	0525	"FOR THE PURPOSE OF THE QUALIFIER THE DATE OF REGISTRATION OF ABSOLUTE TITLE IS 2005/01/12".
17362	0526	"FOR THE PURPOSE OF THE QUALIFIER THE DATE OF REGISTRATION OF ABSOLUTE TITLE IS 2005/01/12".
17362	0527	"FOR THE PURPOSE OF THE QUALIFIER THE DATE OF REGISTRATION OF ABSOLUTE TITLE IS 2005/01/12".
17362	0528	"FOR THE PURPOSE OF THE QUALIFIER THE DATE OF REGISTRATION OF ABSOLUTE TITLE IS 2005/01/12".
17362	0529	"FOR THE PURPOSE OF THE QUALIFIER THE DATE OF REGISTRATION OF ABSOLUTE TITLE IS 2005/01/12".
17362	0530	"FOR THE PURPOSE OF THE QUALIFIER THE DATE OF REGISTRATION OF ABSOLUTE TITLE IS 2005/01/12".
17362	0531	"FOR THE PURPOSE OF THE QUALIFIER THE DATE OF REGISTRATION OF ABSOLUTE TITLE IS 2005/01/12".
17362	0532	"FOR THE PURPOSE OF THE QUALIFIER THE DATE OF REGISTRATION OF ABSOLUTE TITLE IS 2005/01/12".
17362	0533	"FOR THE PURPOSE OF THE QUALIFIER THE DATE OF REGISTRATION OF ABSOLUTE TITLE IS 2005/01/12".
17362	0534	"FOR THE PURPOSE OF THE QUALIFIER THE DATE OF REGISTRATION OF ABSOLUTE TITLE IS 2005/01/12".
17362	0535	"FOR THE PURPOSE OF THE QUALIFIER THE DATE OF REGISTRATION OF ABSOLUTE TITLE IS 2005/01/12".
17362	0536	"FOR THE PURPOSE OF THE QUALIFIER THE DATE OF REGISTRATION OF ABSOLUTE TITLE IS 2005/01/12".
17362	0537	"FOR THE PURPOSE OF THE QUALIFIER THE DATE OF REGISTRATION OF ABSOLUTE TITLE IS 2005/01/12".
17362	0538	"FOR THE PURPOSE OF THE QUALIFIER THE DATE OF REGISTRATION OF ABSOLUTE TITLE IS 2005/01/12".
17362	0539	"FOR THE PURPOSE OF THE QUALIFIER THE DATE OF REGISTRATION OF ABSOLUTE TITLE IS 2005/01/12".
17362	0540	"FOR THE PURPOSE OF THE QUALIFIER THE DATE OF REGISTRATION OF ABSOLUTE TITLE IS 2005/01/12".
17362	0541	"FOR THE PURPOSE OF THE QUALIFIER THE DATE OF REGISTRATION OF ABSOLUTE TITLE IS 2005/01/12".
17362	0542	"FOR THE PURPOSE OF THE QUALIFIER THE DATE OF REGISTRATION OF ABSOLUTE TITLE IS 2005/01/12".
17362	0543	"FOR THE PURPOSE OF THE QUALIFIER THE DATE OF REGISTRATION OF ABSOLUTE TITLE IS 2005/01/12".
17362	0544	"FOR THE PURPOSE OF THE QUALIFIER THE DATE OF REGISTRATION OF ABSOLUTE TITLE IS 2005/01/12".
17362	0545	"FOR THE PURPOSE OF THE QUALIFIER THE DATE OF REGISTRATION OF ABSOLUTE TITLE IS 2005/01/12".
17362	0546	"FOR THE PURPOSE OF THE QUALIFIER THE DATE OF REGISTRATION OF ABSOLUTE TITLE IS 2005/01/12".
17362	0547	"FOR THE PURPOSE OF THE QUALIFIER THE DATE OF REGISTRATION OF ABSOLUTE TITLE IS 2005/01/12".
17362	0548	"FOR THE PURPOSE OF THE QUALIFIER THE DATE OF REGISTRATION OF ABSOLUTE TITLE IS 2005/01/12".
17362	0549	"FOR THE PURPOSE OF THE QUALIFIER THE DATE OF REGISTRATION OF ABSOLUTE TITLE IS 2005/01/12".
17362	0550	"FOR THE PURPOSE OF THE QUALIFIER THE DATE OF REGISTRATION OF ABSOLUTE TITLE IS 2005/01/12".
17362	0551	"FOR THE PURPOSE OF THE QUALIFIER THE DATE OF REGISTRATION OF ABSOLUTE TITLE IS 2005/01/12".
17362	0552	"FOR THE PURPOSE OF THE QUALIFIER THE DATE OF REGISTRATION OF ABSOLUTE TITLE IS 2005/01/12".
17362	0553	"FOR THE PURPOSE OF THE QUALIFIER THE DATE OF REGISTRATION OF ABSOLUTE TITLE IS 2005/01/12".
17362	0554	"FOR THE PURPOSE OF THE QUALIFIER THE DATE OF REGISTRATION OF ABSOLUTE TITLE IS 2005/01/12".
17362	0555	"FOR THE PURPOSE OF THE QUALIFIER THE DATE OF REGISTRATION OF ABSOLUTE TITLE IS 2005/01/12".
17362	0556	"FOR THE PURPOSE OF THE QUALIFIER THE DATE OF REGISTRATION OF ABSOLUTE TITLE IS 2005/01/12".
17362	0557	"FOR THE PURPOSE OF THE QUALIFIER THE DATE OF REGISTRATION OF ABSOLUTE TITLE IS 2005/01/12".
17362	0558	"FOR THE PURPOSE OF THE QUALIFIER THE DATE OF REGISTRATION OF ABSOLUTE TITLE IS 2005/01/12".
17362	0559	"FOR THE PURPOSE OF THE QUALIFIER THE DATE OF REGISTRATION OF ABSOLUTE TITLE IS 2005/01/12".
17362	0560	"FOR THE PURPOSE OF THE QUALIFIER THE DATE OF REGISTRATION OF ABSOLUTE TITLE IS 2005/01/12".
17363	0051	CORRECTION: INSTRUMENT NUMBER 62R16159 WAS OMITTED FROM THIS PROPERTY IN ERROR AND WAS ADDED AND CERTIFIED ON 2002/06/17 BY MARCIE WRIGHT.
17364	0065	CONSENT COMMITTEE OF ADJUSTMENT IN WE402548.
17365	0106	CORRECTION: INSTRUMENT NUMBER LT525339 WAS ENTERED IN ERROR AGAINST THIS PROPERTY AND WAS REMOVED AND CERTIFIED ON 1998/11/16 BY DEBBIE SARKANY.
17365	0303	SUBJECT ON THE DATE OF REGISTRATION 98/11/17 TO SUBSECTION 44(1) OF THE LAND TITLES ACT, EXCEPT PARAGRAPHS 3 AND 14 THEREOF AND PROVINCIAL SUCCESSION DUTIES.
17365	0314	SUBJECT ON THE DATE OF REGISTRATION 98/11/17 TO SUBSECTION 44(1) OF THE LAND TITLES ACT, EXCEPT PARAGRAPHS 3 AND 14 THEREOF AND PROVINCIAL SUCCESSION DUTIES.
17365	0317	SUBJECT ON THE DATE OF REGISTRATION 98/11/17 TO SUBSECTION 44(1) OF THE LAND TITLES ACT, EXCEPT PARAGRAPHS 3 AND 14 THEREOF AND PROVINCIAL SUCCESSION DUTIES.
17365	0335	SUBJECT ON THE DATE OF REGISTRATION 98/11/17 TO SUBSECTION 44(1) OF THE LAND TITLES ACT, EXCEPT PARAGRAPHS 3 AND 14 THEREOF AND PROVINCIAL SUCCESSION DUTIES.
17365	0342	SUBJECT ON THE DATE OF REGISTRATION 98/11/17 TO SUBSECTION 44(1) OF THE LAND TITLES ACT, EXCEPT PARAGRAPHS 3 AND 14 THEREOF AND PROVINCIAL SUCCESSION DUTIES.
17365	0346	SUBJECT ON THE DATE OF REGISTRATION 98/11/17 TO SUBSECTION 44(1) OF THE LAND TITLES ACT, EXCEPT PARAGRAPHS 3 AND 14 THEREOF AND PROVINCIAL SUCCESSION DUTIES.
17365	0353	SUBJECT ON THE DATE OF REGISTRATION 98/11/17 TO SUBSECTION 44(1) OF THE LAND TITLES ACT, EXCEPT PARAGRAPHS 3 AND 14 THEREOF AND PROVINCIAL SUCCESSION DUTIES.
17365	0363	SUBJECT ON THE DATE OF REGISTRATION 98/11/17 TO SUBSECTION 44(1) OF THE LAND TITLES ACT, EXCEPT PARAGRAPHS 3 AND 14 THEREOF AND PROVINCIAL SUCCESSION DUTIES.
17365	0365	SUBJECT ON THE DATE OF REGISTRATION 98/11/17 TO SUBSECTION 44(1) OF THE LAND TITLES ACT, EXCEPT PARAGRAPHS 3 AND 14 THEREOF AND PROVINCIAL SUCCESSION DUTIES.
17365	0370	SUBJECT ON THE DATE OF REGISTRATION 98/11/17 TO SUBSECTION 44(1) OF THE LAND TITLES ACT, EXCEPT PARAGRAPHS 3 AND 14 THEREOF AND PROVINCIAL SUCCESSION DUTIES.
17365	0373	SUBJECT ON THE DATE OF REGISTRATION 98/11/17 TO SUBSECTION 44(1) OF THE LAND TITLES ACT, EXCEPT PARAGRAPHS 3 AND 14 THEREOF AND PROVINCIAL SUCCESSION DUTIES.
17365	0403	"FOR THE PURPOSE OF THE QUALIFIER THE DATE OF REGISTRATION OF ABSOLUTE TITLE IS 2004/02/03".
17366	0068	CORRECTION: INSTRUMENT NUMBER LT401783 WAS OMITTED FROM THIS PROPERTY IN ERROR AND WAS ADDED AND CERTIFIED ON 2000/03/01 BY DEBBIE SARKANY. CORRECTION: INSTRUMENT NUMBER LT408357 WAS OMITTED FROM THIS PROPERTY IN ERROR AND WAS ADDED AND CERTIFIED ON 2000/
17366	0100	THE FOLLOWING REMARK HAS BEEN ADDED ON 1996/10/28 AT 14:08 BY HELEN MERRILL : S/T RT IN FAVOUR OF HAMILTON GENERAL HOMES (1971) LTD. TO ENTER AT A NY TIME WITHIN FIVE (5 YEARS AFTER THE COMPLETION DATE OF THE FINISHED ROADS IN THE SUBDIVISION AS IN LT4214
17366	0201	CORRECTION: INSTRUMENT NUMBER LT288504 WAS OMITTED FROM THIS PROPERTY IN ERROR AND WAS ADDED AND CERTIFIED ON 1998/06/04 BY MARLENE HUNTER.
17367	0001	CORRECTION: INSTRUMENT NUMBER CD493354 WAS ENTERED IN ERROR AGAINST THIS PROPERTY AND WAS REMOVED AND CERTIFIED ON 2000/02/16 BY MARLENE NICHOLLS.
17367	0125	SUBJECT TO SUBSECTION 44(1) OF THE LAND TITLES ACT, EXCEPT PARAGRAPH 11, PARAGRAPH 14, PROVINCIAL SUCCESSION DUTIES AND ESCHEATS OR FORFEITURE TO THE CROWN UP TO THE DATE OF CONVERSION AND EXCEPT PARAGRAPHS 3 ABD 14 THEREAFTER.
17367	0149	SUBJECT TO SUBSECTION 44(1) OF THE LAND TITLES ACT, EXCEPT PARAGRAPH 11, PARAGRAPH 14, PROVINCIAL SUCCESSION DUTIES AND ESHEATS OR FORFEITURE TO THE CROWN UP TO THE DATE OF CONVERSION AND EXCEPT PARAGRAPHS 3 AND 14 THEREAFTER.
17367	0150	SUBJECT TO SUBSECTION 44(1) OF THE LAND TITLES ACT, EXCEPT PARAGRAPH 11, PARAGRAPH 14, PROVINCIAL SUCCESSION DUTIES AND ESHEATS OR FORFEITURE TO THE CROWN UP TO THE DATE OF CONVERSION AND EXCEPT PARAGRAPHS 3 AND 14 THEREAFTER.
17367	0152	SUBJECT TO SUBSECTION 44(1) OF THE LAND TITLES ACT, EXCEPT PARAGRAPH 11, PARAGRAPH 14, PROVINCIAL SUCCESSION DUTIES AND ESHEATS OR FORFEITURE TO THE CROWN UP TO THE DATE OF CONVERSION AND EXCEPT PARAGRAPHS 3 AND 14 THEREAFTER.
17367	0162	SUBJECT TO SUBSECTION 44(1) OF THE LAND TITLES ACT, EXCEPT PARAGRAPH 11, PARAGRAPH 14, PROVINCIAL SUCCESSION DUTIES AND ESHEATS OR FORFEITURE TO THE CROWN UP TO THE DATE OF CONVERSION AND EXCEPT PARAGRAPHS 3 AND 14 THEREAFTER.
17367	0163	SUBJECT TO SUBSECTION 44(1) OF THE LAND TITLES ACT, EXCEPT PARAGRAPH 11, PARAGRAPH 14, PROVINCIAL SUCCESSION DUTIES AND ESHEATS OR FORFEITURE TO THE CROWN UP TO THE DATE OF CONVERSION AND EXCEPT PARAGRAPHS 3 AND 14 THEREAFTER.
17367	0164	SUBJECT TO SUBSECTION 44(1) OF THE LAND TITLES ACT, EXCEPT PARAGRAPH 11, PARAGRAPH 14, PROVINCIAL SUCCESSION DUTIES AND ESHEATS OR FORFEITURE TO THE CROWN UP TO THE DATE OF CONVERSION AND EXCEPT PARAGRAPHS 3 AND 14 THEREAFTER.
17367	0165	SUBJECT TO SUBSECTION 44(1) OF THE LAND TITLES ACT, EXCEPT PARAGRAPH 11, PARAGRAPH 14, PROVINCIAL SUCCESSION DUTIES AND ESHEATS OR FORFEITURE TO THE CROWN UP TO THE DATE OF CONVERSION AND EXCEPT PARAGRAPHS 3 AND 14 THEREAFTER.
17367	0168	SUBJECT TO SUBSECTION 44(1) OF THE LAND TITLES ACT, EXCEPT PARAGRAPH 11, PARAGRAPH 14, PROVINCIAL SUCCESSION DUTIES AND ESHEATS OR FORFEITURE TO THE CROWN UP TO THE DATE OF CONVERSION AND EXCEPT PARAGRAPHS 3 AND 14 THEREAFTER.
17367	0169	SUBJECT TO SUBSECTION 44(1) OF THE LAND TITLES ACT, EXCEPT PARAGRAPH 11, PARAGRAPH 14, PROVINCIAL SUCCESSION DUTIES AND ESHEATS OR FORFEITURE TO THE CROWN UP TO THE DATE OF CONVERSION AND EXCEPT PARAGRAPHS 3 AND 14 THEREAFTER.
17367	0176	SUBJECT TO SUBSECTION 44(1) OF THE LAND TITLES ACT, EXCEPT PARAGRAPH 11, PARAGRAPH 14, PROVINCIAL SUCCESSION DUTIES AND ESHEATS OR FORFEITURE TO THE CROWN UP TO THE DATE OF CONVERSION AND EXCEPT PARAGRAPHS 3 AND 14 THEREAFTER.
17367	0180	SUBJECT TO SUBSECTION 44(1) OF THE LAND TITLES ACT, EXCEPT PARAGRAPH 11, PARAGRAPH 14, PROVINCIAL SUCCESSION DUTIES AND ESHEATS OR FORFEITURE TO THE CROWN UP TO THE DATE OF CONVERSION AND EXCEPT PARAGRAPHS 3 AND 14 THEREAFTER.
17367	0182	SUBJECT TO SUBSECTION 44(1) OF THE LAND TITLES ACT, EXCEPT PARAGRAPH 11, PARAGRAPH 14, PROVINCIAL SUCCESSION DUTIES AND ESHEATS OR FORFEITURE TO THE CROWN UP TO THE DATE OF CONVERSION AND EXCEPT PARAGRAPHS 3 AND 14 THEREAFTER.
17367	0185	SUBJECT TO SUBSECTION 44(1) OF THE LAND TITLES ACT, EXCEPT PARAGRAPH 11, PARAGRAPH 14, PROVINCIAL SUCCESSION DUTIES AND ESHEATS OR FORFEITURE TO THE CROWN UP TO THE DATE OF CONVERSION AND EXCEPT PARAGRAPHS 3 AND 14 THEREAFTER.
17367	0186	SUBJECT TO SUBSECTION 44(1) OF THE LAND TITLES ACT, EXCEPT PARAGRAPH 11, PARAGRAPH 14, PROVINCIAL SUCCESSION DUTIES AND ESHEATS OR FORFEITURE TO THE CROWN UP TO THE DATE OF CONVERSION AND EXCEPT PARAGRAPHS 3 AND 14 THEREAFTER.
17367	0189	SUBJECT TO SUBSECTION 44(1) OF THE LAND TITLES ACT, EXCEPT PARAGRAPH 11, PARAGRAPH 14, PROVINCIAL SUCCESSION DUTIES AND ESHEATS OR FORFEITURE TO THE CROWN UP TO THE DATE OF CONVERSION AND EXCEPT PARAGRAPHS 3 AND 14 THEREAFTER.
17367	0239	SUBJECT TO SUBSECTION 44 (1) OF THE LAND TITLES ACT, EXCEPT PARAGRAPH 11, PARAGRAPH 14, PROVINCIAL SUCCESSION DUTIES AND ESCHEATS OR FORFEITURE TO THE CROWN UP TO THE DATE OF CONVERSION AND EXCEPT PARAGRAPHS 3 AND 4 THEREAFTER.
17367	0254	SUBJECT TO SUBSECTION 44(1) OF THE LAND TITLES ACT, EXCEPT PARAGRAPHS 3 AND 14 AND PROVINCIAL SUCCESSION DUTIES AND EXCEPT PARAGRAPH 11 AND ESCHEATS OR FORFEITURE TO THE CROWN UP TO THE DATE OF REGISTRATION WITH AN ABSOLUTE TITLE.
17367	0255	SUBJECT TO SUBSECTION 44 (1) OF THE LAND TITLES ACT, EXCEPT PARAGRAPHS 3 AND 14 AND PROVINCIAL SUCCESSION DUTIES AND EXCEPT PARAGRAPH 11 AND ESCHEATS OR FORFEITURE TO THE CROWN UP TO THE DATE OF REGISTRATION WITH AN ABSOLUTE TITLE.
17367	0256	SUBJECT TO SUBSECTION 44 (1) OF THE LAND TITLES ACT, EXCEPT PARAGRAPHS 3 AND 14 AND PROVINCIAL SUCCESSION DUTIES AND EXCEPT PARAGRAPH 11 AND ESCHEATS OR FORFEITURE TO THE CROWN UP TO THE DATE OF REGISTRATION WITH AN ABSOLUTE TITLE.
17367	0257	SUBJECT TO SUBSECTION 44 (1) OF THE LAND TITLES ACT, EXCEPT PARAGRAPHS 3 AND 14 AND PROVINCIAL SUCCESSION DUTIES AND EXCEPT PARAGRAPH 11 AND ESCHEATS OR FORFEITURE TO THE CROWN UP TO THE DATE OF REGISTRATION WITH AN ABSOLUTE TITLE.
17367	0258	SUBJECT TO SUBSECTION 44 (1) OF THE LAND TITLES ACT, EXCEPT PARAGRAPHS 3 AND 14 AND PROVINCIAL SUCCESSION DUTIES AND EXCEPT PARAGRAPH 11 AND ESCHEATS OR FORFEITURE TO THE CROWN UP TO THE DATE OF REGISTRATION WITH AN ABSOLUTE TITLE.
17367	0259	SUBJECT TO SUBSECTION 44 (1) OF THE LAND TITLES ACT, EXCEPT PARAGRAPHS 3 AND 14 AND PROVINCIAL SUCCESSION DUTIES AND EXCEPT PARAGRAPH 11 AND ESCHEATS OR FORFEITURE TO THE CROWN UP TO THE DATE OF REGISTRATION WITH AN ABSOLUTE TITLE.
17367	0260	SUBJECT TO SUBSECTION 44 (1) OF THE LAND TITLES ACT, EXCEPT PARAGRAPHS 3 AND 14 AND PROVINCIAL SUCCESSION DUTIES AND EXCEPT PARAGRAPH 11 AND ESCHEATS OR FORFEITURE TO THE CROWN UP TO THE DATE OF REGISTRATION WITH AN ABSOLUTE TITLE.
17367	0261	SUBJECT TO SUBSECTION 44 (1) OF THE LAND TITLES ACT, EXCEPT PARAGRAPHS 3 AND 14 AND PROVINCIAL SUCCESSION DUTIES AND EXCEPT PARAGRAPH 11 AND ESCHEATS OR FORFEITURE TO THE CROWN UP TO THE DATE OF REGISTRATION WITH AN ABSOLUTE TITLE.
17367	0262	SUBJECT TO SUBSECTION 44 (1) OF THE LAND TITLES ACT, EXCEPT PARAGRAPHS 3 AND 14 AND PROVINCIAL SUCCESSION DUTIES AND EXCEPT PARAGRAPH 11 AND ESCHEATS OR FORFEITURE TO THE CROWN UP TO THE DATE OF REGISTRATION WITH AN ABSOLUTE TITLE.
17367	0263	SUBJECT TO SUBSECTION 44 (1) OF THE LAND TITLES ACT, EXCEPT PARAGRAPHS 3 AND 14 AND PROVINCIAL SUCCESSION DUTIES AND EXCEPT PARAGRAPH 11 AND ESCHEATS OR FORFEITURE TO THE CROWN UP TO THE DATE OF REGISTRATION WITH AN ABSOLUTE TITLE.
17367	0264	SUBJECT TO SUBSECTION 44 (1) OF THE LAND TITLES ACT, EXCEPT PARAGRAPHS 3 AND 14 AND PROVINCIAL SUCCESSION DUTIES AND EXCEPT PARAGRAPH 11 AND ESCHEATS OR FORFEITURE TO THE CROWN UP TO THE DATE OF REGISTRATION WITH AN ABSOLUTE TITLE.
17367	0265	SUBJECT TO SUBSECTION 44 (1) OF THE LAND TITLES ACT, EXCEPT PARAGRAPHS 3 AND 14 AND PROVINCIAL SUCCESSION DUTIES AND EXCEPT PARAGRAPH 11 AND ESCHEATS OR FORFEITURE TO THE CROWN UP TO THE DATE OF REGISTRATION WITH AN ABSOLUTE TITLE.
17367	0266	SUBJECT TO SUBSECTION 44 (1) OF THE LAND TITLES ACT, EXCEPT PARAGRAPHS 3 AND 14 AND PROVINCIAL SUCCESSION DUTIES AND EXCEPT PARAGRAPH 11 AND ESCHEATS OR FORFEITURE TO THE CROWN UP TO THE DATE OF REGISTRATION WITH AN ABSOLUTE TITLE.
17367	0267	SUBJECT TO SUBSECTION 44 (1) OF THE LAND TITLES ACT, EXCEPT PARAGRAPHS 3 AND 14 AND PROVINCIAL SUCCESSION DUTIES AND EXCEPT PARAGRAPH 11 AND ESCHEATS OR FORFEITURE TO THE CROWN UP TO THE DATE OF REGISTRATION WITH AN ABSOLUTE TITLE.
17367	0268	SUBJECT TO SUBSECTION 44 (1) OF THE LAND TITLES ACT, EXCEPT PARAGRAPHS 3 AND 14 AND PROVINCIAL SUCCESSION DUTIES AND EXCEPT PARAGRAPH 11 AND ESCHEATS OR FORFEITURE TO THE CROWN UP TO THE DATE OF REGISTRATION WITH AN ABSOLUTE TITLE.
17367	0269	SUBJECT TO SUBSECTION 44 (1) OF THE LAND TITLES ACT, EXCEPT PARAGRAPHS 3 AND 14 AND PROVINCIAL SUCCESSION DUTIES AND EXCEPT PARAGRAPH 11 AND ESCHEATS OR FORFEITURE TO THE CROWN UP TO THE DATE OF REGISTRATION WITH AN ABSOLUTE TITLE.
17367	0270	SUBJECT TO SUBSECTION 44 (1) OF THE LAND TITLES ACT, EXCEPT PARAGRAPHS 3 AND 14 AND PROVINCIAL SUCCESSION DUTIES AND EXCEPT PARAGRAPH 11 AND ESCHEATS OR FORFEITURE TO THE CROWN UP TO THE DATE OF REGISTRATION WITH AN ABSOLUTE TITLE.
17367	0271	SUBJECT TO SUBSECTION 44 (1) OF THE LAND TITLES ACT, EXCEPT PARAGRAPHS 3 AND 14 AND PROVINCIAL SUCCESSION DUTIES AND EXCEPT PARAGRAPH 11 AND ESCHEATS OR FORFEITURE TO THE CROWN UP TO THE DATE OF REGISTRATION WITH AN ABSOLUTE TITLE.
17367	0272	SUBJECT TO SUBSECTION 44 (1) OF THE LAND TITLES ACT, EXCEPT PARAGRAPHS 3 AND 14 AND PROVINCIAL SUCCESSION DUTIES AND EXCEPT PARAGRAPH 11 AND ESCHEATS OR FORFEITURE TO THE CROWN UP TO THE DATE OF REGISTRATION WITH AN ABSOLUTE TITLE.
17367	0273	SUBJECT TO SUBSECTION 44 (1) OF THE LAND TITLES ACT, EXCEPT PARAGRAPHS 3 AND 14 AND PROVINCIAL SUCCESSION DUTIES AND EXCEPT PARAGRAPH 11 AND ESCHEATS OR FORFEITURE TO THE CROWN UP TO THE DATE OF REGISTRATION WITH AN ABSOLUTE TITLE.
17367	0274	SUBJECT TO SUBSECTION 44 (1) OF THE LAND TITLES ACT, EXCEPT PARAGRAPHS 3 AND 14 AND PROVINCIAL SUCCESSION DUTIES AND EXCEPT PARAGRAPH 11 AND ESCHEATS OR FORFEITURE TO THE CROWN UP TO THE DATE OF REGISTRATION WITH AN ABSOLUTE TITLE.
17367	0275	SUBJECT TO SUBSECTION 44 (1) OF THE LAND TITLES ACT, EXCEPT PARAGRAPHS 3 AND 14 AND PROVINCIAL SUCCESSION DUTIES AND EXCEPT PARAGRAPH 11 AND ESCHEATS OR FORFEITURE TO THE CROWN UP TO THE DATE OF REGISTRATION WITH AN ABSOLUTE TITLE.
17367	0276	SUBJECT TO SUBSECTION 44 (1) OF THE LAND TITLES ACT, EXCEPT PARAGRAPHS 3 AND 14 AND PROVINCIAL SUCCESSION DUTIES AND EXCEPT PARAGRAPH 11 AND ESCHEATS OR FORFEITURE TO THE CROWN UP TO THE DATE OF REGISTRATION WITH AN ABSOLUTE TITLE.
17367	0277	SUBJECT TO SUBSECTION 44 (1) OF THE LAND TITLES ACT, EXCEPT PARAGRAPHS 3 AND 14 AND PROVINCIAL SUCCESSION DUTIES AND EXCEPT PARAGRAPH 11 AND ESCHEATS OR FORFEITURE TO THE CROWN UP TO THE DATE OF REGISTRATION WITH AN ABSOLUTE TITLE.
17367	0278	SUBJECT TO SUBSECTION 44 (1) OF THE LAND TITLES ACT, EXCEPT PARAGRAPHS 3 AND 14 AND PROVINCIAL SUCCESSION DUTIES AND EXCEPT PARAGRAPH 11 AND ESCHEATS OR FORFEITURE TO THE CROWN UP TO THE DATE OF REGISTRATION WITH AN ABSOLUTE TITLE.
17368	0158	SUBJECT TO SUBSECTION 44(1) OF THE LAND TITLES ACT, EXCEPT PARAGRAPHS 3 AND 14 THEREOF AND PROVINCIAL SUCCESSION DUTIES AND EXCEPT PARAGRAPH 11 AND ESCHEATS OR FORFEITURE TO THE CROWN UP TO THE DATE OF REGISTRATION WITH AN ABSOLUTE TITLE.
17368	0159	SUBJECT TO SUBSECTION 44(1) OF THE LAND TITLES ACT, EXCEPT PARAGRAPH 11, PARAGRAPH 14, PROVINCIAL SUCCESSION DUTIES AND ESCHEATS OR FORFEITURE TO THE CROWN UP TO THE DATE OF CONVERSION AND EXCEPT PARAGRAPH 3 AND PARAGRAPH 14 THEREAFTER.
17368	0160	SUBJECT TO SUBSECTION 44(1) OF THE LAND TITLES ACT, EXCEPT PARAGRAPH 11, PARAGRAPH 14, PROVINCIAL SUCCESSION DUTIES AND ESCHEATS OR FORFEITURE TO THE CROWN UP TO THE DATE OF CONVERSION AND EXCEPT PARAGRAPH 3 AND PARAGRAPH 14 THEREAFTER.
17368	0161	SUBJECT TO SUBSECTION 44(1) OF THE LAND TITLES ACT, EXCEPT PARAGRAPH 11, PARAGRAPH 14, PROVINCIAL SUCCESSION DUTIES AND ESCHEATS OR FORFEITURE TO THE CROWN UP TO THE DATE OF CONVERSION AND EXCEPT PARAGRAPH 3 AND PARAGRAPH 14 THEREAFTER.
17368	0162	SUBJECT TO SUBSECTION 44(1) OF THE LAND TITLES ACT, EXCEPT PARAGRAPH 11, PARAGRAPH 14, PROVINCIAL SUCCESSION DUTIES AND ESCHEATS OR FORFEITURE TO THE CROWN UP TO THE DATE OF CONVERSION AND EXCEPT PARAGRAPH 3 AND PARAGRAPH 14 THEREAFTER.
17368	0163	SUBJECT TO SUBSECTION 44(1) OF THE LAND TITLES ACT, EXCEPT PARAGRAPH 11, PARAGRAPH 14, PROVINCIAL SUCCESSION DUTIES AND ESCHEATS OR FORFEITURE TO THE CROWN UP TO THE DATE OF CONVERSION AND EXCEPT PARAGRAPH 3 AND PARAGRAPH 14 THEREAFTER.
17368	0164	SUBJECT TO SUBSECTION 44(1) OF THE LAND TITLES ACT, EXCEPT PARAGRAPH 11, PARAGRAPH 14, PROVINCIAL SUCCESSION DUTIES AND ESCHEATS OR FORFEITURE TO THE CROWN UP TO THE DATE OF CONVERSION AND EXCEPT PARAGRAPH 3 AND PARAGRAPH 14 THEREAFTER.
17368	0165	SUBJECT TO SUBSECTION 44(1) OF THE LAND TITLES ACT, EXCEPT PARAGRAPH 11, PARAGRAPH 14, PROVINCIAL SUCCESSION DUTIES AND ESCHEATS OR FORFEITURE TO THE CROWN UP TO THE DATE OF CONVERSION AND EXCEPT PARAGRAPH 3 AND PARAGRAPH 14 THEREAFTER.
17368	0166	SUBJECT TO SUBSECTION 44(1) OF THE LAND TITLES ACT, EXCEPT PARAGRAPH 11, PARAGRAPH 14, PROVINCIAL SUCCESSION DUTIES AND ESCHEATS OR FORFEITURE TO THE CROWN UP TO THE DATE OF CONVERSION AND EXCEPT PARAGRAPH 3 AND PARAGRAPH 14 THEREAFTER.
17368	0167	SUBJECT TO SUBSECTION 44(1) OF THE LAND TITLES ACT, EXCEPT PARAGRAPH 11, PARAGRAPH 14, PROVINCIAL SUCCESSION DUTIES AND ESCHEATS OR FORFEITURE TO THE CROWN UP TO THE DATE OF CONVERSION AND EXCEPT PARAGRAPH 3 AND PARAGRAPH 14 THEREAFTER.
17368	0168	SUBJECT TO SUBSECTION 44(1) OF THE LAND TITLES ACT, EXCEPT PARAGRAPH 11, PARAGRAPH 14, PROVINCIAL SUCCESSION DUTIES AND ESCHEATS OR FORFEITURE TO THE CROWN UP TO THE DATE OF CONVERSION AND EXCEPT PARAGRAPH 3 AND PARAGRAPH 14 THEREAFTER.
17368	0169	SUBJECT TO SUBSECTION 44(1) OF THE LAND TITLES ACT, EXCEPT PARAGRAPH 11, PARAGRAPH 14, PROVINCIAL SUCCESSION DUTIES AND ESCHEATS OR FORFEITURE TO THE CROWN UP TO THE DATE OF CONVERSION AND EXCEPT PARAGRAPH 3 AND PARAGRAPH 14 THEREAFTER.
17368	0170	SUBJECT TO SUBSECTION 44(1) OF THE LAND TITLES ACT, EXCEPT PARAGRAPH 11, PARAGRAPH 14, PROVINCIAL SUCCESSION DUTIES AND ESCHEATS OR FORFEITURE TO THE CROWN UP TO THE DATE OF CONVERSION AND EXCEPT PARAGRAPH 3 AND PARAGRAPH 14 THEREAFTER.
17368	0171	SUBJECT TO SUBSECTION 44(1) OF THE LAND TITLES ACT, EXCEPT PARAGRAPH 11, PARAGRAPH 14, PROVINCIAL SUCCESSION DUTIES AND ESCHEATS OR FORFEITURE TO THE CROWN UP TO THE DATE OF CONVERSION AND EXCEPT PARAGRAPH 3 AND PARAGRAPH 14 THEREAFTER.
17368	0172	SUBJECT TO SUBSECTION 44(1) OF THE LAND TITLES ACT, EXCEPT PARAGRAPH 11, PARAGRAPH 14, PROVINCIAL SUCCESSION DUTIES AND ESCHEATS OR FORFEITURE TO THE CROWN UP TO THE DATE OF CONVERSION AND EXCEPT PARAGRAPH 3 AND PARAGRAPH 14 THEREAFTER.
17368	0173	SUBJECT TO SUBSECTION 44(1) OF THE LAND TITLES ACT, EXCEPT PARAGRAPH 11, PARAGRAPH 14, PROVINCIAL SUCCESSION DUTIES AND ESCHEATS OR FORFEITURE TO THE CROWN UP TO THE DATE OF CONVERSION AND EXCEPT PARAGRAPH 3 AND PARAGRAPH 14 THEREAFTER.
17368	0174	SUBJECT TO SUBSECTION 44(1) OF THE LAND TITLES ACT, EXCEPT PARAGRAPH 11, PARAGRAPH 14, PROVINCIAL SUCCESSION DUTIES AND ESCHEATS OR FORFEITURE TO THE CROWN UP TO THE DATE OF CONVERSION AND EXCEPT PARAGRAPH 3 AND PARAGRAPH 14 THEREAFTER.
17368	0175	SUBJECT TO SUBSECTION 44(1) OF THE LAND TITLES ACT, EXCEPT PARAGRAPH 11, PARAGRAPH 14, PROVINCIAL SUCCESSION DUTIES AND ESCHEATS OR FORFEITURE TO THE CROWN UP TO THE DATE OF CONVERSION AND EXCEPT PARAGRAPH 3 AND PARAGRAPH 14 THEREAFTER.
17368	0176	SUBJECT TO SUBSECTION 44(1) OF THE LAND TITLES ACT, EXCEPT PARAGRAPH 11, PARAGRAPH 14, PROVINCIAL SUCCESSION DUTIES AND ESCHEATS OR FORFEITURE TO THE CROWN UP TO THE DATE OF CONVERSION AND EXCEPT PARAGRAPH 3 AND PARAGRAPH 14 THEREAFTER.
17368	0177	SUBJECT TO SUBSECTION 44(1) OF THE LAND TITLES ACT, EXCEPT PARAGRAPH 11, PARAGRAPH 14, PROVINCIAL SUCCESSION DUTIES AND ESCHEATS OR FORFEITURE TO THE CROWN UP TO THE DATE OF CONVERSION AND EXCEPT PARAGRAPH 3 AND PARAGRAPH 14 THEREAFTER.
17368	0178	SUBJECT TO SUBSECTION 44(1) OF THE LAND TITLES ACT, EXCEPT PARAGRAPH 11, PARAGRAPH 14, PROVINCIAL SUCCESSION DUTIES AND ESCHEATS OR FORFEITURE TO THE CROWN UP TO THE DATE OF CONVERSION AND EXCEPT PARAGRAPH 3 AND PARAGRAPH 14 THEREAFTER.
17368	0179	SUBJECT TO SUBSECTION 44(1) OF THE LAND TITLES ACT, EXCEPT PARAGRAPH 11, PARAGRAPH 14, PROVINCIAL SUCCESSION DUTIES AND ESCHEATS OR FORFEITURE TO THE CROWN UP TO THE DATE OF CONVERSION AND EXCEPT PARAGRAPH 3 AND PARAGRAPH 14 THEREAFTER.
17368	0180	SUBJECT TO SUBSECTION 44(1) OF THE LAND TITLES ACT, EXCEPT PARAGRAPH 11, PARAGRAPH 14, PROVINCIAL SUCCESSION DUTIES AND ESCHEATS OR FORFEITURE TO THE CROWN UP TO THE DATE OF CONVERSION AND EXCEPT PARAGRAPH 3 AND PARAGRAPH 14 THEREAFTER.
17368	0183	SUBJECT TO SUBSECTION 44(1) OF THE LAND TITLES ACT, EXCEPT PARAGRAPH 11, PARAGRAPH 14, PROVINCIAL SUCCESSION DUTIES AND ESCHEATS OR FORFEITURE TO THE CROWN UP TO THE DATE OF CONVERSION AND EXCEPT PARAGRAPH 3 AND PARAGRAPH 14 THEREAFTER.
17368	0186	SUBJECT TO SUBSECTION 44(1) OF THE LAND TITLES ACT, EXCEPT PARAGRAPH 11, PARAGRAPH 14, PROVINCIAL SUCCESSION DUTIES AND ESCHEATS OR FORFEITURE TO THE CROWN UP TO THE DATE OF CONVERSION AND EXCEPT PARAGRAPH 3 AND PARAGRAPH 14 THEREAFTER.
17368	0194	SUBJECT TO SUBSECTION 44(1) OF THE LAND TITLES ACT, EXCEPT PARAGRAPH 11, PARAGRAPH 14, PROVINCIAL SUCCESSION DUTIES AND ESCHEATS OR FORFEITURE TO THE CROWN UP TO THE DATE OF CONVERSION AND EXCEPT PARAGRAPH 3 AND PARAGRAPH 14 THEREAFTER.
17368	0195	SUBJECT TO SUBSECTION 44(1) OF THE LAND TITLES ACT, EXCEPT PARAGRAPH 11, PARAGRAPH 14, PROVINCIAL SUCCESSION DUTIES AND ESCHEATS OR FORFEITURE TO THE CROWN UP TO THE DATE OF CONVERSION AND EXCEPT PARAGRAPH 3 AND PARAGRAPH 14 THEREAFTER.
17368	0196	SUBJECT TO SUBSECTION 44(1) OF THE LAND TITLES ACT, EXCEPT PARAGRAPH 11, PARAGRAPH 14, PROVINCIAL SUCCESSION DUTIES AND ESCHEATS OR FORFEITURE TO THE CROWN UP TO THE DATE OF CONVERSION AND EXCEPT PARAGRAPH 3 AND PARAGRAPH 14 THEREAFTER.
17368	0198	SUBJECT TO SUBSECTION 44(1) OF THE LAND TITLES ACT, EXCEPT PARAGRAPH 11, PARAGRAPH 14, PROVINCIAL SUCCESSION DUTIES AND ESCHEATS OR FORFEITURE TO THE CROWN UP TO THE DATE OF CONVERSION AND EXCEPT PARAGRAPH 3 AND PARAGRAPH 14 THEREAFTER.
17368	0199	SUBJECT TO SUBSECTION 44(1) OF THE LAND TITLES ACT, EXCEPT PARAGRAPH 11, PARAGRAPH 14, PROVINCIAL SUCCESSION DUTIES AND ESCHEATS OR FORFEITURE TO THE CROWN UP TO THE DATE OF CONVERSION AND EXCEPT PARAGRAPH 3 AND PARAGRAPH 14 THEREAFTER.
17368	0200	SUBJECT TO SUBSECTION 44(1) OF THE LAND TITLES ACT, EXCEPT PARAGRAPH 11, PARAGRAPH 14, PROVINCIAL SUCCESSION DUTIES AND ESCHEATS OR FORFEITURE TO THE CROWN UP TO THE DATE OF CONVERSION AND EXCEPT PARAGRAPH 3 AND PARAGRAPH 14 THEREAFTER.
17368	0202	SUBJECT TO SUBSECTION 44(1) OF THE LAND TITLES ACT, EXCEPT PARAGRAPH 11, PARAGRAPH 14, PROVINCIAL SUCCESSION DUTIES AND ESCHEATS OR FORFEITURE TO THE CROWN UP TO THE DATE OF CONVERSION AND EXCEPT PARAGRAPH 3 AND PARAGRAPH 14 THEREAFTER.
17368	0218	SUBJECT TO SUBSECTION 44(1) OF THE LAND TITLES ACT, EXCEPT PARAGRAPH 11, PARAGRAPH 14, PROVINCIAL SUCCESSION DUTIES AND ESCHEATS OR FORFEITURE TO THE CROWN UP TO THE DATE OF CONVERSION AND EXCEPT PARAGRAPH 3 AND PARAGRAPH 14 THEREAFTER.
17368	0221	SUBJECT TO SUBSECTION 44(1) OF THE LAND TITLES ACT, EXCEPT PARAGRAPH 11, PARAGRAPH 14, PROVINCIAL SUCCESSION DUTIES AND ESCHEATS OR FORFEITURE TO THE CROWN UP TO THE DATE OF CONVERSION AND EXCEPT PARAGRAPH 3 AND PARAGRAPH 14 THEREAFTER.
17368	0242	SUBJECT TO SUBSECTION 44(1) OF THE LAND TITLES ACT, EXCEPT PARAGRAPH 11, PARAGRAPH 14, PROVINCIAL SUCCESSION DUTIES AND ESCHEATS OR FORFEITURE TO THE CROWN UP TO THE DATE OF CONVERSION AND EXCEPT PARAGRAPH 3 AND PARAGRAPH 14 THEREAFTER.
17368	0248	SUBJECT TO SUBSECTION 44(1) OF THE LAND TITLES ACT, EXCEPT PARAGRAPH 11, PARAGRAPH 14, PROVINCIAL SUCCESSION DUTIES AND ESCHEATS OR FORFEITURE TO THE CROWN UP TO THE DATE OF CONVERSION AND EXCEPT PARAGRAPH 3 AND PARAGRAPH 14 THEREAFTER.
17368	0254	SUBJECT TO SUBSECTION 44(1) OF THE LAND TITLES ACT, EXCEPT PARAGRAPH 11, PARAGRAPH 14, PROVINCIAL SUCCESSION DUTIES AND ESCHEATS OR FORFEITURE TO THE CROWN UP TO THE DATE OF CONVERSION AND EXCEPT PARAGRAPH 3 AND PARAGRAPH 14 THEREAFTER.
17368	0256	SUBJECT TO SUBSECTION 44(1) OF THE LAND TITLES ACT, EXCEPT PARAGRAPH 11, PARAGRAPH 14, PROVINCIAL SUCCESSION DUTIES AND ESCHEATS OR FORFEITURE TO THE CROWN UP TO THE DATE OF CONVERSION AND EXCEPT PARAGRAPH 3 AND PARAGRAPH 14 THEREAFTER.
17368	0262	SUBJECT TO SUBSECTION 44(1) OF THE LAND TITLES ACT, EXCEPT PARAGRAPH 11, PARAGRAPH 14, PROVINCIAL SUCCESSION DUTIES AND ESCHEATS OR FORFEITURE TO THE CROWN UP TO THE DATE OF CONVERSION AND EXCEPT PARAGRAPH 3 AND PARAGRAPH 14 THEREAFTER.
17368	0265	SUBJECT TO SUBSECTION 44(1) OF THE LAND TITLES ACT, EXCEPT PARAGRAPH 11, PARAGRAPH 14, PROVINCIAL SUCCESSION DUTIES AND ESCHEATS OR FORFEITURE TO THE CROWN UP TO THE DATE OF CONVERSION AND EXCEPT PARAGRAPH 3 AND PARAGRAPH 14 THEREAFTER.
17368	0270	SUBJECT TO SUBSECTION 44(1) OF THE LAND TITLES ACT, EXCEPT PARAGRAPH 11, PARAGRAPH 14, PROVINCIAL SUCCESSION DUTIES AND ESCHEATS OR FORFEITURE TO THE CROWN UP TO THE DATE OF CONVERSION AND EXCEPT PARAGRAPH 3 AND PARAGRAPH 14 THEREAFTER.
17368	0280	SUBJECT TO SUBSECTION 44(1) OF THE LAND TITLES ACT, EXCEPT PARAGRAPH 11, PARAGRAPH 14, PROVINCIAL SUCCESSION DUTIES AND ESCHEATS OR FORFEITURE TO THE CROWN UP TO THE DATE OF CONVERSION BEING 1996/07/22, AND EXCEPT PARAGRAPH 3 AND PARAGRAPH 14 THEREAFTER.
17368	0291	SUBJECT TO SUBSECTION 44(1) OF THE LAND TITLES ACT, EXCEPT PARAGRAPH 11, PARAGRAPH 14, PROVINCIAL SUCCESSION DUTIES AND ESCHEATS OR FORFEITURE TO THE CROWN UP TO THE DATE OF CONVERSION BEING 1996/07/22, AND EXCEPT PARAGRAPH 3 AND PARAGRAPH 14 THEREAFTER.
17368	0294	SUBJECT TO SUBSECTION 44(1) OF THE LAND TITLES ACT, EXCEPT PARAGRAPH 11, PARAGRAPH 14, PROVINCIAL SUCCESSION DUTIES AND ESCHEATS OR FORFEITURE TO THE CROWN UP TO THE DATE OF CONVERSION BEING 1996/07/22, AND EXCEPT PARAGRAPH 3 AND PARAGRAPH 14 THEREAFTER.
17368	0295	SUBJECT TO SUBSECTION 44(1) OF THE LAND TITLES ACT, EXCEPT PARAGRAPH 11, PARAGRAPH 14, PROVINCIAL SUCCESSION DUTIES AND ESCHEATS OR FORFEITURE TO THE CROWN UP TO THE DATE OF CONVERSION BEING 1996/07/22, AND EXCEPT PARAGRAPH 3 AND PARAGRAPH 14 THEREAFTER.
17368	0296	SUBJECT TO SUBSECTION 44(1) OF THE LAND TITLES ACT, EXCEPT PARAGRAPH 11, PARAGRAPH 14, PROVINCIAL SUCCESSION DUTIES AND ESCHEATS OR FORFEITURE TO THE CROWN UP TO THE DATE OF CONVERSION BEING 1996/07/22, AND EXCEPT PARAGRAPH 3 AND PARAGRAPH 14 THEREAFTER.
17368	0297	THE FOLLOWING REMARK HAS BEEN ADDED ON 2006/05/01 AT 13:07 BY CRISSY DELDUCA : SUBJECT TO SUBSECTION 44(1) OF THE LAND TITLES ACT, EXCEPT PARAGRAPH 11, PARAGRAPH 14, PROVINCIAL SUCCESSION DUTIES AND ESCHEATS OR FORFEITURE TO THE CROWN UP TO THE DATE OF CO
17368	0298	THE FOLLOWING REMARK HAS BEEN ADDED ON 2006/05/01 AT 13:05 BY CRISSY DELDUCA : SUBJECT TO SUBSECTION 44(1) OF THE LAND TITLES ACT, EXCEPT PARAGRAPH 11, PARAGRAPH 14, PROVINCIAL SUCCESSION DUTIES AND ESCHEATS OR FORFEITURE TO THE CROWN UP TO THE DATE OF CO
17368	0383	SUBJECT TO SUBSECTION 44(1) OF THE LAND TITLES ACT, EXCEPT PARAGRAPH 11, PARAGRAPH 14, PROVINCIAL SUCCESSION DUTIES AND ESCHEATS OR FORFEITURE TO THE CROWN UP TO THE DATE OF CONVERSION BEING 1996/07/22, AND EXCEPT PARAGRAPH 3 AND PARAGRAPH 14 THEREAFTER.
17368	0384	SUBJECT TO SUBSECTION 44(1) OF THE LAND TITLES ACT, EXCEPT PARAGRAPH 11, PARAGRAPH 14, PROVINCIAL SUCCESSION DUTIES AND ESCHEATS OF FORFEITURE TO THE CROWN UP TO THE DATE OF CONVERSION BEING 1996/07/22, AND EXCEPT PARAGRAPH 3 AND PARAGRAPH 14 THEREAFTER.
17368	0393	SUBJECT TO SUBSECTION 44 (1) OF THE LAND TITLES ACT, EXCEPT PARAGRAPH 11, PARAGRAPH 14, PROVINCIAL SUCCESSION DUTIES AND ESCHEATS OR FORFEITURE TO THE CROWN UP TO THE DATE OF CONVERSION BEING 1996/07/22 AND EXCEPT PARAGRAPH 3 AND PARAGRAPH 14 THEREAFTER.
17368	0394	SUBJECT TO SUBSECTION 44 (1) OF THE LAND TITLES ACT, EXCEPT PARAGRAPH 11, PARAGRAPH 14, PROVINCIAL SUCCESSION DUTIES AND ESCHEATS OR FORFEITURE TO THE CROWN UP TO THE DATE OF CONVERSION BEING 1996/07/22 AND EXCEPT PARAGRAPH 3 AND PARAGRAPH 14 THEREAFTER.
17369	0226	CORRECTION: INSTRUMENT NUMBER LT537432 WAS OMITTED FROM THIS PROPERTY IN ERROR AND WAS ADDED AND CERTIFIED ON 1999/01/26 BY BELLE FIAMELLI.
17369	0232	CORRECTION: INSTRUMENT NUMBER LT537432 WAS OMITTED FROM THIS PROPERTY IN ERROR AND WAS ADDED AND CERTIFIED ON 1999/01/26 BY BELLE FIAMELLI.
17369	0233	CORRECTION: INSTRUMENT NUMBER LT537432 WAS OMITTED FROM THIS PROPERTY IN ERROR AND WAS ADDED AND CERTIFIED ON 1999/01/26 BY BELLE FIAMELLI.
17369	0234	CORRECTION: INSTRUMENT NUMBER LT537432 WAS OMITTED FROM THIS PROPERTY IN ERROR AND WAS ADDED AND CERTIFIED ON 1999/01/26 BY BELLE FIAMELLI.
17369	0235	CORRECTION: INSTRUMENT NUMBER LT537432 WAS OMITTED FROM THIS PROPERTY IN ERROR AND WAS ADDED AND CERTIFIED ON 1999/01/26 BY BELLE FIAMELLI.
17369	0236	CORRECTION: INSTRUMENT NUMBER LT537432 WAS OMITTED FROM THIS PROPERTY IN ERROR AND WAS ADDED AND CERTIFIED ON 1999/01/26 BY BELLE FIAMELLI.
17369	0250	CORRECTION: INSTRUMENT NUMBER LT347707 WAS OMITTED FROM THIS PROPERTY IN ERROR AND WAS ADDED AND CERTIFIED ON 1999/01/12 BY BELLE FIAMELLI. CORRECTION: INSTRUMENT NUMBER LT385169 WAS OMITTED FROM THIS PROPERTY IN ERROR AND WAS ADDED AND CERTIFIED ON 1999/
17369	0257	CORRECTION: INSTRUMENT NUMBER BL1738 WAS OMITTED FROM THIS PROPERTY IN ERROR AND WAS ADDED AND CERTIFIED ON 1998/04/28 BY BELLE FIAMELLI.
17369	0306	CORRECTION: INSTRUMENT NUMBER HL154704 WAS ENTERED IN ERROR AGAINST THIS PROPERTY AND WAS REMOVED AND CERTIFIED ON 2002/06/07 BY BELLE FIAMELLI. CORRECTION: INSTRUMENT NUMBER HL160341 WAS ENTERED IN ERROR AGAINST THIS PROPERTY AND WAS REMOVED AND CERTIFIE
17369	0307	CORRECTION: INSTRUMENT NUMBER HL160341 WAS ENTERED IN ERROR AGAINST THIS PROPERTY AND WAS REMOVED AND CERTIFIED ON 2002/06/07 BY BELLE FIAMELLI.
17370	0035	CORRECTION: INSTRUMENT NUMBER 62R14405 WAS OMITTED FROM THIS PROPERTY IN ERROR AND WAS ADDED AND CERTIFIED ON 1998/04/03 BY BELLE FIAMELLI.
17370	0084	CORRECTION: INSTRUMENT NUMBER 62R14405 WAS OMITTED FROM THIS PROPERTY IN ERROR AND WAS ADDED AND CERTIFIED ON 1998/04/03 BY BELLE FIAMELLI.
17370	0086	CORRECTION: INSTRUMENT NUMBER 62R14405 WAS OMITTED FROM THIS PROPERTY IN ERROR AND WAS ADDED AND CERTIFIED ON 1998 04 03 BY BELLE FIAMELLI.
17370	0103	SUBJECT TO SUBSECTION 44(1) OF THE LAND TITLES ACT, EXCEPT PARAGRAPH 11, PARAGRAPH 14, PROVINCIAL SUCCESSION DUTIES AND ESCHEATS OR FORFEITURE TO THE CROWN, UP TO THE DATE OF CONVERSION, EXCEPT PARAGRAPH 3 AND PARAGRAPH 14 THEREAFTER.
17370	0111	SUBJECT TO SUBSECTION 44(1) OF THE LAND TITLES ACT, EXCEPT PARAGRAPH 11, PARAGRAPH 14, PROVINCIAL SUCCESSION DUTIES AND ESCHEATS OR FORFEITURE TO THE CROWN, UP TO THE DATE OF CONVERSION, EXCEPT PARAGRAPH 3 AND PARAGRAPH 14 THEREAFTER.
17370	0225	CORRECTION: INSTRUMENT NUMBER WE87393 WAS ENTERED IN ERROR AGAINST THIS PROPERTY AND WAS REMOVED AND CERTIFIED ON 2003/02/10 BY DEBBIE SARKANY.
17370	0280	CORRECTION: INSTRUMENT NUMBER WE62241 WAS ENTERED IN ERROR AGAINST THIS PROPERTY AND WAS REMOVED AND CERTIFIED ON 2002/03/01 BY DORRIE MORLEY.
17370	0281	CORRECTION: INSTRUMENT NUMBER WE62241 WAS ENTERED IN ERROR AGAINST THIS PROPERTY AND WAS REMOVED AND CERTIFIED ON 2002/03/01 BY DORRIE MORLEY.
17370	0282	CORRECTION: INSTRUMENT NUMBER WE62241 WAS ENTERED IN ERROR AGAINST THIS PROPERTY AND WAS REMOVED AND CERTIFIED ON 2002/03/01 BY DORRIE MORLEY.
17370	0283	CORRECTION: INSTRUMENT NUMBER WE62241 WAS ENTERED IN ERROR AGAINST THIS PROPERTY AND WAS REMOVED AND CERTIFIED ON 2002/03/01 BY DORRIE MORLEY.
17370	0284	CORRECTION: INSTRUMENT NUMBER WE62241 WAS ENTERED IN ERROR AGAINST THIS PROPERTY AND WAS REMOVED AND CERTIFIED ON 2002/03/01 BY DORRIE MORLEY.
17370	0285	CORRECTION: INSTRUMENT NUMBER WE62241 WAS ENTERED IN ERROR AGAINST THIS PROPERTY AND WAS REMOVED AND CERTIFIED ON 2002/03/01 BY DORRIE MORLEY.
17370	0286	CORRECTION: INSTRUMENT NUMBER WE62241 WAS ENTERED IN ERROR AGAINST THIS PROPERTY AND WAS REMOVED AND CERTIFIED ON 2002/03/01 BY DORRIE MORLEY.
17370	0287	CORRECTION: INSTRUMENT NUMBER WE62241 WAS ENTERED IN ERROR AGAINST THIS PROPERTY AND WAS REMOVED AND CERTIFIED ON 2002/03/01 BY DORRIE MORLEY.
17370	0356	CORRECTION: INSTRUMENT NUMBER VM106640 WAS ENTERED IN ERROR AGAINST THIS PROPERTY AND WAS REMOVED AND CERTIFIED ON 2005/04/08 BY ANNETTE VAN DUYN.
17370	0357	CORRECTION: INSTRUMENT NUMBER VM106640 WAS ENTERED IN ERROR AGAINST THIS PROPERTY AND WAS REMOVED AND CERTIFIED ON 2005/04/08 BY ANNETTE VAN DUYN.
17370	0362	CORRECTION: INSTRUMENT NUMBER WE87393 WAS OMITTED FROM THIS PROPERTY IN ERROR AND WAS ADDED AND CERTIFIED ON 2003/02/10 BY DEBBIE SARKANY.
17370	0630	THE FOLLOWING REMARK HAS BEEN ADDED ON 2004/07/15 AT 09:08 BY CHRISTINE HOARAN : FOR ADDITIONAL ENCUMBRANCES THE PIN FOR WENTWORTH COMMON ELEMENTS CONDOMINIUM PLAN NO. 372 IN BLOCK 18372 MUST BE EXAMINED.
17370	0631	THE FOLLOWING REMARK HAS BEEN ADDED ON 2004/07/15 AT 09:10 BY CHRISTINE HOARAN : FOR ADDITIONAL ENCUMBRANCES THE PIN FOR WENTWORTH COMMON ELEMENTS CONDOMINIUM PLAN NO. 372 IN BLOCK 18372 MUST BE EXAMINED.
17370	0632	THE FOLLOWING REMARK HAS BEEN ADDED ON 2004/07/15 AT 09:12 BY CHRISTINE HOARAN : FOR ADDITIONAL ENCUMBRANCES THE PIN FOR WENTWORTH COMMON ELEMENTS CONDOMINIUM PLAN NO. 372 IN BLOCK 18372 MUST BE EXAMINED.
17370	0633	THE FOLLOWING REMARK HAS BEEN ADDED ON 2004/07/15 AT 09:14 BY CHRISTINE HOARAN : FOR ADDITIONAL ENCUMBRANCES THE PIN FOR WENTWORTH COMMON ELEMENTS CONDOMINIUM PLAN NO. 372 IN BLOCK 18372 MUST BE EXAMINED.
17370	0634	THE FOLLOWING REMARK HAS BEEN ADDED ON 2004/07/15 AT 09:15 BY CHRISTINE HOARAN : FOR ADDITIONAL ENCUMBRANCES THE PIN FOR WENTWORTH COMMON ELEMENTS CONDOMINIUM PLAN NO. 372 IN BLOCK 18372 MUST BE EXAMINED.
17370	0635	THE FOLLOWING REMARK HAS BEEN ADDED ON 2004/07/15 AT 09:17 BY CHRISTINE HOARAN : FOR ADDITIONAL ENCUMBRANCES THE PIN FOR WENTWORTH COMMON ELEMENTS CONDOMINIUM PLAN NO. 372 IN BLOCK 18372 MUST BE EXAMINED.
17370	0636	THE FOLLOWING REMARK HAS BEEN ADDED ON 2004/07/15 AT 09:19 BY CHRISTINE HOARAN : FOR ADDITIONAL ENCUMBRANCES THE PIN FOR WENTWORTH COMMON ELEMENTS CONDOMINIUM PLAN NO. 372 IN BLOCK 18372 MUST BE EXAMINED.
17370	0638	THE FOLLOWING REMARK HAS BEEN ADDED ON 2004/07/13 AT 10:33 BY CHRISTINE HOARAN : FOR ADDTIONAL ENCUMBRANCES THE PIN FOR WENTWORTH COMMON ELEMENTS CONDOMINIUM PLAN NO. 371 IN BLOCK 18371 MUST BE EXAMINED.
17370	0639	THE FOLLOWING REMARK HAS BEEN ADDED ON 2004/07/13 AT 10:40 BY CHRISTINE HOARAN : FOR ADDITIONAL ENCUMBRANCES THE PIN FOR WENTWORTH COMMON ELEMENTS CONDOMINIUM PLAN NO. 371 IN BLOCK 18371 MUST BE EXAMINED.
17370	0640	THE FOLLOWING REMARK HAS BEEN ADDED ON 2004/07/13 AT 10:46 BY CHRISTINE HOARAN : FOR ADDITIONAL ENCUMBRANCES THE PIN FOR WENTWORTH COMMON ELEMENTS CONDOMINIUM PLAN NO. 371 IN BLOCK 18371 MUST BE EXAMINED. THE FOLLOWING REMARK HAS BEEN ADDED ON 2004/07/13
17370	0641	THE FOLLOWING REMARK HAS BEEN ADDED ON 2004/07/13 AT 11:04 BY CHRISTINE HOARAN : FOR ADDITIONAL ENCUMBRANCES THE PIN FOR WENTWORTH COMMON ELEMENTS CONDOMINIUM PLAN NO. 371 IN BLOCK 18371 MUST BE EXAMINED.
17370	0642	THE FOLLOWING REMARK HAS BEEN ADDED ON 2004/07/13 AT 11:07 BY CHRISTINE HOARAN : FOR ADDITIONAL ENCUMBRANCES THE PIN FOR WENTWORTH COMMON ELEMENTS CONDOMINIUM PLAN NO. 371 IN BLOCK 18371 MUST BE EXAMINED.
17370	0643	THE FOLLOWING REMARK HAS BEEN ADDED ON 2004/07/13 AT 11:08 BY CHRISTINE HOARAN : FOR ADDITIONAL ENCUMBRANCES THE PIN FOR WENTWORTH COMMON ELEMENTS CONDOMINIUM PLAN NO. 371 IN BLOCK 18371 MUST BE EXAMINED.
17370	0644	THE FOLLOWING REMARK HAS BEEN ADDED ON 2004/07/13 AT 11:12 BY CHRISTINE HOARAN : FOR ADDITIONAL ENCUMBRANCES THE PIN FOR WENTWORTH COMMON ELEMENTS CONDOMINIUM PLAN NO. 371 IN BLOCK 18371 MUST BE EXAMINED.
17370	0663	THE FOLLOWING REMARK HAS BEEN ADDED ON 2005/10/31 AT 10:02 BY CHRISTINE HOARAN : "FOR ADDITIONAL ENCUMBRANCES THE PIN FOR WENTWORTH COMMON ELEMENTS CONDOMINIUM PLAN NO. 392 IN BLOCK 18392 MUST BE EXAMINED.".
17370	0664	THE FOLLOWING REMARK HAS BEEN ADDED ON 2005/10/31 AT 10:03 BY CHRISTINE HOARAN : "FOR ADDITIONAL ENCUMBRANCES THE PIN FOR WENTWORTH COMMON ELEMENTS CONDOMINIUM PLAN NO. 392 IN BLOCK 18392 MUST BE EXAMINED.".
17370	0665	THE FOLLOWING REMARK HAS BEEN ADDED ON 2005/10/31 AT 10:04 BY CHRISTINE HOARAN : "FOR ADDITIONAL ENCUMBRANCES THE PIN FOR WENTWORTH COMMON ELEMENTS CONDOMINIUM PLAN NO. 392 IN BLOCK 18392 MUST BE EXAMINED.".
17370	0666	THE FOLLOWING REMARK HAS BEEN ADDED ON 2005/10/31 AT 10:05 BY CHRISTINE HOARAN : "FOR ADDITIONAL ENCUMBRANCES THE PIN FOR WENTWORTH COMMON ELEMENTS CONDOMINIUM PLAN NO. 392 IN BLOCK 18392 MUST BE EXAMINED.".
17370	0667	THE FOLLOWING REMARK HAS BEEN ADDED ON 2005/10/31 AT 10:05 BY CHRISTINE HOARAN : "FOR ADDITIONAL ENCUMBRANCES THE PIN FOR WENTWORTH COMMON ELEMENTS CONDOMINIUM PLAN NO. 392 IN BLOCK 18392 MUST BE EXAMINED.".
17370	0668	THE FOLLOWING REMARK HAS BEEN ADDED ON 2005/10/31 AT 10:06 BY CHRISTINE HOARAN : "FOR ADDITIONAL ENCUMBRANCES THE PIN FOR WENTWORTH COMMON ELEMENTS CONDOMINIUM PLAN NO. 392 IN BLOCK 18392 MUST BE EXAMINED.".
17370	0669	THE FOLLOWING REMARK HAS BEEN ADDED ON 2005/10/31 AT 10:07 BY CHRISTINE HOARAN : "FOR ADDITIONAL ENCUMBRANCES THE PIN FOR WENTWORTH COMMON ELEMENTS CONDOMINIUM PLAN NO. 392 IN BLOCK 18392 MUST BE EXAMINED.".
17370	0671	THE FOLLOWING REMARK HAS BEEN ADDED ON 2005/10/31 AT 11:05 BY CHRISTINE HOARAN : "FOR ADDITIONAL ENCUMBRANCES THE PIN FOR WENTWORTH COMMON ELEMENTS CONDOMINIUM PLAN NO. 393 IN BLOCK 18393 MUST BE EXAMINED.".
17370	0672	THE FOLLOWING REMARK HAS BEEN ADDED ON 2005/10/31 AT 11:23 BY CHRISTINE HOARAN : "FOR ADDITIONAL ENCUMBRANCES THE PIN FOR WENTWORTH COMMON ELEMENTS CONDOMINIUM PLAN NO. 393 IN BLOCK 18393 MUST BE EXAMINED.".
17370	0673	THE FOLLOWING REMARK HAS BEEN ADDED ON 2005/10/31 AT 11:24 BY CHRISTINE HOARAN : "FOR ADDITIONAL ENCUMBRANCES THE PIN FOR WENTWORTH COMMON ELEMENTS CONDOMINIUM PLAN NO. 393 IN BLOCK 18393 MUST BE EXAMINED.".
17370	0674	THE FOLLOWING REMARK HAS BEEN ADDED ON 2005/10/31 AT 11:25 BY CHRISTINE HOARAN : "FOR ADDITIONAL ENCUMBRANCES THE PIN FOR WENTWORTH COMMON ELEMENTS CONDOMINIUM PLAN NO. 393 IN BLOCK 18393 MUST BE EXAMINED.".
17370	0675	THE FOLLOWING REMARK HAS BEEN ADDED ON 2005/10/31 AT 11:25 BY CHRISTINE HOARAN : "FOR ADDITIONAL ENCUMBRANCES THE PIN FOR WENTWORTH COMMON ELEMENTS CONDOMINIUM PLAN NO. 393 IN BLOCK 18393 MUST BE EXAMINED.".
17370	0676	THE FOLLOWING REMARK HAS BEEN ADDED ON 2005/10/31 AT 11:25 BY CHRISTINE HOARAN : "FOR ADDITIONAL ENCUMBRANCES THE PIN FOR WENTWORTH COMMON ELEMENTS CONDOMINIUM PLAN NO. 393 IN BLOCK 18393 MUST BE EXAMINED.".
17370	0677	THE FOLLOWING REMARK HAS BEEN ADDED ON 2005/10/31 AT 11:26 BY CHRISTINE HOARAN : "FOR ADDITIONAL ENCUMBRANCES THE PIN FOR WENTWORTH COMMON ELEMENTS CONDOMINIUM PLAN NO. 393 IN BLOCK 18393 MUST BE EXAMINED.".
17380	0372	THE FOLLOWING REMARK HAS BEEN ADDED ON 2003/06/03 AT 14:18 BY CHERYL LANGKAMER : CONSENT LAND DIVISION COMMITTEE AS IN WE35621.
17380	0392	PLANNING ACT CONSENT IN # WE225136.
17381	0139	THE FOLLOWING REMARK HAS BEEN ADDED ON 2006/03/01 AT 14:29 BY ANNETTE VAN DUYN : COMMITTEE OF ADJUSTMENT & PLAN ATTACHED TO AB224669.
17384	0489	CORRECTION: INSTRUMENT NUMBER AB126666 WAS OMITTED FROM THIS PROPERTY IN ERROR AND WAS ADDED AND CERTIFIED ON 2001/07/09 BY PETER GAIGAL.
17384	0490	SUBJECT TO SUBSECTION 44(1) OF THE LAND TITLES ACT, EXCEPT PARAGRAPH 11, PARAGRAPH 14, PROVINCIAL SUCCESSION DUTIES AND ESCHEATS OR FORFEITURE TO THE CROWN, UP TO THE DATE OF CONVERSION, AND EXCEPT PARAGRAPH 3 AND PARAGRAPH 14 THEREAFTER.
17384	0684	CORRECTION: INSTRUMENT NUMBER WE88966 WAS ENTERED IN ERROR AGAINST THIS PROPERTY AND WAS REMOVED AND CERTIFIED ON 2003/11/03 BY DORRIE MORLEY.
17384	0694	CORRECTION: INSTRUMENT NUMBER WE88966 WAS ENTERED IN ERROR AGAINST THIS PROPERTY AND WAS REMOVED AND CERTIFIED ON 2003/11/03 BY DORRIE MORLEY.
17384	1045	FOR THE PURPOSE OF THE QUALIFIER THE DATE OF REGISTRATION OF ABSOLUTE TITLE IS 2005/12/20.
17384	1219	"FOR THE PURPOSE OF THE QUALIFIER THE DATE OF REGISTRATION OF ABSOLUTE TITLE IS 2005/02/22.".
17384	1820	"FOR THE PURPOSE OF THE QUALIFIER THE DATE OF REGISTRATION OF ABSOLUTE TITLE IS 2005/02/22.".
17384	1821	"FOR THE PURPOSE OF THE QUALIFIER THE DATE OF REGISTRATION OF ABSOLUTE TITLE IS 2005/02/22.".
17384	1822	"FOR THE PURPOSE OF THE QUALIFIER THE DATE OF REGISTRATION OF ABSOLUTE TITLE IS 2005/02/22.".
17384	1823	"FOR THE PURPOSE OF THE QUALIFIER THE DATE OF REGISTRATION OF ABSOLUTE TITLE IS 2005/02/22.".
17384	1824	"FOR THE PURPOSE OF THE QUALIFIER THE DATE OF REGISTRATION OF ABSOLUTE TITLE IS 2005/02/22.".
17384	1825	"FOR THE PURPOSE OF THE QUALIFIER THE DATE OF REGISTRATION OF ABSOLUTE TITLE IS 2005/02/22.".
17384	1826	"FOR THE PURPOSE OF THE QUALIFIER THE DATE OF REGISTRATION OF ABSOLUTE TITLE IS 2005/02/22.".
17384	1827	"FOR THE PURPOSE OF THE QUALIFIER THE DATE OF REGISTRATION OF ABSOLUTE TITLE IS 2005/02/22.".
17384	1828	"FOR THE PURPOSE OF THE QUALIFIER THE DATE OF REGISTRATION OF ABSOLUTE TITLE IS 2005/02/22.".
17384	1829	"FOR THE PURPOSE OF THE QUALIFIER THE DATE OF REGISTRATION OF ABSOLUTE TITLE IS 2005/02/22.".
17384	1830	"FOR THE PURPOSE OF THE QUALIFIER THE DATE OF REGISTRATION OF ABSOLUTE TITLE IS 2005/02/22.".
17384	1831	"FOR THE PURPOSE OF THE QUALIFIER THE DATE OF REGISTRATION OF ABSOLUTE TITLE IS 2005/02/22.".
17384	1832	"FOR THE PURPOSE OF THE QUALIFIER THE DATE OF REGISTRATION OF ABSOLUTE TITLE IS 2005/02/22.".
17384	1833	"FOR THE PURPOSE OF THE QUALIFIER THE DATE OF REGISTRATION OF ABSOLUTE TITLE IS 2005/02/22.".
17384	1834	"FOR THE PURPOSE OF THE QUALIFIER THE DATE OF REGISTRATION OF ABSOLUTE TITLE IS 2005/02/22.".
17384	1835	"FOR THE PURPOSE OF THE QUALIFIER THE DATE OF REGISTRATION OF ABSOLUTE TITLE IS 2005/02/22.".
17384	1836	"FOR THE PURPOSE OF THE QUALIFIER THE DATE OF REGISTRATION OF ABSOLUTE TITLE IS 2005/02/22.".
17384	1837	"FOR THE PURPOSE OF THE QUALIFIER THE DATE OF REGISTRATION OF ABSOLUTE TITLE IS 2005/02/22.".
17384	1838	"FOR THE PURPOSE OF THE QUALIFIER THE DATE OF REGISTRATION OF ABSOLUTE TITLE IS 2005/02/22.".
17384	1839	"FOR THE PURPOSE OF THE QUALIFIER THE DATE OF REGISTRATION OF ABSOLUTE TITLE IS 2005/02/22.".
17384	1840	"FOR THE PURPOSE OF THE QUALIFIER THE DATE OF REGISTRATION OF ABSOLUTE TITLE IS 2005/02/22.".
17384	1841	"FOR THE PURPOSE OF THE QUALIFIER THE DATE OF REGISTRATION OF ABSOLUTE TITLE IS 2005/02/22.".
17384	1842	"FOR THE PURPOSE OF THE QUALIFIER THE DATE OF REGISTRATION OF ABSOLUTE TITLE IS 2005/02/22.".
17384	1843	"FOR THE PURPOSE OF THE QUALIFIER THE DATE OF REGISTRATION OF ABSOLUTE TITLE IS 2005/02/22.".
17384	1844	"FOR THE PURPOSE OF THE QUALIFIER THE DATE OF REGISTRATION OF ABSOLUTE TITLE IS 2005/02/22.".
17384	1845	"FOR THE PURPOSE OF THE QUALIFIER THE DATE OF REGISTRATION OF ABSOLUTE TITLE IS 2005/02/22.".
17384	1846	"FOR THE PURPOSE OF THE QUALIFIER THE DATE OF REGISTRATION OF ABSOLUTE TITLE IS 2005/02/22.".
17384	1847	"FOR THE PURPOSE OF THE QUALIFIER THE DATE OF REGISTRATION OF ABSOLUTE TITLE IS 2005/02/22.".
17384	1848	"FOR THE PURPOSE OF THE QUALIFIER THE DATE OF REGISTRATION OF ABSOLUTE TITLE IS 2005/02/22.".
17384	1849	"FOR THE PURPOSE OF THE QUALIFIER THE DATE OF REGISTRATION OF ABSOLUTE TITLE IS 2005/02/22.".
17384	1850	"FOR THE PURPOSE OF THE QUALIFIER THE DATE OF REGISTRATION OF ABSOLUTE TITLE IS 2005/02/22.".
17384	1851	"FOR THE PURPOSE OF THE QUALIFIER THE DATE OF REGISTRATION OF ABSOLUTE TITLE IS 2005/02/22.".
17384	1852	"FOR THE PURPOSE OF THE QUALIFIER THE DATE OF REGISTRATION OF ABSOLUTE TITLE IS 2005/02/22.".
17384	1853	"FOR THE PURPOSE OF THE QUALIFIER THE DATE OF REGISTRATION OF ABSOLUTE TITLE IS 2005/02/22.".
17384	1854	"FOR THE PURPOSE OF THE QUALIFIER THE DATE OF REGISTRATION OF ABSOLUTE TITLE IS 2005/02/22.".
17384	1855	"FOR THE PURPOSE OF THE QUALIFIER THE DATE OF REGISTRATION OF ABSOLUTE TITLE IS 2005/02/22.".
17384	1856	"FOR THE PURPOSE OF THE QUALIFIER THE DATE OF REGISTRATION OF ABSOLUTE TITLE IS 2005/02/22.".
17384	1857	"FOR THE PURPOSE OF THE QUALIFIER THE DATE OF REGISTRATION OF ABSOLUTE TITLE IS 2005/02/22.".
17384	1858	"FOR THE PURPOSE OF THE QUALIFIER THE DATE OF REGISTRATION OF ABSOLUTE TITLE IS 2005/02/22.".
17384	1859	"FOR THE PURPOSE OF THE QUALIFIER THE DATE OF REGISTRATION OF ABSOLUTE TITLE IS 2005/02/22.".
17384	1860	"FOR THE PURPOSE OF THE QUALIFIER THE DATE OF REGISTRATION OF ABSOLUTE TITLE IS 2005/02/22.".
17384	1861	"FOR THE PURPOSE OF THE QUALIFIER THE DATE OF REGISTRATION OF ABSOLUTE TITLE IS 2005/02/22.".
17384	1862	"FOR THE PURPOSE OF THE QUALIFIER THE DATE OF REGISTRATION OF ABSOLUTE TITLE IS 2005/02/22.".
17384	1863	"FOR THE PURPOSE OF THE QUALIFIER THE DATE OF REGISTRATION OF ABSOLUTE TITLE IS 2005/02/22.".
17384	1864	"FOR THE PURPOSE OF THE QUALIFIER THE DATE OF REGISTRATION OF ABSOLUTE TITLE IS 2005/02/22.".
17384	1865	"FOR THE PURPOSE OF THE QUALIFIER THE DATE OF REGISTRATION OF ABSOLUTE TITLE IS 2005/02/22.".
17384	1866	"FOR THE PURPOSE OF THE QUALIFIER THE DATE OF REGISTRATION OF ABSOLUTE TITLE IS 2005/02/22.".
17384	1867	"FOR THE PURPOSE OF THE QUALIFIER THE DATE OF REGISTRATION OF ABSOLUTE TITLE IS 2005/02/22.".
17384	1868	"FOR THE PURPOSE OF THE QUALIFIER THE DATE OF REGISTRATION OF ABSOLUTE TITLE IS 2005/02/22.".
17384	1869	"FOR THE PURPOSE OF THE QUALIFIER THE DATE OF REGISTRATION OF ABSOLUTE TITLE IS 2005/02/22.".
17384	1870	"FOR THE PURPOSE OF THE QUALIFIER THE DATE OF REGISTRATION OF ABSOLUTE TITLE IS 2005/02/22.".
17384	1871	"FOR THE PURPOSE OF THE QUALIFIER THE DATE OF REGISTRATION OF ABSOLUTE TITLE IS 2005/02/22.".
17384	1872	"FOR THE PURPOSE OF THE QUALIFIER THE DATE OF REGISTRATION OF ABSOLUTE TITLE IS 2005/02/22.".
17384	1873	"FOR THE PURPOSE OF THE QUALIFIER THE DATE OF REGISTRATION OF ABSOLUTE TITLE IS 2005/02/22.".
17384	1874	"FOR THE PURPOSE OF THE QUALIFIER THE DATE OF REGISTRATION OF ABSOLUTE TITLE IS 2005/02/22.".
17384	1875	"FOR THE PURPOSE OF THE QUALIFIER THE DATE OF REGISTRATION OF ABSOLUTE TITLE IS 2005/02/22.".
17384	1876	"FOR THE PURPOSE OF THE QUALIFIER THE DATE OF REGISTRATION OF ABSOLUTE TITLE IS 2005/02/22.".
17384	1877	"FOR THE PURPOSE OF THE QUALIFIER THE DATE OF REGISTRATION OF ABSOLUTE TITLE IS 2005/02/22.".
17384	1878	"FOR THE PURPOSE OF THE QUALIFIER THE DATE OF REGISTRATION OF ABSOLUTE TITLE IS 2005/02/22.".
17384	1879	"FOR THE PURPOSE OF THE QUALIFIER THE DATE OF REGISTRATION OF ABSOLUTE TITLE IS 2005/02/22.".
17384	1880	"FOR THE PURPOSE OF THE QUALIFIER THE DATE OF REGISTRATION OF ABSOLUTE TITLE IS 2005/02/22.".
17384	1881	"FOR THE PURPOSE OF THE QUALIFIER THE DATE OF REGISTRATION OF ABSOLUTE TITLE IS 2005/02/22.".
17384	1882	"FOR THE PURPOSE OF THE QUALIFIER THE DATE OF REGISTRATION OF ABSOLUTE TITLE IS 2005/02/22.".
17384	1883	"FOR THE PURPOSE OF THE QUALIFIER THE DATE OF REGISTRATION OF ABSOLUTE TITLE IS 2005/02/22.".
17384	1884	"FOR THE PURPOSE OF THE QUALIFIER THE DATE OF REGISTRATION OF ABSOLUTE TITLE IS 2005/02/22.".
17384	1885	"FOR THE PURPOSE OF THE QUALIFIER THE DATE OF REGISTRATION OF ABSOLUTE TITLE IS 2005/02/22.".
17384	1886	"FOR THE PURPOSE OF THE QUALIFIER THE DATE OF REGISTRATION OF ABSOLUTE TITLE IS 2005/02/22.".
17384	1887	"FOR THE PURPOSE OF THE QUALIFIER THE DATE OF REGISTRATION OF ABSOLUTE TITLE IS 2005/02/22.".
17384	1888	"FOR THE PURPOSE OF THE QUALIFIER THE DATE OF REGISTRATION OF ABSOLUTE TITLE IS 2005/02/22.".
17384	1889	"FOR THE PURPOSE OF THE QUALIFIER THE DATE OF REGISTRATION OF ABSOLUTE TITLE IS 2005/02/22.".
17384	1890	"FOR THE PURPOSE OF THE QUALIFIER THE DATE OF REGISTRATION OF ABSOLUTE TITLE IS 2005/02/22.".
17384	1891	"FOR THE PURPOSE OF THE QUALIFIER THE DATE OF REGISTRATION OF ABSOLUTE TITLE IS 2005/02/22.".
17384	1892	"FOR THE PURPOSE OF THE QUALIFIER THE DATE OF REGISTRATION OF ABSOLUTE TITLE IS 2005/02/22.".
17384	1893	"FOR THE PURPOSE OF THE QUALIFIER THE DATE OF REGISTRATION OF ABSOLUTE TITLE IS 2005/02/22.".
17384	1894	"FOR THE PURPOSE OF THE QUALIFIER THE DATE OF REGISTRATION OF ABSOLUTE TITLE IS 2005/02/22.".
17384	1895	"FOR THE PURPOSE OF THE QUALIFIER THE DATE OF REGISTRATION OF ABSOLUTE TITLE IS 2005/02/22.".
17384	1896	"FOR THE PURPOSE OF THE QUALIFIER THE DATE OF REGISTRATION OF ABSOLUTE TITLE IS 2005/02/22.".
17384	1897	"FOR THE PURPOSE OF THE QUALIFIER THE DATE OF REGISTRATION OF ABSOLUTE TITLE IS 2005/02/22.".
17384	1898	"FOR THE PURPOSE OF THE QUALIFIER THE DATE OF REGISTRATION OF ABSOLUTE TITLE IS 2005/02/22.".
17384	1899	"FOR THE PURPOSE OF THE QUALIFIER THE DATE OF REGISTRATION OF ABSOLUTE TITLE IS 2005/02/22.".
17384	1900	"FOR THE PURPOSE OF THE QUALIFIER THE DATE OF REGISTRATION OF ABSOLUTE TITLE IS 2005/02/22.".
17384	1901	"FOR THE PURPOSE OF THE QUALIFIER THE DATE OF REGISTRATION OF ABSOLUTE TITLE IS 2005/02/22.".
17384	1902	"FOR THE PURPOSE OF THE QUALIFIER THE DATE OF REGISTRATION OF ABSOLUTE TITLE IS 2005/02/22.".
17384	1903	"FOR THE PURPOSE OF THE QUALIFIER THE DATE OF REGISTRATION OF ABSOLUTE TITLE IS 2005/02/22.".
17384	1904	"FOR THE PURPOSE OF THE QUALIFIER THE DATE OF REGISTRATION OF ABSOLUTE TITLE IS 2005/02/22.".
17384	1905	"FOR THE PURPOSE OF THE QUALIFIER THE DATE OF REGISTRATION OF ABSOLUTE TITLE IS 2005/02/22.".
17390	0108	THE FOLLOWING REMARK HAS BEEN ADDED ON 2002/10/25 AT 15:20 BY ANNE MARIE BERTRAND : THIS PIN WAS CREATED IN ERROR (GL7712 = 118 ACRES; CD163900 = 117 ACRES AND CD123601 = 1 ACRE) PIN CONSOLIDATED WITH 17390-0052 AM BERTRAND - OCT. 25, 2002.
17394	0043	CORRECTION: INSTRUMENT NUMBER AB70291 WAS ENTERED IN ERROR AGAINST THIS PROPERTY AND WAS REMOVED AND CERTIFIED ON 2001/01/04 BY AM BERTRAND. CORRECTION: INSTRUMENT NUMBER AB84722 WAS ENTERED IN ERROR AGAINST THIS PROPERTY AND WAS REMOVED AND CERTIFIED ON
17394	0044	CORRECTION: INSTRUMENT NUMBER HL268227 WAS ENTERED IN ERROR AGAINST THIS PROPERTY AND WAS REMOVED AND CERTIFIED ON 2001/01/04 BY AM BERTRAND.
17396	0027	CORRECTION: INSTRUMENT NUMBER VM217572 WAS OMITTED FROM THIS PROPERTY IN ERROR AND WAS ADDED AND CERTIFIED ON 1998/08/21 BY ANNETTE VAN DUYN.
17399	0111	THIS PARCEL WAS CREATED BASED ON INFORMATION CONTAINED IN DOCUMENT(S) AB178985, WHICH IS (ARE) RECORDED FOR PIN IDENTIFICATION ONLY.
17399	0115	THIS PARCEL WAS CREATED BASED ON INFORMATION CONTAINED IN DOCUMENT(S) VM215097, WHICH IS (ARE) RECORDED FOR PIN IDENTIFICATION ONLY.
17399	0116	THIS PARCEL WAS CREATED BASED ON INFORMATION CONTAINED IN DOCUMENT(S) AB375348, WHICH IS (ARE) RECORDED FOR PIN IDENTIFICATION ONLY.
17399	0121	THIS PARCEL WAS CREATED BASED ON INFORMATION CONTAINED IN DOCUMENT(S) VM178677, WHICH IS (ARE) RECORDED FOR PIN IDENTIFICATION ONLY.
17399	0138	THIS PARCEL WAS CREATED BASED ON INFORMATION CONTAINED IN DOCUMENT(S) CD426942, WHICH IS (ARE) RECORDED FOR PIN IDENTIFICATION ONLY.
17399	0162	THIS PARCEL WAS CREATED BASED ON INFORMATION CONTAINED IN DOCUMENT(S) VM91784, WHICH IS (ARE) RECORDED FOR PIN IDENTIFICATION ONLY.
17399	0211	THIS PARCEL WAS CREATED BASED ON INFORMATION CONTAINED IN DOCUMENT(S) VM192866, WHICH IS (ARE) RECORDED FOR PIN IDENTIFICATION ONLY.
17399	0212	THIS PARCEL WAS CREATED BASED ON INFORMATION CONTAINED IN DOCUMENT(S) VM126012, WHICH IS (ARE) RECORDED FOR PIN IDENTIFICATION ONLY.
17399	0250	THIS PARCEL WAS CREATED BASED ON INFORMATION CONTAINED IN DOCUMENT(S) VM237248, WHICH IS (ARE) RECORDED FOR PIN IDENTIFICATION ONLY.
17399	0278	THIS PARCEL WAS CREATED BASED ON INFORMATION CONTAINED IN DOCUMENT(S):VM236902, WHICH IS RECORDED FOR PIN IDENTIFICATION ONLY.
17400	0242	ON 2002/02/27 AT 13:46 THE ESTATE/QUALIFIER WERE CHANGED TO FEE SIMPLE ABSOLUTE FROM FEE SIMPLE LT CONVERSION QUALIFIED BY PETER GAIGAL .
17400	0243	ON 2002/02/27 AT 13:47 THE ESTATE/QUALIFIER WERE CHANGED TO FEE SIMPLE ABSOLUTE FROM FEE SIMPLE LT CONVERSION QUALIFIED BY PETER GAIGAL .
17400	0255	ON 2002/02/27 AT 13:52 THE ESTATE/QUALIFIER WERE CHANGED TO FEE SIMPLE ABSOLUTE FROM FEE SIMPLE LT CONVERSION QUALIFIED BY PETER GAIGAL .
17400	0256	ON 2002/02/27 AT 13:52 THE ESTATE/QUALIFIER WERE CHANGED TO FEE SIMPLE ABSOLUTE FROM FEE SIMPLE LT CONVERSION QUALIFIED BY PETER GAIGAL .
17400	0360	THE FOLLOWING REMARK HAS BEEN ADDED ON 2005/11/04 AT 09:55 BY CRISSY DELDUCA : PLAN ATTACHED TO AB122761.
17400	0478	SUBJECT TO SUBSECTION 44(1) OF THE LAND TITLES ACT, EXCEPT PARAGRAPHS 3 & 14 THEREOF AND PROVINCIAL SUCCESSION DUTIES AND EXCEPT PARAGRAPH 11 AND ESCHEATS OR FORFEITURE TO THE CROWN UP TO THE DATE OF REGISTRATION WITH AN ABSOLUTE TITLE.
17400	0537	SUBJECT TO SUBSECTION 44(1) OF THE LAND TITLES ACT, EXCEPT PARAGRAPHS 3 & 14 THEREOF AND PROVINCIAL SUCCESSION DUTIES AND EXCEPT PARAGRAPH 11 AND ESCHEATS OR FORFEITURE TO THE CROWN UP TO THE DATE OF REGISTRATION WITH AN ABSOLUTE TITLE.
17402	0075	CORRECTION: INSTRUMENT NUMBER HL53857 WAS OMITTED FROM THIS PROPERTY IN ERROR AND WAS ADDED AND CERTIFIED ON 2005/03/15 BY ANNETTE VAN DUYN.
17406	0094	CORRECTION: INSTRUMENT NUMBER 62R13490 WAS OMITTED FROM THIS PROPERTY IN ERROR AND WAS ADDED AND CERTIFIED ON 1996/10/08 BY ERIC CANNON.
17406	0150	CORRECTION: INSTRUMENT NUMBER VM173714 WAS OMITTED FROM THIS PROPERTY IN ERROR AND WAS ADDED AND CERTIFIED ON 2004/06/03 BY HELEN MACMILLAN.
17406	0213	CORRECTION: INSTRUMENT NUMBER CD31346 WAS OMITTED FROM THIS PROPERTY IN ERROR AND WAS ADDED AND CERTIFIED ON 2004/05/31 BY DEBBIE SARKANY. CORRECTION: INSTRUMENT NUMBER WE232900 WAS OMITTED FROM THIS PROPERTY IN ERROR AND WAS ADDED AND CERTIFIED ON 2004/0
17407	0178	CONSENT UNDER THE PLANNING ACT HAS BEEN OBTAINED IN # WE188800.
17408	0119	CORRECTION: INSTRUMENT NUMBER 62R14824 WAS OMITTED FROM THIS PROPERTY IN ERROR AND WAS ADDED AND CERTIFIED ON 1999/01/12 BY BELLE FIAMELLI.
17408	0120	CORRECTION: INSTRUMENT NUMBER 62R14824 WAS ENTERED IN ERROR AGAINST THIS PROPERTY AND WAS REMOVED AND CERTIFIED ON 1999/01/12 BY BELLE FIAMELLI.
17409	0182	CORRECTION: INSTRUMENT NUMBER LT459568 WAS ENTERED IN ERROR AGAINST THIS PROPERTY AND WAS REMOVED AND CERTIFIED ON 1999/06/10 BY MARLENE HUNTER.
17409	0209	PLANNING ACT CONSENT ATTACHED TO WE370495.
17411	0220	CORRECTION: INSTRUMENT NUMBER LT299882 WAS OMITTED FROM THIS PROPERTY IN ERROR AND WAS ADDED AND CERTIFIED ON 2000/04/28 BY BELLE FIAMELLI. CORRECTION: INSTRUMENT NUMBER LT307056 WAS OMITTED FROM THIS PROPERTY IN ERROR AND WAS ADDED AND CERTIFIED ON 2000/
17412	0029	CORRECTION: INSTRUMENT NUMBER VM198206 WAS OMITTED FROM THIS PROPERTY IN ERROR AND WAS ADDED AND CERTIFIED ON 1997/02/18 BY ANNETTE VAN DUYN.
17412	0141	PLANNING ACT CONSENT ON WE155784.
17412	0146	LAND DIVISION COMMITTEE CONSENT IN VM131266.
17415	0732	THE FOLLOWING REMARK HAS BEEN ADDED ON 2000/07/31 AT 11:05 BY LYN WEAVER : S/T RT OF WAY TO ENTER FROM TIME TO TIME UNTIL DATE OF COMPLETE ACCEP TANCE BY TOWN OF ANCASTER ETC., FROM 2000 07 14 IN LT609721.
17416	0037	SUBJECT TO SUBSECTION 44(1) OF THE LAND TITLES ACT, EXCEPT PARAGRAPHS 3 & 14 AND PROVINCIAL SUCCESSION DUTIES AND EXCEPT PARAGRAPH 11 AND ESCHEATS OR FORFEITURE TO THE CROWN UP TO THE DATE OF REGISTRATION WITH AN ABSOLUTE TITLE. ON 2003/07/21 AT 10:05 THE
17416	0040	SUBJECT TO SUBSECTION 44 (1) OF THE LAND TITLES ACT, EXCEPT PARAGRAPHS 3 & 14 AND PROVINCIAL SUCCESSION DUTIES AND EXCEPT PARAGRAPH 11 AND ESCHEATS OR FORFEITURE TO THE CROWN UP TO THE DATE OF REGISTRATION WITH AN ABSOLUTE TITLE. FOR THE PURPOSE OF THE QU
17417	0004	CORRECTION: INSTRUMENT NUMBER CM1649 WAS OMITTED FROM THIS PROPERTY IN ERROR AND WAS ADDED AND CERTIFIED ON 1999/07/05 BY MARLENE HUNTER.
17417	0163	CORRECTION: INSTRUMENT NUMBER 62R13277 WAS ENTERED IN ERROR AGAINST THIS PROPERTY AND WAS REMOVED AND CERTIFIED ON 1999/08/16 BY MARLENE HUNTER. CORRECTION: INSTRUMENT NUMBER 62R12112 WAS ENTERED IN ERROR AGAINST THIS PROPERTY AND WAS REMOVED AND CERTIFIE
17417	0225	CORRECTION: INSTRUMENT NUMBER LT420910 WAS ENTERED IN ERROR AGAINST THIS PROPERTY AND WAS REMOVED AND CERTIFIED ON 2000/03/02 BY MARLENE HUNTER. CORRECTION: INSTRUMENT NUMBER LT420908 WAS OMITTED FROM THIS PROPERTY IN ERROR AND WAS ADDED AND CERTIFIED ON
17417	0446	CORRECTION: INSTRUMENT NUMBER LT515688 WAS ENTERED IN ERROR AGAINST THIS PROPERTY AND WAS REMOVED AND CERTIFIED ON 2004/11/22 BY ANNETTE VAN DUYN.
17417	0520	THE FOLLOWING REMARK HAS BEEN ADDED ON 2000/07/11 AT 15:53 BY LYN WEAVER : S/T RT TO ENTER FOR ONR YEAR AFTER COMPLETION OF SALE OR UNTIL EXPIRA-TION OF GUARANTEE AS IN LT605882.
17417	0607	CORRECTION: INSTRUMENT NUMBER LT591636 WAS ENTERED IN ERROR AGAINST THIS PROPERTY AND WAS REMOVED AND CERTIFIED ON 2000/07/20 BY DEBBIE SARKANY.
17417	0631	CORRECTION: INSTRUMENT NUMBER LT591636 WAS OMITTED FROM THIS PROPERTY IN ERROR AND WAS ADDED AND CERTIFIED ON 2000/07/20 BY DEBBIE SARKANY.
17417	0707	CORRECTION: INSTRUMENT NUMBER WE75352 WAS OMITTED FROM THIS PROPERTY IN ERROR AND WAS ADDED AND CERTIFIED ON 2002/08/12 BY DEBBIE SARKANY. CORRECTION: INSTRUMENT NUMBER WCP339 WAS OMITTED FROM THIS PROPERTY IN ERROR AND WAS ADDED AND CERTIFIED ON 2002/08/
17418	0003	CORRECTION: INSTRUMENT NUMBER CD449461 WAS ENTERED IN ERROR AGAINST THIS PROPERTY AND WAS REMOVED AND CERTIFIED ON 1997/06/10 BY ERIC CANNON.
17418	0027	CORRECTION: INSTRUMENT NUMBER LT172068 WAS OMITTED FROM THIS PROPERTY IN ERROR AND WAS ADDED AND CERTIFIED ON 1997/03/11 BY LAND REGISTRAR 2. CORRECTION: INSTRUMENT NUMBER LT178279 WAS OMITTED FROM THIS PROPERTY IN ERROR AND WAS ADDED AND CERTIFIED ON 199
17418	0056	CORRECTION: INSTRUMENT NUMBER 62R9081 WAS OMITTED FROM THIS PROPERTY IN ERROR AND WAS ADDED AND CERTIFIED ON 2006/04/03 BY CINDY JOHNSON.
17418	0069	CORRECTION: INSTRUMENT NUMBER HL177021 WAS OMITTED FROM THIS PROPERTY IN ERROR AND WAS ADDED AND CERTIFIED ON 2006/09/26 BY CHERYL LANGKAMER.
17418	0094	CORRECTION: INSTRUMENT NUMBER VM146074 WAS OMITTED FROM THIS PROPERTY IN ERROR AND WAS ADDED AND CERTIFIED ON 1998/07/09 BY CAROLYN ADSETT.
17422	0201	PLANNING ACT CONSENT ATTACHED TO WE421946.
17429	0391	CORRECTION: INSTRUMENT NUMBER HL58543 WAS OMITTED FROM THIS PROPERTY IN ERROR AND WAS ADDED AND CERTIFIED ON 1998/07/23 BY LAND REGISTRAR 2.
17429	0483	CORRECTION: INSTRUMENT NUMBER 62R680 WAS OMITTED FROM THIS PROPERTY IN ERROR AND WAS ADDED AND CERTIFIED ON 2002/02/01 BY DORRIE MORLEY. CORRECTION: INSTRUMENT NUMBER VM69884 WAS ENTERED IN ERROR AGAINST THIS PROPERTY AND WAS REMOVED AND CERTIFIED ON 2005
17433	0401	CORRECTION: INSTRUMENT NUMBER LT446752 WAS OMITTED FROM THIS PROPERTY IN ERROR AND WAS ADDED AND CERTIFIED ON 1997/04/24 BY MARLENE HUNTER.
17436	0026	CORRECTION: INSTRUMENT NUMBER LT542928 WAS OMITTED FROM THIS PROPERTY IN ERROR AND WAS ADDED AND CERTIFIED ON 1999/03/11 BY PETER GAIGAL.
17443	0006	THIS PARCEL WAS CREATED BASED ON INFORMATION CONTAINED IN DOCUMENT(S) VM174100, WHICH IS (ARE) RECORDED FOR PIN IDENTIFICATION ONLY.
17443	0015	THIS PARCEL WAS CREATED BASED ON INFORMATION CONTAINED IN DOCUMENT(S) CD444662, WHICH IS (ARE) RECORDED FOR PIN IDENTIFICATION ONLY.
17443	0022	THIS PARCEL WAS CREATED BASED ON INFORMATION CONTAINED IN DOCUMENT(S) CD417443, WHICH IS (ARE) RECORDED FOR PIN IDENTIFICATION ONLY.
17443	0034	THIS PARCEL WAS CREATED BASED ON INFORMATION CONTAINED IN DOCUMENT(S) CD460567, WHICH IS (ARE) RECORDED FOR PIN IDENTIFICATION ONLY.
17443	0075	THIS PARCEL WAS CREATED BASED ON INFORMATION CONTAINED IN DOCUMENT(S) AB193536, WHICH IS (ARE) RECORDED FOR PIN IDENTIFICATION ONLY.
17443	0082	THIS PARCEL WAS CREATED BASED ON INFORMATION CONTAINED IN DOCUMENT(S) VM155309, WHICH IS (ARE) RECORDED FOR PIN IDENTIFICATION ONLY.
17443	0085	THIS PARCEL WAS CREATED BASED ON INFORMATION CONTAINED IN DOCUMENT(S) HL333075, WHICH IS (ARE) RECORDED FOR PIN IDENTIFICATION ONLY.
17445	0177	SUBJECT ON THE DATE OF REGISTRATION 98/11/25 TO SUBSECTION 44 (1) OF THE LAND TITLES ACT, EXCEPT PARAGRAPHS 3 AND 14 THEREOF AND PROVINCIAL SUCCESSION DUTIES.
17446	1001	SUBJECT TO SUBSECTION 44(1) OF THE LAND TITLES ACT, EXCEPT PARAGRAPHS 3 AND 14 AND PROVINCIAL SUCCESSION DUTIES AND EXCEPT PARAGRAPH 11 AND ESCHEATS OR FORFEITURE TO THE CROWN UP TO THE DATE OF REGISTRATION WITH AN ABSOLUTE TITLE.
17446	1037	PLANNING ACT CONSENT AS IN WE415103.
17446	1038	CORRECTION: INSTRUMENT NUMBER DN6552 WAS OMITTED FROM THIS PROPERTY IN ERROR AND WAS ADDED AND CERTIFIED ON 2006/10/04 BY CHERYL LANGKAMER.
17453	0061	CORRECTION: INSTRUMENT NUMBER AB4170 WAS OMITTED FROM THIS PROPERTY IN ERROR AND WAS ADDED AND CERTIFIED ON 2005/12/19 BY KATHY CECE.
17454	0016	THIS PARCEL WAS CREATED BASED ON INFORMATION CONTAINED IN DOCUMENT(S) VM200932, WHICH IS (ARE) RECORDED FOR PIN IDENTIFICATION ONLY.
17454	0020	THIS PARCEL WAS CREATED BASED ON INFORMATION CONTAINED IN DOCUMENT(S) VM141265, WHICH IS (ARE) RECORDED FOR PIN IDENTIFICATION ONLY.
17454	0102	THIS PARCEL WAS CREATED BASED ON INFORMATION CONTAINED IN DOCUMENT(S) CD183582,HL213748, WHICH IS (ARE) RECORDED FOR PIN IDENTIFICATION ONLY.
17454	0110	THIS PARCEL WAS CREATED BASED ON INFORMATION CONTAINED IN DOCUMENT(S) VM133700, WHICH IS (ARE) RECORDED FOR PIN IDENTIFICATION ONLY.
17454	0113	THIS PARCEL WAS CREATED BASED ON INFORMATION CONTAINED IN DOCUMENT(S) VM196342, WHICH IS (ARE) RECORDED FOR PIN IDENTIFICATION ONLY.
17454	0176	THIS PARCEL WAS CREATED BASED ON INFORMATION CONTAINED IN DOCUMENT(S) CD461759, WHICH IS (ARE) RECORDED FOR PIN IDENTIFICATION ONLY.
17454	0190	THIS PARCEL WAS CREATED BASED ON INFORMATION CONTAINED IN DOCUMENT(S) CD238827, WHICH IS (ARE) RECORDED FOR PIN IDENTIFICATION ONLY.
17454	0194	THIS PARCEL WAS CREATED BASED ON INFORMATION CONTAINED IN DOCUMENT(S) CD502260, WHICH IS (ARE) RECORDED FOR PIN IDENTIFICATION ONLY.
17454	0214	THIS PARCEL WAS CREATED BASED ON INFORMATION CONTAINED IN DOCUMENT(S) AB142709,AB88216,HL275668,HL281658, HL282008,HL283151, WHICH IS (ARE) RECORDED FOR PIN IDENTIFICATION ONLY. THE FOLLOWING REMARK HAS BEEN ADDED ON 2001/03/19 AT 12:07 BY AM BERTRAND SDL
17454	0227	THIS PARCEL WAS CREATED BASED ON INFORMATION CONTAINED IN DOCUMENT(S) HL95137, WHICH IS (ARE) RECORDED FOR PIN IDENTIFICATION ONLY.
17454	0252	THIS PARCEL WAS CREATED BASED ON INFORMATION CONTAINED IN DOCUMENT(S) CD224171,VM232760, WHICH IS (ARE) RECORDED FOR PIN IDENTIFICATION ONLY.
17454	0329	THIS PARCEL WAS CREATED BASED ON INFORMATION CONTAINED IN DOCUMENT(S) AN15861, WHICH IS (ARE) RECORDED FOR PIN IDENTIFICATION ONLY.
17454	0585	THIS PARCEL WAS CREATED BASED ON INFORMATION CONTAINED IN DOCUMENT(S):CD224171, VM232760 WHICH IS (ARE) RECORDED FOR PIN IDENTIFICATION ONLY.
17454	0591	THIS PARCEL WAS CREATED BASED ON INFORMATION CONTAINED IN DOCUMENT(S): CD224171 & VM232760 WHICH IS (ARE) RECORDED FOR PIN IDENTIFICATION ONLY. THE FOLLOWING REMARK HAS BEEN ADDED ON 2004/11/24 AT 13:33 BY KATHY CECE : HL282008, HL283151. CORRECTION: INST
17455	0167	SUBJECT ON THE DATE OF REGISTRATION 2000/03/23 TO SUBSECTION 44 (1) OF THE LAND TITLES ACT, EXCEPT PARAGRAPHS 3 AND 14 THEREOF AND PROVINCIAL SUCCESSION DUTIES.
17456	0104	CORRECTION: INSTRUMENT NUMBER HL117504 WAS OMITTED FROM THIS PROPERTY IN ERROR AND WAS ADDED AND CERTIFIED ON 2000/10/13 BY CINDY JOHNSON.
17457	0007	THIS PARCEL WAS CREATED BASED ON INFORMATION CONTAINED IN DOCUMENT(S) AB267031, WHICH IS (ARE) RECORDED FOR PIN IDENTIFICATION ONLY.
17457	0015	THIS PARCEL WAS CREATED BASED ON INFORMATION CONTAINED IN DOCUMENT(S) CD177684, WHICH IS (ARE) RECORDED FOR PIN IDENTIFICATION ONLY.
17457	0042	THIS PARCEL WAS CREATED BASED ON INFORMATION CONTAINED IN DOCUMENT(S) CD469129, WHICH IS (ARE) RECORDED FOR PIN IDENTIFICATION ONLY.
17457	0104	THIS PARCEL WAS CREATED BASED ON INFORMATION CONTAINED IN DOCUMENT(S) VM30252, WHICH IS (ARE) RECORDED FOR PIN IDENTIFICATION ONLY.
17457	0109	THIS PARCEL WAS CREATED BASED ON INFORMATION CONTAINED IN DOCUMENT(S) VM124535, WHICH IS (ARE) RECORDED FOR PIN IDENTIFICATION ONLY.
17457	0207	THIS PARCEL WAS CREATED BASED ON INFORMATION CONTAINED IN DOCUMENT(S) VM110210, WHICH IS (ARE) RECORDED FOR PIN IDENTIFICATION ONLY.
17457	0235	THIS PARCEL WAS CREATED BASED ON INFORMATION CONTAINED IN DOCUMENT(S) CD57447, WHICH IS (ARE) RECORDED FOR PIN IDENTIFICATION ONLY.
17457	0262	THIS PARCEL WAS CREATED BASED ON INFORMATION CONTAINED IN DOCUMENT(S) VM209152, WHICH IS (ARE) RECORDED FOR PIN IDENTIFICATION ONLY.
17458	0159	THIS PARCEL WAS CREATED BASED ON INFORMATION CONTAINED IN DOCUMENT(S) AB261579,HL37942, WHICH IS (ARE) RECORDED FOR PIN IDENTIFICATION ONLY.
17458	0248	THIS PARCEL WAS CREATED BASED ON INFORMATION CONTAINED IN DOCUMENT(S) VM216581, WHICH IS (ARE) RECORDED FOR PIN IDENTIFICATION ONLY.
17458	0251	THIS PARCEL WAS CREATED BASED ON INFORMATION CONTAINED IN DOCUMENT(S) VM13752, WHICH IS (ARE) RECORDED FOR PIN IDENTIFICATION ONLY.
17458	0310	THIS PARCEL WAS CREATED BASED ON INFORMATION CONTAINED IN DOCUMENT(S) CD242999, WHICH IS (ARE) RECORDED FOR PIN IDENTIFICATION ONLY.
17473	0228	THIS DESCRIPTION WAS NULL, WE CHNAGED IT SO IT DOESN'T CAUSE GREEN SCREEN.
17477	0019	CORRECTION: INSTRUMENT NUMBER VM195834 WAS OMITTED FROM THIS PROPERTY IN ERROR AND WAS ADDED AND CERTIFIED ON 1998/02/11 BY LAND REGISTRAR 2.
17481	0324	CORRECTION: INSTRUMENT NUMBER 62R-14810 WAS ENTERED IN ERROR AGAINST THIS PROPERTY AND WAS REMOVED AND CERTIFIED ON 2001/02/07 BY AM BERTRAND.
17481	0325	CORRECTION: INSTRUMENT NUMBER 62R-14810 WAS ENTERED IN ERROR AGAINST THIS PROPERTY AND WAS REMOVED AND CERTIFIED ON 2001/02/07 BY AM BERTRAND.
17481	0326	CORRECTION: INSTRUMENT NUMBER 62R-14810 WAS ENTERED IN ERROR AGAINST THIS PROPERTY AND WAS REMOVED AND CERTIFIED ON 2001/02/07 BY AM BERTRAND.
17481	0327	CORRECTION: INSTRUMENT NUMBER 62R-14810 WAS ENTERED IN ERROR AGAINST THIS PROPERTY AND WAS REMOVED AND CERTIFIED ON 2001/02/07 BY AM BERTRAND.
17481	0328	CORRECTION: INSTRUMENT NUMBER 62R-14810 WAS ENTERED IN ERROR AGAINST THIS PROPERTY AND WAS REMOVED AND CERTIFIED ON 2001/02/07 BY AM BERTRAND.
17481	0329	CORRECTION: INSTRUMENT NUMBER 62R-14810 WAS ENTERED IN ERROR AGAINST THIS PROPERTY AND WAS REMOVED AND CERTIFIED ON 2001/02/07 BY AM BERTRAND.
17481	0330	CORRECTION: INSTRUMENT NUMBER 62R-14810 WAS ENTERED IN ERROR AGAINST THIS PROPERTY AND WAS REMOVED AND CERTIFIED ON 2001/02/07 BY AM BERTRAND.
17481	0333	CORRECTION: INSTRUMENT NUMBER 62R-14810 WAS ENTERED IN ERROR AGAINST THIS PROPERTY AND WAS REMOVED AND CERTIFIED ON 2001/02/07 BY AM BERTRAND.
17481	0334	CORRECTION: INSTRUMENT NUMBER 62R-14810 WAS ENTERED IN ERROR AGAINST THIS PROPERTY AND WAS REMOVED AND CERTIFIED ON 2001/02/07 BY AM BERTRAND.
17481	0335	CORRECTION: INSTRUMENT NUMBER 62R-14810 WAS ENTERED IN ERROR AGAINST THIS PROPERTY AND WAS REMOVED AND CERTIFIED ON 2001/02/07 BY AM BERTRAND.
17481	0336	CORRECTION: INSTRUMENT NUMBER 62R-14810 WAS ENTERED IN ERROR AGAINST THIS PROPERTY AND WAS REMOVED AND CERTIFIED ON 2001/02/07 BY AM BERTRAND.
17481	0337	CORRECTION: INSTRUMENT NUMBER 62R-14810 WAS ENTERED IN ERROR AGAINST THIS PROPERTY AND WAS REMOVED AND CERTIFIED ON 2001/02/07 BY AM BERTRAND.
17481	0338	CORRECTION: INSTRUMENT NUMBER 62R-14810 WAS ENTERED IN ERROR AGAINST THIS PROPERTY AND WAS REMOVED AND CERTIFIED ON 2001/02/07 BY AM BERTRAND.
17481	0339	CORRECTION: INSTRUMENT NUMBER 62R-14810 WAS ENTERED IN ERROR AGAINST THIS PROPERTY AND WAS REMOVED AND CERTIFIED ON 2001/02/07 BY AM BERTRAND.
17481	0341	CORRECTION: INSTRUMENT NUMBER 62R-14810 WAS ENTERED IN ERROR AGAINST THIS PROPERTY AND WAS REMOVED AND CERTIFIED ON 2001/02/07 BY AM BERTRAND.
17481	0342	CORRECTION: INSTRUMENT NUMBER 62R-14810 WAS ENTERED IN ERROR AGAINST THIS PROPERTY AND WAS REMOVED AND CERTIFIED ON 2001/02/07 BY AM BERTRAND.
17481	0343	CORRECTION: INSTRUMENT NUMBER 62R-14810 WAS ENTERED IN ERROR AGAINST THIS PROPERTY AND WAS REMOVED AND CERTIFIED ON 2001/02/07 BY AM BERTRAND.
17481	0344	CORRECTION: INSTRUMENT NUMBER 62R-14810 WAS ENTERED IN ERROR AGAINST THIS PROPERTY AND WAS REMOVED AND CERTIFIED ON 2001/02/07 BY AM BERTRAND.
17481	0345	CORRECTION: INSTRUMENT NUMBER 62R-14810 WAS ENTERED IN ERROR AGAINST THIS PROPERTY AND WAS REMOVED AND CERTIFIED ON 2001/02/07 BY AM BERTRAND.
17481	0346	CORRECTION: INSTRUMENT NUMBER 62R-14810 WAS ENTERED IN ERROR AGAINST THIS PROPERTY AND WAS REMOVED AND CERTIFIED ON 2001/02/07 BY AM BERTRAND.
17481	0347	CORRECTION: INSTRUMENT NUMBER 62R-14810 WAS ENTERED IN ERROR AGAINST THIS PROPERTY AND WAS REMOVED AND CERTIFIED ON 2001/02/07 BY AM BERTRAND.
17481	0348	CORRECTION: INSTRUMENT NUMBER 62R-14810 WAS ENTERED IN ERROR AGAINST THIS PROPERTY AND WAS REMOVED AND CERTIFIED ON 2001/02/07 BY AM BERTRAND.
17481	0349	CORRECTION: INSTRUMENT NUMBER 62R-14810 WAS ENTERED IN ERROR AGAINST THIS PROPERTY AND WAS REMOVED AND CERTIFIED ON 2001/02/07 BY AM BERTRAND.
17481	0350	CORRECTION: INSTRUMENT NUMBER 62R-14810 WAS ENTERED IN ERROR AGAINST THIS PROPERTY AND WAS REMOVED AND CERTIFIED ON 2001/02/07 BY AM BERTRAND.
17481	0351	CORRECTION: INSTRUMENT NUMBER 62R-14810 WAS ENTERED IN ERROR AGAINST THIS PROPERTY AND WAS REMOVED AND CERTIFIED ON 2001/02/07 BY AM BERTRAND.
17481	0352	CORRECTION: INSTRUMENT NUMBER 62R-14810 WAS ENTERED IN ERROR AGAINST THIS PROPERTY AND WAS REMOVED AND CERTIFIED ON 2001/02/07 BY AM BERTRAND.
17481	0353	CORRECTION: INSTRUMENT NUMBER 62R-14810 WAS ENTERED IN ERROR AGAINST THIS PROPERTY AND WAS REMOVED AND CERTIFIED ON 2001/02/07 BY AM BERTRAND.
17481	0354	CORRECTION: INSTRUMENT NUMBER 62R-14810 WAS ENTERED IN ERROR AGAINST THIS PROPERTY AND WAS REMOVED AND CERTIFIED ON 2001/02/07 BY AM BERTRAND.
17481	0355	CORRECTION: INSTRUMENT NUMBER 62R-14810 WAS ENTERED IN ERROR AGAINST THIS PROPERTY AND WAS REMOVED AND CERTIFIED ON 2001/02/07 BY AM BERTRAND.
17481	0356	CORRECTION: INSTRUMENT NUMBER 62R-14810 WAS ENTERED IN ERROR AGAINST THIS PROPERTY AND WAS REMOVED AND CERTIFIED ON 2001/02/07 BY AM BERTRAND.
17481	0357	CORRECTION: INSTRUMENT NUMBER 62R-14810 WAS ENTERED IN ERROR AGAINST THIS PROPERTY AND WAS REMOVED AND CERTIFIED ON 2001/02/07 BY AM BERTRAND.
17481	0358	CORRECTION: INSTRUMENT NUMBER 62R-14810 WAS ENTERED IN ERROR AGAINST THIS PROPERTY AND WAS REMOVED AND CERTIFIED ON 2001/02/07 BY AM BERTRAND.
17481	0359	CORRECTION: INSTRUMENT NUMBER 62R-14810 WAS ENTERED IN ERROR AGAINST THIS PROPERTY AND WAS REMOVED AND CERTIFIED ON 2001/02/07 BY AM BERTRAND.
17481	0361	CORRECTION: INSTRUMENT NUMBER 62R-14810 WAS ENTERED IN ERROR AGAINST THIS PROPERTY AND WAS REMOVED AND CERTIFIED ON 2001/02/07 BY AM BERTRAND.
17481	0362	CORRECTION: INSTRUMENT NUMBER 62R-14810 WAS ENTERED IN ERROR AGAINST THIS PROPERTY AND WAS REMOVED AND CERTIFIED ON 2001/02/07 BY AM BERTRAND.
17481	0363	CORRECTION: INSTRUMENT NUMBER HL109987 WAS OMITTED FROM THIS PROPERTY IN ERROR AND WAS ADDED AND CERTIFIED ON 1999/01/13 BY ERIC CANNON. CORRECTION: INSTRUMENT NUMBER AB309930 WAS OMITTED FROM THIS PROPERTY IN ERROR AND WAS ADDED AND CERTIFIED ON 1999/01/
17481	0373	CORRECTION: INSTRUMENT NUMBER LT498488 WAS OMITTED FROM THIS PROPERTY IN ERROR AND WAS ADDED AND CERTIFIED ON 2000/06/29 BY DEBBIE SARKANY. CORRECTION: INSTRUMENT NUMBER LT500332 WAS OMITTED FROM THIS PROPERTY IN ERROR AND WAS ADDED AND CERTIFIED ON 2000/
17485	0930	CORRECTION: INSTRUMENT NUMBER VM136425 WAS OMITTED FROM THIS PROPERTY IN ERROR AND WAS ADDED AND CERTIFIED ON 1996/07/24 BY JEFF GILBERT. CORRECTION: INSTRUMENT NUMBER VM136426 WAS OMITTED FROM THIS PROPERTY IN ERROR AND WAS ADDED AND CERTIFIED ON 1996/07
17485	1013	CORRECTION: INSTRUMENT NUMBER HL109987 WAS OMITTED FROM THIS PROPERTY IN ERROR AND WAS ADDED AND CERTIFIED ON 1996/07/26 BY ANNE FLEMING.
17485	1018	CORRECTION: INSTRUMENT NUMBER LT273719 WAS ENTERED IN ERROR AGAINST THIS PROPERTY AND WAS REMOVED AND CERTIFIED ON 2002/04/25 BY ANNE MARIE BERTRAND.
17485	1022	CORRECTION: INSTRUMENT NUMBER LT273719 WAS ENTERED IN ERROR AGAINST THIS PROPERTY AND WAS REMOVED AND CERTIFIED ON 2002/06/26 BY BELLE FIAMELLI.
17485	1040	CORRECTION: INSTRUMENT NUMBER 62R14796 WAS OMITTED FROM THIS PROPERTY IN ERROR AND WAS ADDED AND CERTIFIED ON 1999/06/07 BY PETER GAIGAL.
17485	1112	CORRECTION: INSTRUMENT NUMBER VM189885 WAS OMITTED FROM THIS PROPERTY IN ERROR AND WAS ADDED AND CERTIFIED ON 2003/05/05 BY DORRIE MORLEY.
17486	0102	CORRECTION: INSTRUMENT NUMBER VM72811 WAS ENTERED IN ERROR AGAINST THIS PROPERTY AND WAS REMOVED AND CERTIFIED ON 1998/02/11 BY CINDY JOHNSON.
17492	0199	CORRECTION: INSTRUMENT NUMBER LT490783 WAS OMITTED FROM THIS PROPERTY IN ERROR AND WAS ADDED AND CERTIFIED ON 1998/02/17 BY GAIL BUXTON.
17492	0344	CORRECTION: INSTRUMENT NUMBER LT474905 WAS OMITTED FROM THIS PROPERTY IN ERROR AND WAS ADDED AND CERTIFIED ON 1998/03/24 BY ERIC CANNON. CORRECTION: INSTRUMENT NUMBER LT479773 WAS OMITTED FROM THIS PROPERTY IN ERROR AND WAS ADDED AND CERTIFIED ON 1998/03/
17492	0345	CORRECTION: INSTRUMENT NUMBER LT474905 WAS OMITTED FROM THIS PROPERTY IN ERROR AND WAS ADDED AND CERTIFIED ON 1998/03/24 BY ERIC CANNON. CORRECTION: INSTRUMENT NUMBER LT479773 WAS OMITTED FROM THIS PROPERTY IN ERROR AND WAS ADDED AND CERTIFIED ON 1998/03/
17492	0346	CORRECTION: INSTRUMENT NUMBER LT474905 WAS OMITTED FROM THIS PROPERTY IN ERROR AND WAS ADDED AND CERTIFIED ON 1998/03/24 BY ERIC CANNON. CORRECTION: INSTRUMENT NUMBER LT479773 WAS OMITTED FROM THIS PROPERTY IN ERROR AND WAS ADDED AND CERTIFIED ON 1998/03/
17492	0347	CORRECTION: INSTRUMENT NUMBER LT474905 WAS OMITTED FROM THIS PROPERTY IN ERROR AND WAS ADDED AND CERTIFIED ON 1998/03/24 BY ERIC CANNON. CORRECTION: INSTRUMENT NUMBER LT479773 WAS OMITTED FROM THIS PROPERTY IN ERROR AND WAS ADDED AND CERTIFIED ON 1998/03/
17492	0348	CORRECTION: INSTRUMENT NUMBER LT474905 WAS OMITTED FROM THIS PROPERTY IN ERROR AND WAS ADDED AND CERTIFIED ON 1998/03/24 BY ERIC CANNON. CORRECTION: INSTRUMENT NUMBER LT479773 WAS OMITTED FROM THIS PROPERTY IN ERROR AND WAS ADDED AND CERTIFIED ON 1998/03/
17492	0349	CORRECTION: INSTRUMENT NUMBER LT474905 WAS OMITTED FROM THIS PROPERTY IN ERROR AND WAS ADDED AND CERTIFIED ON 1998/03/24 BY ERIC CANNON. CORRECTION: INSTRUMENT NUMBER LT479773 WAS OMITTED FROM THIS PROPERTY IN ERROR AND WAS ADDED AND CERTIFIED ON 1998/03/
17492	0350	CORRECTION: INSTRUMENT NUMBER LT474905 WAS OMITTED FROM THIS PROPERTY IN ERROR AND WAS ADDED AND CERTIFIED ON 1998/03/24 BY ERIC CANNON. CORRECTION: INSTRUMENT NUMBER LT479773 WAS OMITTED FROM THIS PROPERTY IN ERROR AND WAS ADDED AND CERTIFIED ON 1998/03/
17492	0351	CORRECTION: INSTRUMENT NUMBER LT474905 WAS OMITTED FROM THIS PROPERTY IN ERROR AND WAS ADDED AND CERTIFIED ON 1998/03/24 BY ERIC CANNON. CORRECTION: INSTRUMENT NUMBER LT479773 WAS OMITTED FROM THIS PROPERTY IN ERROR AND WAS ADDED AND CERTIFIED ON 1998/03/
17492	0352	CORRECTION: INSTRUMENT NUMBER LT474905 WAS OMITTED FROM THIS PROPERTY IN ERROR AND WAS ADDED AND CERTIFIED ON 1998/03/24 BY ERIC CANNON. CORRECTION: INSTRUMENT NUMBER LT479773 WAS OMITTED FROM THIS PROPERTY IN ERROR AND WAS ADDED AND CERTIFIED ON 1998/03/
17492	0353	CORRECTION: INSTRUMENT NUMBER LT474905 WAS OMITTED FROM THIS PROPERTY IN ERROR AND WAS ADDED AND CERTIFIED ON 1998/03/24 BY ERIC CANNON. CORRECTION: INSTRUMENT NUMBER LT479773 WAS OMITTED FROM THIS PROPERTY IN ERROR AND WAS ADDED AND CERTIFIED ON 1998/03/
17492	0354	CORRECTION: INSTRUMENT NUMBER LT474905 WAS OMITTED FROM THIS PROPERTY IN ERROR AND WAS ADDED AND CERTIFIED ON 1998/03/24 BY ERIC CANNON. CORRECTION: INSTRUMENT NUMBER LT479773 WAS OMITTED FROM THIS PROPERTY IN ERROR AND WAS ADDED AND CERTIFIED ON 1998/03/
17492	0355	CORRECTION: INSTRUMENT NUMBER LT474905 WAS OMITTED FROM THIS PROPERTY IN ERROR AND WAS ADDED AND CERTIFIED ON 1998/03/24 BY ERIC CANNON. CORRECTION: INSTRUMENT NUMBER LT479773 WAS OMITTED FROM THIS PROPERTY IN ERROR AND WAS ADDED AND CERTIFIED ON 1998/03/
17492	0357	CORRECTION: INSTRUMENT NUMBER LT474905 WAS OMITTED FROM THIS PROPERTY IN ERROR AND WAS ADDED AND CERTIFIED ON 1998/03/24 BY ERIC CANNON. CORRECTION: INSTRUMENT NUMBER LT479773 WAS OMITTED FROM THIS PROPERTY IN ERROR AND WAS ADDED AND CERTIFIED ON 1998/03/
17492	0401	CORRECTION: INSTRUMENT NUMBER LT474905 WAS OMITTED FROM THIS PROPERTY IN ERROR AND WAS ADDED AND CERTIFIED ON 2001/12/05 BY CHRISTINE HOARAN. CORRECTION: INSTRUMENT NUMBER LT335274 WAS OMITTED FROM THIS PROPERTY IN ERROR AND WAS ADDED AND CERTIFIED ON 200
17492	0402	CORRECTION: INSTRUMENT NUMBER LT474905 WAS OMITTED FROM THIS PROPERTY IN ERROR AND WAS ADDED AND CERTIFIED ON 2001/12/05 BY CHRISTINE HOARAN. CORRECTION: INSTRUMENT NUMBER LT335274 WAS OMITTED FROM THIS PROPERTY IN ERROR AND WAS ADDED AND CERTIFIED ON 200
17494	0062	PLANNING ACT CONSENT OBTAINED IN WE240923.
17500	0068	PLAN M9 IS NOT A PLAN OF SUBDIVISION WITHIN THE MEANING OF THE PLANNING ACT.
17500	0096	PLAN M12 IS NOT A PLAN OF SUBDIVISION WITHIN THE MEANING OF THE PLANNING ACT.
17500	0110	PLAN M12 IS NOT A PLAN OF SUBDIVISION WITHIN THE MEANING OF THE PLANNING ACT.
17500	0115	THE FOLLOWING REMARK HAS BEEN ADDED ON 1998/01/05 AT 14:12 BY LAND REGISTRAR 2 : PLAN M12 IS NOT A PLAN OF SUBDIVISION WITHIN THE MEANING OF THE PLANNING ACT.
17500	0120	PLAN M12 IS NOT A PLAN OF SUBDIVISION WITHIN THE MEANING OF THE PLANNING ACT.
17500	0140	PLAN M12 IS NOT A PLAN OF SUBDIVISION WITHIN THE MEANING OF THE PLANNING ACT.
17500	0142	PLAN M12 IS NOT A PLAN OF SUBDIVISION WITHIN THE MEANING OF THE PLANNING ACT.
17500	0145	THE FOLLOWING REMARK HAS BEEN ADDED ON 1998/01/05 AT 14:25 BY LAND REGISTRAR 2 : PLAN M12 IS NOT A PLAN OF SUBDIVISION WITHIN THE MEANING OF THE PLANNING ACT.
17500	0157	PLAN M12 IS NOT A PLAN OF SUBDIVISION WITHIN THE MEANING OF THE PLANNING ACT.
17500	0180	THE FOLLOWING REMARK HAS BEEN ADDED ON 1998/01/05 AT 15:30 BY LAND REGISTRAR 2 : PLAN M12 IS NOT A PLAN OF SUBDIVISION WITHIN THE MEANING OF THE PLANNING ACT.
17500	0186	PLAN M12 IS NOT A PLAN OF SUBDIVISION WITHIN THE MEANING OF THE PLANNING ACT.
17500	0224	SUBJECT TO SUBSECTION 44(1) OF THE LAND TITLES ACT, EXCEPT PARAGRAPHS 11 AND 14, PROVINCIAL SUCCESSION DUTIES AND ESCHEATS OR FORFEITURE TO THE CROWN UP TO THE DATE OF CONVERSION AND EXCEPT PARAGRAPHS 3 AND 14 THEREAFTER.
17500	0226	SUBJECT TO SUBSECTION 44(1) OF THE LAND TITLES ACT, EXCEPT PARAGRAPHS 11 AND 14, PROVINCIAL SUCCESSION DUTIES AND ESCHEATS OR FORFEITURE TO THE CROWN UP TO THE DATE OF CONVERSION AND EXCEPT PARAGRAPHS 3 AND 14 THEREAFTER.
17500	0227	SUBJECT TO SUBSECTION 44(1) OF THE LAND TITLES ACT, EXCEPT PARAGRAPHS 11 & 14, PROVINCIAL SUCCESSION DUTIES AND ESCHEATS OR FORFEITURE TO THE CROWN UP TO THE DATE OF CONVERSION AND EXCEPT PARAGRAPHS 3 & 14 THEREAFTER.
17500	0228	SUBJECT TO SUBSECTION 44(1) OF THE LAND TITLES ACT, EXCEPT PARAGRAPHS 11 & 14, PROVINCIAL SUCCESSION DUTIES AND ESCHEATS OR FORFEITURE TO THE CROWN UP TO THE DATE OF CONVERSION AND EXCEPTS PARAGRAPHS 3 AND 14 THEREAFTER.
17501	0005	PLAN M10 IS NOT A PLAN OF SUBDIVISION WITHIN THE MEANING OF THE PLANNING ACT. CORRECTION: DOCUMENT WE10056121 ADDED TO 17501-0005 ON 2023/01/25 AT 23:10 BY STURINO, NADINE. CORRECTION: DOCUMENT WE10056121 REMOVED FROM 17501-0005 ON 2023/05/10 AT 15:42 BY
17501	0012	PLAN M10 IS NOT A PLAN OF SUBDIVISION WITHIN THE MEANING OF THE PLANNING ACT.
17501	0022	THE FOLLOWING REMARK HAS BEEN ADDED ON 1997/12/29 AT 10:33 BY LAND REGISTRAR 2 : PLAN M10 IS NOT A PLAN OF SUBDIVISION WITHIN THE MEANING OF THE PLANNING ACT.
17501	0024	PLAN M10 IS NOT A PLAN OF SUBDIVISION WITHIN THE MEANING OF THE PLANNING ACT.
17501	0045	PLAN M10 IS NOT A PLAN OF SUBDIVISION WITHIN THE MEANING OF THE PLANNING ACT.
17501	0051	PLAN M10 IS NOT A PLAN OF SUBDIVISION WITHIN THE MEANING OF THE PLANNING ACT.
17501	0108	CORRECTION: INSTRUMENT NUMBER LT383960 WAS OMITTED FROM THIS PROPERTY IN ERROR AND WAS ADDED AND CERTIFIED ON 2006/02/21 BY CINDY JOHNSON.
17503	0002	CORRECTION: DOCUMENT WE10056070 REMOVED FROM 17503-0002 ON 2023/01/14 AT 22:07 BY STURINO, NADINE. CORRECTION: DOCUMENT WE10056121 REMOVED FROM 17503-0002 ON 2023/01/14 AT 22:12 BY STURINO, NADINE. CORRECTION: DOCUMENT WE10056121 REMOVED FROM 17503-0002 O
17503	0003	CORRECTION: DOCUMENT WE10056070 REMOVED FROM 17503-0003 ON 2023/01/14 AT 22:07 BY STURINO, NADINE. CORRECTION: DOCUMENT WE10056070 REMOVED FROM 17503-0003 ON 2023/01/16 AT 11:46 BY STURINO, NADINE. CORRECTION: DOCUMENT WE10056070 REMOVED FROM 17503-0003 O
17503	0004	CORRECTION: DOCUMENT WE10056070 REMOVED FROM 17503-0004 ON 2023/01/14 AT 22:07 BY STURINO, NADINE. CORRECTION: DOCUMENT WE10056070 REMOVED FROM 17503-0004 ON 2023/01/16 AT 11:46 BY STURINO, NADINE. CORRECTION: DOCUMENT WE10056070 REMOVED FROM 17503-0004 O
17503	0005	CORRECTION: DOCUMENT WE10056070 REMOVED FROM 17503-0005 ON 2023/01/14 AT 22:07 BY STURINO, NADINE. CORRECTION: DOCUMENT WE10056070 REMOVED FROM 17503-0005 ON 2023/01/16 AT 11:46 BY STURINO, NADINE. CORRECTION: DOCUMENT WE10056070 REMOVED FROM 17503-0005 O
17503	0006	CORRECTION: DOCUMENT WE10056121 REMOVED FROM 17503-0006 ON 2023/05/10 AT 15:42 BY STURINO, NADINE.
17503	0032	CORRECTION: INSTRUMENT NUMBER 62R13393 WAS OMITTED FROM THIS PROPERTY IN ERROR AND WAS ADDED AND CERTIFIED ON 1995/11/28 BY JEFF GILBERT.
17503	0033	CORRECTION: INSTRUMENT NUMBER 62R13393 WAS OMITTED FROM THIS PROPERTY IN ERROR AND WAS ADDED AND CERTIFIED ON 1995/11/28 BY JEFF GILBERT.
17503	0214	CORRECTION: INSTRUMENT NUMBER LT144786 WAS OMITTED FROM THIS PROPERTY IN ERROR AND WAS ADDED AND CERTIFIED ON 2003/04/08 BY ANNETTE VAN DUYN.
17504	0004	CORRECTION: DOCUMENT WE10056121 REMOVED FROM 17504-0004 ON 2023/05/10 AT 15:42 BY STURINO, NADINE.
17504	0007	CORRECTION: DOCUMENT WE10056121 REMOVED FROM 17504-0007 ON 2023/05/10 AT 15:41 BY STURINO, NADINE.
17504	0008	CORRECTION: DOCUMENT WE10056121 REMOVED FROM 17504-0008 ON 2023/05/10 AT 15:41 BY STURINO, NADINE.
17504	0009	CORRECTION: DOCUMENT WE10056121 REMOVED FROM 17504-0009 ON 2023/05/10 AT 15:41 BY STURINO, NADINE.
17504	0010	CORRECTION: DOCUMENT WE10056121 REMOVED FROM 17504-0010 ON 2023/05/10 AT 15:41 BY STURINO, NADINE.
17504	0011	CORRECTION: DOCUMENT WE10056121 REMOVED FROM 17504-0011 ON 2023/05/10 AT 15:41 BY STURINO, NADINE.
17504	0012	CORRECTION: DOCUMENT WE10056121 REMOVED FROM 17504-0012 ON 2023/05/10 AT 15:41 BY STURINO, NADINE.
17504	0013	CORRECTION: DOCUMENT WE10056121 REMOVED FROM 17504-0013 ON 2023/05/10 AT 15:41 BY STURINO, NADINE.
17504	0014	CORRECTION: DOCUMENT WE10056121 REMOVED FROM 17504-0014 ON 2023/05/10 AT 15:41 BY STURINO, NADINE.
17504	0015	CORRECTION: DOCUMENT WE10056121 REMOVED FROM 17504-0015 ON 2023/05/10 AT 15:41 BY STURINO, NADINE.
17504	0016	CORRECTION: DOCUMENT WE10056121 REMOVED FROM 17504-0016 ON 2023/05/10 AT 15:41 BY STURINO, NADINE.
17504	0017	CORRECTION: DOCUMENT WE10056121 REMOVED FROM 17504-0017 ON 2023/05/10 AT 15:41 BY STURINO, NADINE.
17504	0018	CORRECTION: DOCUMENT WE10056121 REMOVED FROM 17504-0018 ON 2023/05/10 AT 15:41 BY STURINO, NADINE.
17504	0019	CORRECTION: DOCUMENT WE10056121 REMOVED FROM 17504-0019 ON 2023/05/10 AT 15:41 BY STURINO, NADINE.
17504	0020	CORRECTION: DOCUMENT WE10056121 REMOVED FROM 17504-0020 ON 2023/05/10 AT 15:41 BY STURINO, NADINE.
17504	0021	CORRECTION: DOCUMENT WE10056121 REMOVED FROM 17504-0021 ON 2023/05/10 AT 15:41 BY STURINO, NADINE.
17504	0022	CORRECTION: DOCUMENT WE10056121 REMOVED FROM 17504-0022 ON 2023/05/10 AT 15:41 BY STURINO, NADINE.
17504	0023	CORRECTION: DOCUMENT WE10056121 REMOVED FROM 17504-0023 ON 2023/05/10 AT 15:41 BY STURINO, NADINE.
17504	0024	CORRECTION: DOCUMENT WE10056121 REMOVED FROM 17504-0024 ON 2023/05/10 AT 15:41 BY STURINO, NADINE.
17504	0025	CORRECTION: DOCUMENT WE10056121 REMOVED FROM 17504-0025 ON 2023/05/10 AT 15:41 BY STURINO, NADINE.
17504	0026	CORRECTION: DOCUMENT WE10056121 REMOVED FROM 17504-0026 ON 2023/05/10 AT 15:41 BY STURINO, NADINE.
17504	0027	CORRECTION: DOCUMENT WE10056121 REMOVED FROM 17504-0027 ON 2023/05/10 AT 15:41 BY STURINO, NADINE.
17504	0028	CORRECTION: DOCUMENT WE10056121 REMOVED FROM 17504-0028 ON 2023/05/10 AT 15:41 BY STURINO, NADINE.
17504	0029	CORRECTION: DOCUMENT WE10056121 REMOVED FROM 17504-0029 ON 2023/05/10 AT 15:41 BY STURINO, NADINE.
17504	0032	CORRECTION: DOCUMENT WE10056121 REMOVED FROM 17504-0032 ON 2023/05/10 AT 15:41 BY STURINO, NADINE.
17504	0043	CORRECTION: DOCUMENT WE10056121 REMOVED FROM 17504-0043 ON 2023/05/10 AT 15:41 BY STURINO, NADINE.
17504	0044	CORRECTION: DOCUMENT WE10056121 REMOVED FROM 17504-0044 ON 2023/05/10 AT 15:40 BY STURINO, NADINE.
17505	0073	M6 IS NOT A PLAN OF SUBDIVISION WITHIN THE MEANING OF THE PLANNING ACT.
17505	0187	PLAN M-6 IS NOT A PLAN OF SUBDIVISION WITHIN THE MEANING OF THE PLANNING ACT.
17505	0208	THE FOLLOWING REMARK HAS BEEN ADDED ON 1997/12/17 AT 09:53 BY LAND REGISTRAR 2 : PLAN M6 IS NOT A PLAN OF SUBDIVISION WITHIN THE MEANING OF THE PLANNING ACT.
17505	0223	PLAN M-6 IS NOT A PLAN OF SUBDIVISION WITHIN THE MEANING OF THE PLANNING ACT.
17505	0224	PLAN M-6 IS NOT A PLAN OF SUBDIVISION WITHIN THE MEANING OF THE PLANNING ACT.
17506	0004	PLAN M5 IS NOT A PLAN OF SUBDIVISION WITHIN THE MEANING OF THE PLANNING ACT.
17506	0028	PLAN M5 IS NOT A PLAN OF SUBDIVISION WITHIN THE MEANING OF THE PLANNING ACT.
17506	0052	PLAN M5 IS NOT A PLAN OF SUBDIVISION WITHIN THE MEANING OF THE PLANNING ACT.
17506	0055	PLAN M5 IS NOT A PLAN OF SUBDIVISION WITHIN THE MEANING OF THE PLANNING ACT.
17506	0081	PLAN M5 IS NOT A PLAN OF SUBDIVISION WITHIN THE MEANING OF THE PLANNING ACT.
17506	0103	PLAN M5 IS NOT A PLAN OF SUBDIVISION WITHIN THE MEANING OF THE PLANNING ACT.
17506	0104	PLAN M5 IS NOT A PLAN OF SUBDIVISION WITHIN THE MEANING OF THE PLANNING ACT.
17506	0107	PLAN M5 IS NOT A PLAN OF SUBDIVISION WITHIN THE MEANING OF THE PLANNING ACT.
17506	0120	THE FOLLOWING REMARK HAS BEEN ADDED ON 1997/12/04 AT 11:35 BY LAND REGISTRAR 2 : PLAN M5 IS NOT A PLAN OF SUBVDIVISION WITHIN THE MEANING OF THE PLANNING ACT.
17506	0125	PLAN M5 IS NOT A PLAN OF SUBDIVISION WITHIN THE MEANING OF THE PLANNING ACT.
17506	0127	PLAN M5 IS NOT A PLAN OF SUBDIVISION WITHIN THE MEANING OF THE PLANNING ACT.
17506	0129	PLAN M5 IS NOT A PLAN OF SUBDIVISION WITHIN THE MEANING OF THE PLANNING ACT.
17506	0132	THE FOLLOWING REMARK HAS BEEN ADDED ON 1997/12/04 AT 11:37 BY LAND REGISTRAR 2 : PLAN M5 IS NOT A PLAN OF SUBDIVISION WITHIN THE MEANING OF THE PLANNING ACT.
17506	0136	THE FOLLOWING REMARK HAS BEEN ADDED ON 1997/12/04 AT 11:39 BY LAND REGISTRAR 2 : PLAN M5 IS NOT A PLAN OF SUBDIVISION WITHIN THE MEANING OF THE PLANNING ACT.
17506	0144	PLAN M5 IS NOT A PLAN OF SUBDIVISION WITHIN THE MEANING OF THE PLANNING ACT.
17506	0166	PLAN M6 IS NOT A PLAN OF SUBDIVISION WITHIN THE MEANING OF THE PLANNING ACT.
17506	0203	PLAN M6 IS NOT A PLAN OF SUBDIVISION WITHIN THE MEANING OF THE PLANNING ACT.
17506	0205	PLAN M6 IS NOT A PLAN OF SUBDIVISION WITHIN THE MEANING OF THE PLANNING ACT.
17506	0207	PLAN M6 IS NOT A PLAN OF SUBDIVISION WITHIN THE MEANING OF THE PLANNING ACT.
17506	0208	THE FOLLOWING REMARK HAS BEEN ADDED ON 1997/12/04 AT 16:37 BY LAND REGISTRAR 2 : PLAN M6 IS NOT A PLAN OF SUBDIVISION WITHIN THE MEANING OF THE PLANNING ACT.
17506	0218	PLAN M6 IS NOT A PLAN OF SUBDIVISION WITHIN THE MEANING OF THE PLANNING ACT.
17506	0240	PLAN M6 IS NOT A PLAN OF SUBDIVISION WITHIN THE MEANING OF THE PLANNING ACT.
17506	0329	PLAN M5 IS NOT A PLAN OF SUBDIVISION WITHIN THE MEANING OF THE PLANNING ACT.
17507	0007	PLAN M7 IS NOT A PLAN OF SUBDIVISION WITHIN THE MEANING OF THE PLANNING ACT.
17507	0017	PLAN M7 IS NOT A PLAN OF SUBDIVISION WITHIN THE MEANING OF THE PLANNING ACT.
17507	0039	PLAN M7 IS NOT A PLAN OF SUBDIVISION WITHIN THE MEANING OF THE PLANNING ACT.
17507	0061	PLAN M7 IS NOT A PLAN OF SUBDIVISION WITHIN THE MEANING OF THE PLANNING ACT.
17507	0074	PLAN M7 IS NOT A PLAN OF SUBDIVISION WITHIN THE MEANING OF THE PLANNING ACT.
17507	0078	PLAN M7 IS NOT A PLAN OF SUBDIVISION WITHIN THE MEANING OF THE PLANNING ACT.
17507	0088	PLAN M7 IS NOT A PLAN OF SUBDIVISION WITHIN THE MEANING OF THE PLANNING ACT. THE FOLLOWING REMARK HAS BEEN ADDED ON 1997/12/18 AT 13:45 BY LAND REGISTRAR 2 : PLAN M7 IS NOT A PLAN OF SUBDIVISION WITHIN THE MEANING OF THE PLANNING ACT.
17507	0089	PLAN M7 IS NOT A PLAN OF SUBDIVISION WITHIN THE MEANING OF THE PLANNING ACT.
17507	0091	PLAN M8 IS NOT A PLAN OF SUBDIVISION WITHIN THE MEANING OF THE PLANNING ACT.
17507	0108	PLAN M8 IS NOT A PLAN OF SUBDIVISION WITHIN THE MEANING OF THE PLANNING ACT.
17507	0145	PLAN M8 IS NOT A PLAN OF SUBDIVISION WITHIN THE MEANING OF THE PLANNING ACT.
17507	0146	PLAN M8 IS NOT A PLAN OF SUBDIVISION WITHIN THE MEANING OF THE PLANNING ACT.
17507	0147	PLAN M8 IS NOT A PLAN OF SUBDIVISION WITHIN THE MEANING OF THE PLANNING ACT.
17507	0148	PLAN M8 IS NOT A PLAN OF SUBDIVISION WITHIN THE MEANING OF THE PLANNING ACT.
17507	0187	PLAN M8 IS NOT A PLAN OF SUBDIVISION WITHIN THE MEANING OF THE PLANNING ACT.
17507	0188	PLAN M8 IS NOT A PLAN OF SUBDIVISION WITHIN THE MEANING OF THE PLANNING ACT.
17507	0191	PLAN M8 IS NOT A PLAN OF SUBDIVISION WITHIN THE MEANING OF THE PLANNING ACT.
17507	0196	THE FOLLOWING REMARK HAS BEEN ADDED ON 1998/01/08 AT 12:58 BY LAND REGISTRAR 2 : PLAN M8 IS NOT A PLAN OF SUBDIVISION WITHIN THE MEANING OF THE PLANNING ACT.
17507	0199	THE FOLLOWING REMARK HAS BEEN ADDED ON 1998/01/12 AT 07:48 BY LAND REGISTRAR 2 : PLAN M8 IS NOT A PLAN OF SUBDIVISION WITHIN THE MEANING OF THE PLANNING ACT.
17507	0212	PLAN M8 IS NOT A PLAN OF SUBDIVISION WITHIN THE MEANING OF THE PLANNING ACT.
17507	0221	PLAN M8 IS NOT A PLAN OF SUBDIVISION WITHIN THE MEANING OF THE PLANNING ACT.
17507	0236	PLAN M8 IS NOT A PLAN OF SUBDIVISION WITHIN THE MEANING OF THE PLANNING ACT.
17507	0242	PLAN M8 IS IS NOT A PLAN OF SUBDIVISION WITHIN THE MEANING OF THE PLANNING ACT.
17507	0256	THE FOLLOWING REMARK HAS BEEN ADDED ON 1997/12/18 AT 10:55 BY LAND REGISTRAR 2 : PLAN M7 IS NOT A PLAN OF SUBDIVISION WITHIN THE MEANING OF THE PLANNING ACT.
17507	0274	PLAN M8 IS NOT A PLAN OF SUBDIVISION WITHIN THE MEANING OF THE PALNNING ACT.
17507	0283	PLAN 62M7 IS NOT A PLAN OF SUBDIVISION WITHIN THE MEANING OF THE PLANNING ACT.
17507	0290	PLAN 62M8 IS NOT A PLAN OF SUBDIVISION WITHIN THE MEANING OF THE PLANNING ACT.
17507	0292	PLAN 62M8 IS NOT A PLAN OF SUBDIVISION WITHIN THE MEANING OF THE PLANNING ACT.
17507	0294	PLAN 62M8 IS NOT A PLAN OF SUBDIVISION WITHIN THE MEANING OF THE PLANNING ACT.
17507	0295	PLAN 62M8 IS NOT A PLAN OF SUBDIVISION WITHIN THE MEANING OF THE PLANNING ACT.
17507	0297	PLAN 62M7 IS NOT A PLAN OF SUBDIVISION WITHIN THE MEANING OF THE PLANNING ACT.
17509	0009	CORRECTION: INSTRUMENT NUMBER WE72797 WAS ENTERED IN ERROR AGAINST THIS PROPERTY AND WAS REMOVED AND CERTIFIED ON 2002/01/22 BY ANNE MARIE BERTRAND.
17509	0023	CORRECTION: INSTRUMENT NUMBER LT74515Z WAS OMITTED FROM THIS PROPERTY IN ERROR AND WAS ADDED AND CERTIFIED ON 2001/01/22 BY MARLENE NICHOLLS.
17510	0542	THE FOLLOWING REMARK HAS BEEN ADDED ON 2006/09/28 AT 09:22 BY PETER GAIGAL : PLANNING ACT STATEMENTS IN WE110353.
17510	0567	CORRECTION: INSTRUMENT NUMBER 62R13863 WAS ENTERED IN ERROR AGAINST THIS PROPERTY AND WAS REMOVED AND CERTIFIED ON 1997/01/29 BY PETER GAIGAL.
17510	0904	CORRECTION: INSTRUMENT NUMBER LT402791 WAS ENTERED IN ERROR AGAINST THIS PROPERTY AND WAS REMOVED AND CERTIFIED ON 2002/01/25 BY ANNE MARIE BERTRAND. CORRECTION: INSTRUMENT NUMBER LT476217 WAS ENTERED IN ERROR AGAINST THIS PROPERTY AND WAS REMOVED AND CER
17514	0018	CORRECTION: INSTRUMENT NUMBER LT592258 WAS ENTERED IN ERROR AGAINST THIS PROPERTY AND WAS REMOVED AND CERTIFIED ON 2000/03/09 BY MARLENE NICHOLLS.
17514	0114	CORRECTION: INSTRUMENT NUMBER VM225297 WAS ENTERED IN ERROR AGAINST THIS PROPERTY AND WAS REMOVED AND CERTIFIED ON 1997/02/26 BY MARLENE HUNTER.
17514	0115	CORRECTION: INSTRUMENT NUMBER VM225297 WAS OMITTED FROM THIS PROPERTY IN ERROR AND WAS ADDED AND CERTIFIED ON 1997/02/26 BY MARLENE HUNTER.
17514	0215	COMMITTEE OF ADJUSTMENT CONSENT IN WE418395.
17521	0017	CORRECTION: INSTRUMENT NUMBER VM217207 WAS OMITTED FROM THIS PROPERTY IN ERROR AND WAS ADDED AND CERTIFIED ON 1998/11/26 BY CHRISTINE. CORRECTION: INSTRUMENT NUMBER VM222578 WAS OMITTED FROM THIS PROPERTY IN ERROR AND WAS ADDED AND CERTIFIED ON 1998/11/26
17523	0029	CORRECTION: INSTRUMENT NUMBER LT570290 WAS ENTERED IN ERROR AGAINST THIS PROPERTY AND WAS REMOVED AND CERTIFIED ON 2000/06/19 BY PETER GAIGAL. CORRECTION: INSTRUMENT NUMBER AB276776 WAS OMITTED FROM THIS PROPERTY IN ERROR AND WAS ADDED AND CERTIFIED ON 20
17523	0463	SUBJECT ON THE DATE OF REGISTRATION 97/05/14 TO SUBSECTION 44(1) OF THE LAND TITLES ACT, EXCEPT PARAGRAPHS 3 AND 14 THEREOF AND PROVINCIAL SUCCESSION DUTIES.
17523	0464	SUBJECT ON THE DATE OF REGISTRATION 97/05/14 TO SUBSECTION 44(1) OF THE LAND TITLES ACT, EXCEPT PARAGRAPHS 3 AND 14 THEREOF AND PROVINCIAL SUCCESSION DUTIES.
17524	0011	CORRECTION: INSTRUMENT NUMBER LT235512 WAS ENTERED IN ERROR AGAINST THIS PROPERTY AND WAS REMOVED AND CERTIFIED ON 1996/09/11 BY ERIC CANNON.
17525	0194	CORRECTION: INSTRUMENT NUMBER 62R14883 WAS ENTERED IN ERROR AGAINST THIS PROPERTY AND WAS REMOVED AND CERTIFIED ON 2000/12/04 BY AM BERTRAND.
17525	0195	CORRECTION: INSTRUMENT NUMBER 62R14883 WAS ENTERED IN ERROR AGAINST THIS PROPERTY AND WAS REMOVED AND CERTIFIED ON 2000/12/04 BY AM BERTRAND.
17525	0221	SUBJECT ON THE DATE OF REGISTRATION 99/09/03 TO SUBSECTION 44(1) OF THE LAND TITLES ACT, EXCEPT PARAGRAPHS 3 AND 14 AND PROVINCIAL SUCCESSION DUTIES.
17525	0222	THE FOLLOWING REMARK HAS BEEN ADDED ON 2006/03/02 AT 16:29 BY ANNETTE VAN DUYN : CONSENT LAND DIVISION COMMITTEE ON LT598434.
17525	0229	SUBJECT ON THE DATE OF REGISTRATION 99/09/03 TO SUBSECTION 44(1) OF THE LAND TITLES ACT, EXCEPT PARAGRAPHS 3 AND 14 AND PROVINCIAL SUCCESSIONDUTIES.
17525	0230	SUBJECT ON THE DATE OF REGISTRATION 99/09/03 TO SUBSECTION 44(1) OF THE LAND TITLES ACT, EXCEPT PARAGRAPHS 3 AND 14 AND PROVINCIAL SUCCESSION DUTIES. CORRECTION: INSTRUMENT NUMBER WE171128 WAS OMITTED FROM THIS PROPERTY IN ERROR AND WAS ADDED AND CERTIFIE
17526	0014	CORRECTION: INSTRUMENT NUMBER VM210971 WAS ENTERED IN ERROR AGAINST THIS PROPERTY AND WAS REMOVED AND CERTIFIED ON 1996/04/22 BY CATHY ROBERTS.
17526	0088	CORRECTION: INSTRUMENT NUMBER 62R-13438 WAS OMITTED FROM THIS PROPERTY IN ERROR AND WAS ADDED AND CERTIFIED ON 1997/06/17 BY ANNETTE VAN DUYN.
17527	0270	SUBJECT ON THE DATE OF REGISTRATION 99/02/03 TO SUBSECTION 44(1) OF THE LAND TITLES ACT, EXCEPT PARAGRAPHS 3 AND 14 THEREOF AND PROVINCIAL SUCCESSION DUTIES ; ANCASTER.
17530	0111	CORRECTION: INSTRUMENT NUMBER CD158939 WAS OMITTED FROM THIS PROPERTY IN ERROR AND WAS ADDED AND CERTIFIED ON 1998/05/11 BY ERIC CANNON. CORRECTION: INSTRUMENT NUMBER LT468389 WAS ENTERED IN ERROR AGAINST THIS PROPERTY AND WAS REMOVED AND CERTIFIED ON 199
17534	0096	THE FOLLOWING REMARK HAS BEEN ADDED ON 2004/07/28 AT 10:40 BY ANNETTE VAN DUYN : PLANNING ACT CONSENT ON LT419227.
17535	0120	CORRECTION: INSTRUMENT NUMBER 62R16074 WAS OMITTED FROM THIS PROPERTY IN ERROR AND WAS ADDED AND CERTIFIED ON 2004/11/10 BY ANNETTE VAN DUYN.
17536	0037	CORRECTION: INSTRUMENT NUMBER LT403446 WAS OMITTED FROM THIS PROPERTY IN ERROR AND WAS ADDED AND CERTIFIED ON 1996/04/26 BY DORRIE MORLEY.
17536	0209	CORRECTION: INSTRUMENT NUMBER LT447165 WAS OMITTED FROM THIS PROPERTY IN ERROR AND WAS ADDED AND CERTIFIED ON 2003/08/06 BY ANNETTE VAN DUYN.
17538	0031	CORRECTION: INSTRUMENT NUMBER HL311833 WAS OMITTED FROM THIS PROPERTY IN ERROR AND WAS ADDED AND CERTIFIED ON 1997/10/22 BY LAND REGISTRAR 2.
17538	0032	CORRECTION: INSTRUMENT NUMBER VM244265 WAS ENTERED IN ERROR AGAINST THIS PROPERTY AND WAS REMOVED AND CERTIFIED ON 1999/02/11 BY PETER GAIGAL.
17538	0078	CORRECTION: INSTRUMENT NUMBER VM244265 WAS OMITTED FROM THIS PROPERTY IN ERROR AND WAS ADDED AND CERTIFIED ON 1999/02/11 BY PETER GAIGAL.
17541	0005	CORRECTION: DOCUMENT WE10055826 REMOVED FROM 17541-0005 ON 2023/01/10 AT 13:14 BY STURINO, NADINE. CORRECTION: DOCUMENT WE10056070 REMOVED FROM 17541-0005 ON 2023/01/11 AT 11:34 BY STURINO, NADINE. CORRECTION: DOCUMENT WE10056070 REMOVED FROM 17541-0005 O
17541	0022	CORRECTION: DOCUMENT WE10055826 REMOVED FROM 17541-0022 ON 2023/01/10 AT 13:14 BY STURINO, NADINE.
17541	0052	CORRECTION: DOCUMENT WE10055826 REMOVED FROM 17541-0052 ON 2023/01/10 AT 13:14 BY STURINO, NADINE.
17542	0188	PIN CREATED 99/09/21 MN.
17545	0171	CORRECTION: INSTRUMENT NUMBER WF17892 WAS OMITTED FROM THIS PROPERTY IN ERROR AND WAS ADDED AND CERTIFIED ON 1997/05/01 BY MARIE STEWART. CORRECTION: INSTRUMENT NUMBER WF18015 WAS OMITTED FROM THIS PROPERTY IN ERROR AND WAS ADDED AND CERTIFIED ON 2000/02/
17551	0027	CORRECTION: INSTRUMENT NUMBER AB170255 WAS ENTERED IN ERROR AGAINST THIS PROPERTY AND WAS REMOVED AND CERTIFIED ON 2005/02/17 BY CRISSY DEL DUCA.
17552	0038	CORRECTION: INSTRUMENT NUMBER CM1010 WAS OMITTED FROM THIS PROPERTY IN ERROR AND WAS ADDED AND CERTIFIED ON 2001/01/04 BY AM BERTRAND. CORRECTION: INSTRUMENT NUMBER HL192689 WAS OMITTED FROM THIS PROPERTY IN ERROR AND WAS ADDED AND CERTIFIED ON 2001/01/04
17557	0156	THE FOLLOWING REMARK HAS BEEN ADDED ON 2003/10/10 AT 08:26 BY ANNETTE VAN DUYN : COMMITTEE OF ADJUSTMENT CONSENT ATTACHED TO WE188880.
17557	0190	PLANNING ACT CONSENT AS IN WE315511.
17560	0170	CONSENT OF LAND DIVISION COMMITTEE IN LT378005.
17562	0584	CORRECTION: INSTRUMENT NUMBER LT470885 WAS OMITTED FROM THIS PROPERTY IN ERROR AND WAS ADDED AND CERTIFIED ON 2002/05/15 BY ANNE MARIE BERTRAND.
17562	0621	CORRECTION: INSTRUMENT NUMBER LT580919 WAS OMITTED FROM THIS PROPERTY IN ERROR AND WAS ADDED AND CERTIFIED ON 2000/01/20 BY BELLE FIAMELLI.
17563	0175	CORRECTION: INSTRUMENT NUMBER LT445760 WAS OMITTED FROM THIS PROPERTY IN ERROR AND WAS ADDED AND CERTIFIED ON 1997/07/04 BY HELEN MERRILL. CORRECTION: INSTRUMENT NUMBER LT445760 WAS ENTERED IN ERROR AGAINST THIS PROPERTY AND WAS REMOVED AND CERTIFIED ON 1
17563	0360	" FOR THE PURPOSE OF THE QUALIFIER THE DATE OF REGISTRATION OF ABSOLUTE TITLE IS 2006/09/11".
17563	0361	" FOR THE PURPOSE OF THE QUALIFIER THE DATE OF REGISTRATION OF ABSOLUTE TITLE IS 2006/09/11".
17564	0901	SUBJECT ON THE DATE OF REGISTRATION 97/02/06 TO SUBSECTION 44(1) OF THE LAND TITLES ACT EXCEPT PARAGRAPH 3 AND 14 AND PROVINCIAL SUCCESSION DUTIES.
17564	0949	SUBJECT ON THE DATE OF REGISTRATION 97/02/06 TO SUBSECTION 44(1) OF THE LAND TITLES ACT EXCEPT PARAGRAPH 3 AND 14 AND PROVINCIAL SUCCESSION DUTIES.
17564	0950	SUBJECT ON THE DATE OF REGISTRATION 97/02/06 TO SUBSECTION 44(1) OF THE LAND TITLES ACT EXCEPT PARAGRAPH 3 AND 14 AND PROVINCIAL SUCCESSION DUTIES.
17564	0951	SUBJECT ON THE DATE OF REGISTRATION 97/02/06 TO SUBSECTION 44(1) OF THE LAND TITLES ACT EXCEPT PARAGRAPH 3 AND 14 AND PROVINCIAL SUCCESSION DUTIES.
17564	0952	SUBJECT ON THE DATE OF REGISTRATION 97/02/06 TO SUBSECTION 44(1) OF THE LAND TITLES ACT EXCEPT PARAGRAPH 3 AND 14 AND PROVINCIAL SUCCESSION DUTIES.
17564	0954	SUBJECT ON THE DATE OF REGISTRATION 97/02/06 TO SUBSECTION 44(1) OF THE LAND TITLES ACT EXCEPT PARAGRAPH 3 AND 14 AND PROVINCIAL SUCCESSION DUTIES.
17564	0955	SUBJECT ON THE DATE OF REGISTRATION 97/02/06 TO SUBSECTION 44(1) OF THE LAND TITLES ACT EXCEPT PARAGRAPH 3 AND 14 AND PROVINCIAL SUCCESSION DUTIES.
17564	0956	SUBJECT ON THE DATE OF REGISTRATION 97/02/06 TO SUBSECTION 44(1) OF THE LAND TITLES ACT EXCEPT PARAGRAPH 3 AND 14 AND PROVINCIAL SUCCESSION DUTIES.
17564	0957	SUBJECT ON THE DATE OF REGISTRATION 97/02/06 TO SUBSECTION 44(1) OF THE LAND TITLES ACT EXCEPT PARAGRAPH 3 AND 14 AND PROVINCIAL SUCCESSION DUTIES.
17565	0103	CORRECTION: INSTRUMENT NUMBER LT381663 WAS OMITTED FROM THIS PROPERTY IN ERROR AND WAS ADDED AND CERTIFIED ON 1995/11/09 BY JEFF GILBERT.
17565	0110	CORRECTION: INSTRUMENT NUMBER LT381663 WAS OMITTED FROM THIS PROPERTY IN ERROR AND WAS ADDED AND CERTIFIED ON 1995/11/09 BY JEFF GILBERT.
17565	0111	CORRECTION: INSTRUMENT NUMBER LT381663 WAS OMITTED FROM THIS PROPERTY IN ERROR AND WAS ADDED AND CERTIFIED ON 1995/11/09 BY JEFF GILBERT.
17565	0120	CORRECTION: INSTRUMENT NUMBER LT381663 WAS OMITTED FROM THIS PROPERTY IN ERROR AND WAS ADDED AND CERTIFIED ON 1995/11/09 BY JEFF GILBERT.
17565	0121	CORRECTION: INSTRUMENT NUMBER LT381663 WAS OMITTED FROM THIS PROPERTY IN ERROR AND WAS ADDED AND CERTIFIED ON 1995/11/09 BY JEFF GILBERT.
17565	0123	CORRECTION: INSTRUMENT NUMBER LT381663 WAS OMITTED FROM THIS PROPERTY IN ERROR AND WAS ADDED AND CERTIFIED ON 1995/11/09 BY JEFF GILBERT.
17565	0152	CORRECTION: INSTRUMENT NUMBER LT381663 WAS OMITTED FROM THIS PROPERTY IN ERROR AND WAS ADDED AND CERTIFIED ON 1995/11/09 BY JEFF GILBERT.
17565	0155	CORRECTION: INSTRUMENT NUMBER LT381663 WAS OMITTED FROM THIS PROPERTY IN ERROR AND WAS ADDED AND CERTIFIED ON 1995/11/09 BY JEFF GILBERT.
17565	0212	CORRECTION: INSTRUMENT NUMBER LT537432 WAS ENTERED IN ERROR AGAINST THIS PROPERTY AND WAS REMOVED AND CERTIFIED ON 1999/01/26 BY BELLE FIAMELLI.
17565	0232	CORRECTION: INSTRUMENT NUMBER LT537432 WAS ENTERED IN ERROR AGAINST THIS PROPERTY AND WAS REMOVED AND CERTIFIED ON 1999/01/26 BY BELLE FIAMELLI.
17565	0270	CORRECTION: INSTRUMENT NUMBER LT381663 WAS OMITTED FROM THIS PROPERTY IN ERROR AND WAS ADDED AND CERTIFIED ON 1995/11/09 BY JEFF GILBERT.
17565	0344	CORRECTION: INSTRUMENT NUMBER LT381663 WAS OMITTED FROM THIS PROPERTY IN ERROR AND WAS ADDED AND CERTIFIED ON 1995/11/09 BY JEFF GILBERT.
17565	0365	CORRECTION: INSTRUMENT NUMBER LT381663 WAS OMITTED FROM THIS PROPERTY IN ERROR AND WAS ADDED AND CERTIFIED ON 1995/11/09 BY JEFF GILBERT.
17565	0372	CORRECTION: INSTRUMENT NUMBER LT381663 WAS OMITTED FROM THIS PROPERTY IN ERROR AND WAS ADDED AND CERTIFIED ON 1995/11/09 BY JEFF GILBERT.
17565	0764	CORRECTION: INSTRUMENT NUMBER 62R7352 WAS OMITTED FROM THIS PROPERTY IN ERROR AND WAS ADDED AND CERTIFIED ON 1999/03/22 BY LAND REGISTRAR 2.
17565	1300	SUBJECT ON THE DATE OF REGISTRATION 98/08/17 TO SUBSECTION 44(1) OF THE LAND TITLES ACT, EXCEPT PARAGRAPHS 3 AND 14 THEREOF.
17565	1301	SUBJECT ON THE DATE OF REGISTRATION 98/03/10 TO SUBSECTION 44(1) OF THE LAND TITLES ACT, EXCEPT PARAGRAPHS 3 AND 14 THEREOF AND PROVINCIAL SUCCESSION DUTIES.
17565	1590	SUBJECT ON THE DATE OF REGISTRATION 98/08/17 TO SUBSECTION 44 (1) OF THE LAND TITLES ACT, EXCEPT PARAGRAPHS 3 AND 14 THEREOF.
17565	1615	SUBJECT ON THE DATE OF REGISTRATION 98/08/17 TO SUBSECTION 44(1) OF THE LAND TITLES ACT, EXCEPT PARAGRAPHS 3 AND 14 THEREOF.
17565	1622	SUBJECT ON THE DATE OF REGISTRATION 98/08/17 TO SUBSECTION 44(1) OF THE LAND TITLES ACT, EXCEPT PARAGRAPHS 3 AND 14 THEREOF.
17565	1635	SUBJECT ON THE DATE OF REGISTRATION 98/08/17 TO SUBSECTION 44(1) OF THE LAND TITLES ACT, EXCEPT PARAGRAPHS 3 AND 14 THEREOF.
17565	1639	SUBJECT ON THE DATE OF REGISTRATION 98/08/17 TO SUBSECTION 44(1) OF THE LAND TITLES ACT, EXCEPT PARAGRAPHS 3 AND 14 THEREOF.
17565	1692	SUBJECT ON THE DATE OF REGISTRATION 98/08/17 TO SUBSECTION 44(1) OF THE LAND TITLES ACT, EXCEPT PARAGRAPHS 3 AND 14 THEREOF.
17565	1950	SUBJECT TO SUBSECTION 44 (1) OF THE LAND TITLES ACT EXCEPT PARAGRAPHS 3 AND 14, AND PROVINCIAL SUCCESSION DUTIES AND EXCEPT PARAGRAPH 11 AND ESCHEATS OR FORFEITURE TO THE CROWN UP TO THE DATE OF REGISTRATIN WITH AN ABSOLUTE TITLE.
17565	1964	SUBJECT TO SUBSECTION 44 (1) OF THE LAND TITLES ACT EXCEPT PARAGRAPHS 3 AND 14, AND PROVINCIAL SUCCESSION DUTIES AND EXCEPT PARAGRAPH 11 AND ESCHEATS OR FORFEITURE TO THE CROWN UP TO THE DATE OF REGISTRATIN WITH AN ABSOLUTE TITLE.
17565	2205	SUBJECT TO SUBSECTION 44(1) OF THE LAND TITLES ACT, EXCEPT PARAGRAPHS 3 AND 14 AND PROVINCIAL SUCCESSION DUTIES AND EXCEPT PARAGRAPH 11 AND ESCHEATS OR FORFEITURE TO THE CROWN UP TO THE DATE OF REGISTRATION WITH AN ABSOLUTE TITLE. PLANNING ACT CONSENT ON
17565	2207	SUBJECT TO SUBSECTION 44 (1) OF THE LAND TITLES ACT EXCEPT PARAGRAPHS 3 AND 14, AND PROVINCIAL SUCCESSION DUTIES AND EXCEPT PARAGRAPH 11 AND ESCHEATS OR FORFEITURE TO THE CROWN UP TO THE DATE OF REGISTRATION WITH AN ABSOLUTE TITLE. PLANNING ACT CONSENT ON
17565	2209	SUBJECT TO SUBSECTION 44(1) OF THE LAND TITLES ACT EXCEPT PARAGRAPHS 3 AND 14, AND PROVINCIAL SUCCESSION DUTIES AND EXCEPT PARAGRAPH 11 ESCHEATS OR FORFEITURE TO THE CROWN UP TO THE DATE OF REGISTRATION WITH AN ABSOLUTE TITLE. PLANNING ACT CONSENT ON WE16
17565	2482	ON 2004/03/19 AT 09:16 THE ESTATE/QUALIFIER WERE CHANGED TO FEE SIMPLE ABSOLUTE FROM FEE SIMPLE LT CONVERSION QUALIFIED BY CHRISTINE HOARAN .
17565	2523	CORRECTION: INSTRUMENT NUMBER WE221718 WAS ENTERED IN ERROR AGAINST THIS PROPERTY AND WAS REMOVED AND CERTIFIED ON 2004/06/24 BY CHERYL LANGKAMER.
17566	0032	CORRECTION: INSTRUMENT NUMBER LT570515 WAS ENTERED IN ERROR AGAINST THIS PROPERTY AND WAS REMOVED AND CERTIFIED ON 1999/10/27 BY BELLE FIAMELLI.
17566	0034	CORRECTION: INSTRUMENT NUMBER LT570515 WAS ENTERED IN ERROR AGAINST THIS PROPERTY AND WAS REMOVED AND CERTIFIED ON 1999/10/27 BY BELLE FIAMELLI.
17566	0043	CORRECTION: INSTRUMENT NUMBER LT508148 WAS ENTERED IN ERROR AGAINST THIS PROPERTY AND WAS REMOVED AND CERTIFIED ON 2003/07/10 BY BELLE FIAMELLI. CORRECTION: INSTRUMENT NUMBER LT508516 WAS ENTERED IN ERROR AGAINST THIS PROPERTY AND WAS REMOVED AND CERTIFIE
17568	0002	THIS PARCEL WAS CREATED BASED ON INFORMATION CONTAINED IN DOCUMENT(S) AB326682, WHICH IS (ARE) RECORDED FOR PIN IDENTIFICATION ONLY.
17568	0020	THIS PARCEL WAS CREATED BASED ON INFORMATION CONTAINED IN DOCUMENT(S) VM234584, WHICH IS (ARE) RECORDED FOR PIN IDENTIFICATION ONLY.
17568	0023	THIS PARCEL WAS CREATED BASED ON INFORMATION CONTAINED IN DOCUMENT(S) CD239711, WHICH IS (ARE) RECORDED FOR PIN IDENTIFICATION ONLY.
17568	0027	THIS PARCEL WAS CREATED BASED ON INFORMATION CONTAINED IN DOCUMENT(S) AB68460, WHICH IS (ARE) RECORDED FOR PIN IDENTIFICATION ONLY.
17568	0031	THIS PARCEL WAS CREATED BASED ON INFORMATION CONTAINED IN DOCUMENT(S) CM439,CM466, WHICH IS (ARE) RECORDED FOR PIN IDENTIFICATION ONLY.
17568	0034	THIS PARCEL WAS CREATED BASED ON INFORMATION CONTAINED IN DOCUMENT(S) CD102933,CD104024,CD7558, WHICH IS (ARE) RECORDED FOR PIN IDENTIFICATION ONLY.
17568	0036	THIS PARCEL WAS CREATED BASED ON INFORMATION CONTAINED IN DOCUMENT(S) CD213090, WHICH IS (ARE) RECORDED FOR PIN IDENTIFICATION ONLY.
17568	0038	THIS PARCEL WAS CREATED BASED ON INFORMATION CONTAINED IN DOCUMENT(S) AB327146, WHICH IS (ARE) RECORDED FOR PIN IDENTIFICATION ONLY.
17568	0041	THIS PARCEL WAS CREATED BASED ON INFORMATION CONTAINED IN DOCUMENT(S) CD342765, WHICH IS (ARE) RECORDED FOR PIN IDENTIFICATION ONLY.
17568	0042	THIS PARCEL WAS CREATED BASED ON INFORMATION CONTAINED IN DOCUMENT(S) AB293380,AB338509,AB350768,CD120535, WHICH IS (ARE) RECORDED FOR PIN IDENTIFICATION ONLY.
17568	0044	THIS PARCEL WAS CREATED BASED ON INFORMATION CONTAINED IN DOCUMENT(S) AB329651,AB335789, WHICH IS (ARE) RECORDED FOR PIN IDENTIFICATION ONLY.
17568	0047	THIS PARCEL WAS CREATED BASED ON INFORMATION CONTAINED IN DOCUMENT(S) AB322741,AB330355, WHICH IS (ARE) RECORDED FOR PIN IDENTIFICATION ONLY.
17568	0052	THIS PARCEL WAS CREATED BASED ON INFORMATION CONTAINED IN DOCUMENT(S) SA55571, WHICH IS (ARE) RECORDED FOR PIN IDENTIFICATION ONLY.
17568	0054	THIS PARCEL WAS CREATED BASED ON INFORMATION CONTAINED IN DOCUMENT(S) WHICH IS (ARE) RECORDED FOR PIN IDENTIFICATION ONLY.
17568	0055	THIS PARCEL WAS CREATED BASED ON INFORMATION CONTAINED IN DOCUMENT(S) CD261824, WHICH IS (ARE) RECORDED FOR PIN IDENTIFICATION ONLY.
17568	0079	THIS PARCEL WAS CREATED BASED ON INFORMATION CONTAINED IN DOCUMENT(S) CD309381, WHICH IS (ARE) RECORDED FOR PIN IDENTIFICATION ONLY.
17568	0088	THIS PARCEL WAS CREATED BASED ON INFORMATION CONTAINED IN DOCUMENT(S) CD7558, WHICH IS (ARE) RECORDED FOR PIN IDENTIFICATION ONLY.
17568	0098	THIS PARCEL WAS CREATED BASED ON INFORMATION CONTAINED IN DOCUMENT(S) VM183321, WHICH IS (ARE) RECORDED FOR PIN IDENTIFICATION ONLY.
17568	0104	THIS PARCEL WAS CREATED BASED ON INFORMATION CONTAINED IN DOCUMENT(S) CD254000, WHICH IS (ARE) RECORDED FOR PIN IDENTIFICATION ONLY.
17568	0120	THIS PARCEL WAS CREATED BASED ON INFORMATION CONTAINED IN DOCUMENT(S) CD262223, WHICH IS (ARE) RECORDED FOR PIN IDENTIFICATION ONLY.
17568	0127	THIS PARCEL WAS CREATED BASED ON INFORMATION CONTAINED IN DOCUMENT(S) CD7558, WHICH IS (ARE) RECORDED FOR PIN IDENTIFICATION ONLY.
17568	0134	THIS PARCEL WAS CREATED BASED ON INFORMATION CONTAINED IN DOCUMENT(S) WHICH IS (ARE) RECORDED FOR PIN IDENTIFICATION ONLY.
17568	0138	THIS PARCEL WAS CREATED BASED ON INFORMATION CONTAINED IN DOCUMENT(S):WHICH IS (ARE) RECORDED FOR PIN IDENTIFICATION ONLY.
17568	0145	THIS PARCEL WAS CREATED BASED ON INFORMATION CONTAINED IN DOCUMENT(S):CD102933, CD104024, CD7558 SAVE & EXECPT PTS 11 & 12 ON 62R-15601 WHICH IS (ARE) RECORDED FOR PIN IDENTIFICATION ONLY.
17568	0156	THIS PARCEL WAS CREATED BASED ON INFORMATION CONTAINED IN DOCUMENT(S):WHICH IS (ARE) RECORDED FOR PIN IDENTIFICATION ONLY.
17568	0160	THIS PARCEL WAS CREATED BASED ON INFORMATION CONTAINED IN DOCUMENT(S):CD102933, CD104024, CD7588, SAVE & EXCEPT PTS 10, 11 & 12, 62R15601 WHICH IS (ARE) RECORDED FOR PIN IDENTIFICATION ONLY.
17568	0165	THIS PARCEL WAS CREATED BASED ON INFORMATION CONTAINED IN DOCUMENT(S):CD7558, EXCEPT PT 2 ON 62R16307 WHICH IS (ARE) RECORDED FOR PIN IDENTIFICATION ONLY.
17568	0167	THIS PARCEL WAS CREATED BASED ON INFORMATION CONTAINED IN DOCUMENT(S):CD102933, CD104024, CD7588, SAVE & EXCEPT PTS 7, 8, 10, 11, & 12 ON 62R15601 WHICH IS (ARE) RECORDED FOR PIN INDENTIFICATION ONLY.
17568	0168	DIVISION FROM 17568 - 0160, THIS PARCEL WAS CREATED BASED ON INFORMATION CONTAINED IN DOCUMENT(S) : CD102933, CD104024, CD7588, SAVE & EXCEPT PTS 10, 11, 12 62R15601.
17569	0012	THIS PARCEL WAS CREATED BASED ON INFORMATION CONTAINED IN DOCUMENT(S) VM196338, WHICH IS (ARE) RECORDED FOR PIN IDENTIFICATION ONLY.
17569	0022	THIS PARCEL WAS CREATED BASED ON INFORMATION CONTAINED IN DOCUMENT(S) CD158851,CD55635,CD71613,CD7558, WHICH IS (ARE) RECORDED FOR PIN IDENTIFICATION ONLY.
17569	0031	THIS PARCEL WAS CREATED BASED ON INFORMATION CONTAINED IN DOCUMENT(S) VM2159, WHICH IS (ARE) RECORDED FOR PIN IDENTIFICATION ONLY.
17569	0032	THIS PARCEL WAS CREATED BASED ON INFORMATION CONTAINED IN DOCUMENT(S) CD378603, WHICH IS (ARE) RECORDED FOR PIN IDENTIFICATION ONLY.
17569	0038	THIS PARCEL WAS CREATED BASED ON INFORMATION CONTAINED IN DOCUMENT(S) VM157858, WHICH IS (ARE) RECORDED FOR PIN IDENTIFICATION ONLY.
17569	0055	THIS PARCEL WAS CREATED BASED ON INFORMATION CONTAINED IN DOCUMENT(S) CD7558, WHICH IS (ARE) RECORDED FOR PIN IDENTIFICATION ONLY.
17569	0059	THIS PARCEL WAS CREATED BASED ON INFORMATION CONTAINED IN DOCUMENT(S) CD48037, WHICH IS (ARE) RECORDED FOR PIN IDENTIFICATION ONLY.
17569	0066	THIS PARCEL WAS CREATED BASED ON INFORMATION CONTAINED IN DOCUMENT(S) VM39805, WHICH IS (ARE) RECORDED FOR PIN IDENTIFICATION ONLY.
17569	0071	THIS PARCEL WAS CREATED BASED ON INFORMATION CONTAINED IN DOCUMENT(S) CD7558,CD82182, WHICH IS (ARE) RECORDED FOR PIN IDENTIFICATION ONLY.
17569	0073	THIS PARCEL WAS CREATED BASED ON INFORMATION CONTAINED IN DOCUMENT(S) CD134967,CD7558, WHICH IS (ARE) RECORDED FOR PIN IDENTIFICATION ONLY.
17569	0086	THIS PARCEL WAS CREATED BASED ON INFORMATION CONTAINED IN DOCUMENT(S) CD267980,CD7558, WHICH IS (ARE) RECORDED FOR PIN IDENTIFICATION ONLY.
17569	0094	THIS PARCEL WAS CREATED BASED ON INFORMATION CONTAINED IN DOCUMENT(S) VM234407, WHICH IS (ARE) RECORDED FOR PIN IDENTIFICATION ONLY.
17569	0128	THIS PARCEL WAS CREATED BASED ON INFORMATION CONTAINED IN DOCUMENT(S) CD35371,CD7558,CD78740, WHICH IS (ARE) RECORDED FOR PIN IDENTIFICATION ONLY.
17569	0135	THIS PARCEL WAS CREATED BASED ON INFORMATION CONTAINED IN DOCUMENT(S) VM56596, WHICH IS (ARE) RECORDED FOR PIN IDENTIFICATION ONLY.
17569	0149	THIS PARCEL WAS CREATED BASED ON INFORMATION CONTAINED IN DOCUMENT(S) CD46832,CD7558, WHICH IS (ARE) RECORDED FOR PIN IDENTIFICATION ONLY.
17569	0171	THIS PARCEL WAS CREATED BASED ON INFORMATION CONTAINED IN DOCUMENT(S) CD151720,CD57652, WHICH IS (ARE) RECORDED FOR PIN IDENTIFICATION ONLY.
17569	0173	THIS PARCEL WAS CREATED BASED ON INFORMATION CONTAINED IN DOCUMENT(S) CD7558, WHICH IS (ARE) RECORDED FOR PIN IDENTIFICATION ONLY.
17569	0175	THIS PARCEL WAS CREATED BASED ON INFORMATION CONTAINED IN DOCUMENT(S) CD112516,CD42127,CD60343, WHICH IS (ARE) RECORDED FOR PIN IDENTIFICATION ONLY.
17569	0177	THIS PARCEL WAS CREATED BASED ON INFORMATION CONTAINED IN DOCUMENT(S) CD7558, WHICH IS (ARE) RECORDED FOR PIN IDENTIFICATION ONLY.
17569	0191	THIS PARCEL WAS CREATED BASED ON INFORMATION CONTAINED IN DOCUMENT(S) HL141961, WHICH IS (ARE) RECORDED FOR PIN IDENTIFICATION ONLY.
17569	0208	THIS PARCEL WAS CREATED BASED ON INFORMATION CONTAINED IN DOCUMENT(S) SA31794, WHICH IS (ARE) RECORDED FOR PIN IDENTIFICATION ONLY.
17569	0209	THIS PARCEL WAS CREATED BASED ON INFORMATION CONTAINED IN DOCUMENT(S) CD381158, WHICH IS (ARE) RECORDED FOR PIN IDENTIFICATION ONLY.
17569	0222	THIS PARCEL WAS CREATED BASED ON INFORMATION CONTAINED IN DOCUMENT(S) WHICH IS (ARE) RECORDED FOR PIN IDENTIFICATION ONLY.
17569	0229	THIS PARCEL WAS CREATED BASED ON INFORMATION CONTAINED IN DOCUMENT(S):WHICH IS (ARE) RECORDED FOR PIN IDENTIFICATION ONLY.
17570	0012	THIS PARCEL WAS CREATED BASED ON INFORMATION CONTAINED IN DOCUMENT(S) VM213575, WHICH IS (ARE) RECORDED FOR PIN IDENTIFICATION ONLY.
17570	0017	THIS PARCEL WAS CREATED BASED ON INFORMATION CONTAINED IN DOCUMENT(S) CD337344, WHICH IS (ARE) RECORDED FOR PIN IDENTIFICATION ONLY.
17570	0039	THIS PARCEL WAS CREATED BASED ON INFORMATION CONTAINED IN DOCUMENT(S) CD419208, WHICH IS (ARE) RECORDED FOR PIN IDENTIFICATION ONLY.
17570	0071	THIS PARCEL WAS CREATED BASED ON INFORMATION CONTAINED IN DOCUMENT(S) WHICH IS (ARE) RECORDED FOR PIN IDENTIFICATION ONLY.
17570	0075	THIS PARCEL WAS CREATED BASED ON INFORMATION CONTAINED IN DOCUMENT(S) CD429566, WHICH IS (ARE) RECORDED FOR PIN IDENTIFICATION ONLY.
17570	0092	THIS PARCEL WAS CREATED BASED ON INFORMATION CONTAINED IN DOCUMENT(S) CD425312, WHICH IS (ARE) RECORDED FOR PIN IDENTIFICATION ONLY.
17570	0093	THIS PARCEL WAS CREATED BASED ON INFORMATION CONTAINED IN DOCUMENT(S) WHICH IS (ARE) RECORDED FOR PIN IDENTIFICATION ONLY.
17570	0109	THIS PARCEL WAS CREATED BASED ON INFORMATION CONTAINED IN DOCUMENT(S) AB324306, WHICH IS (ARE) RECORDED FOR PIN IDENTIFICATION ONLY.
17570	0110	THIS PARCEL WAS CREATED BASED ON INFORMATION CONTAINED IN DOCUMENT(S) WHICH IS (ARE) RECORDED FOR PIN IDENTIFICATION ONLY.
17570	0120	THIS PARCEL WAS CREATED BASED ON INFORMATION CONTAINED IN DOCUMENT(S):WHICH IS (ARE) RECORDED FOR PIN IDENTIFICATION ONLY.
17570	0121	CORRECTION: INSTRUMENT NUMBER VM265133 WAS OMITTED FROM THIS PROPERTY IN ERROR AND WAS ADDED AND CERTIFIED ON 2006/04/12 BY ANNETTE VAN DUYN.
17570	0122	THIS PARCEL WAS CREATED BASED ON INFORMATION CONTAINED IN DOCUMENT(S):WHICH IS (ARE) RECORDED FOR PIN IDENTIFICATION ONLY.
17570	0125	THIS PARCEL WAS CREATED BASED ON INFORMATION CONTAINED IN DOCUMENT(S):WHICH IS (ARE) RECORDED FOR PIN IDENTIFICATION ONLY.
17570	0126	THIS PARCEL WAS CREATED BASED ON INFORMATION CONTAINED IN DOCUMENT(S):WHICH IS (ARE) RECORDED FOR PIN IDENTIFICATION ONLY.
17570	0129	THIS PARCEL WAS CREATED BASED ON INFORMATION CONTAINED IN DOCUMENT(S):WHICH IS (ARE) RECORDED FOR PIN IDENTIFICATION ONLY.
17571	0012	THIS PARCEL WAS CREATED BASED ON INFORMATION CONTAINED IN DOCUMENT(S) CD137687, WHICH IS (ARE) RECORDED FOR PIN IDENTIFICATION ONLY. CORRECTION: INSTRUMENT NUMBER 62R16407 WAS ENTERED IN ERROR AGAINST THIS PROPERTY AND WAS REMOVED AND CERTIFIED ON 2003/06
17571	0017	THIS PARCEL WAS CREATED BASED ON INFORMATION CONTAINED IN DOCUMENT(S) CD458507, WHICH IS (ARE) RECORDED FOR PIN IDENTIFICATION ONLY.
17571	0032	THIS PARCEL WAS CREATED BASED ON INFORMATION CONTAINED IN DOCUMENT(S) CD301309,CD7558, WHICH IS (ARE) RECORDED FOR PIN IDENTIFICATION ONLY.
17571	0049	THIS PARCEL WAS CREATED BASED ON INFORMATION CONTAINED IN DOCUMENT(S) CD478356,CD478357,VM81529, WHICH IS (ARE) RECORDED FOR PIN IDENTIFICATION ONLY.
17571	0050	THIS PARCEL WAS CREATED BASED ON INFORMATION CONTAINED IN DOCUMENT(S) VM81530, WHICH IS (ARE) RECORDED FOR PIN IDENTIFICATION ONLY.
17571	0063	THIS PARCEL WAS CREATED BASED ON INFORMATION CONTAINED IN DOCUMENT(S) VM156779, WHICH IS (ARE) RECORDED FOR PIN IDENTIFICATION ONLY.
17571	0065	THIS PARCEL WAS CREATED BASED ON INFORMATION CONTAINED IN DOCUMENT(S) CD300934, WHICH IS (ARE) RECORDED FOR PIN IDENTIFICATION ONLY.
17571	0075	THIS PARCEL WAS CREATED BASED ON INFORMATION CONTAINED IN DOCUMENT(S) CD278659, WHICH IS (ARE) RECORDED FOR PIN IDENTIFICATION ONLY.
17571	0103	THIS PARCEL WAS CREATED BASED ON INFORMATION CONTAINED IN DOCUMENT(S) AB85147, WHICH IS (ARE) RECORDED FOR PIN IDENTIFICATION ONLY.
17571	0110	THIS PARCEL WAS CREATED BASED ON INFORMATION CONTAINED IN DOCUMENT(S) AB319962, WHICH IS (ARE) RECORDED FOR PIN IDENTIFICATION ONLY.
17571	0112	THIS PARCEL WAS CREATED BASED ON INFORMATION CONTAINED IN DOCUMENT(S) AB363595, WHICH IS (ARE) RECORDED FOR PIN IDENTIFICATION ONLY.
17571	0120	THIS PARCEL WAS CREATED BASED ON INFORMATION CONTAINED IN DOCUMENT(S) AB378544,AB398020, WHICH IS (ARE) RECORDED FOR PIN IDENTIFICATION ONLY.
17571	0125	THIS PARCEL WAS CREATED BASED ON INFORMATION CONTAINED IN DOCUMENT(S) WHICH IS (ARE) RECORDED FOR PIN IDENTIFICATION ONLY.
17571	0129	THIS PARCEL WAS CREATED BASED ON INFORMATION CONTAINED IN DOCUMENT(S) VM212741, WHICH IS (ARE) RECORDED FOR PIN IDENTIFICATION ONLY.
17571	0131	THIS PARCEL WAS CREATED BASED ON INFORMATION CONTAINED IN DOCUMENT(S) AB322547, WHICH IS (ARE) RECORDED FOR PIN IDENTIFICATION ONLY.
17571	0134	THIS PARCEL WAS CREATED BASED ON INFORMATION CONTAINED IN DOCUMENT(S) CD136124, WHICH IS (ARE) RECORDED FOR PIN IDENTIFICATION ONLY.
17571	0141	THIS PARCEL WAS CREATED BASED ON INFORMATION CONTAINED IN DOCUMENT(S) CD429378, WHICH IS (ARE) RECORDED FOR PIN IDENTIFICATION ONLY.
17571	0142	THIS PARCEL WAS CREATED BASED ON INFORMATION CONTAINED IN DOCUMENT(S) AB343615, WHICH IS (ARE) RECORDED FOR PIN IDENTIFICATION ONLY.
17571	0147	THIS PARCEL WAS CREATED BASED ON INFORMATION CONTAINED IN DOCUMENT(S) AB332086, WHICH IS (ARE) RECORDED FOR PIN IDENTIFICATION ONLY.
17571	0157	THIS PARCEL WAS CREATED BASED ON INFORMATION CONTAINED IN DOCUMENT(S) AB361720, WHICH IS (ARE) RECORDED FOR PIN IDENTIFICATION ONLY.
17571	0159	THIS PARCEL WAS CREATED BASED ON INFORMATION CONTAINED IN DOCUMENT(S) AB397304, WHICH IS (ARE) RECORDED FOR PIN IDENTIFICATION ONLY.
17571	0163	THIS PARCEL WAS CREATED BASED ON INFORMATION CONTAINED IN DOCUMENT(S) AB322784,AB332071,AB334213,AB343031, WHICH IS (ARE) RECORDED FOR PIN IDENTIFICATION ONLY.
17571	0167	THIS PARCEL WAS CREATED BASED ON INFORMATION CONTAINED IN DOCUMENT(S) AB378515, WHICH IS (ARE) RECORDED FOR PIN IDENTIFICATION ONLY.
17571	0169	THIS PARCEL WAS CREATED BASED ON INFORMATION CONTAINED IN DOCUMENT(S) AB191397,AB223017,AB267063,AB325408, AB329829,AB353426,AB380806,CD220029, WHICH IS (ARE) RECORDED FOR PIN IDENTIFICATION ONLY.
17571	0171	THIS PARCEL WAS CREATED BASED ON INFORMATION CONTAINED IN DOCUMENT(S) AB189492,CD300627, WHICH IS (ARE) RECORDED FOR PIN IDENTIFICATION ONLY.
17571	0172	THIS PARCEL WAS CREATED BASED ON INFORMATION CONTAINED IN DOCUMENT(S) AB262877,AB331742,CD220130,CD220365, CD234964,SA59534, WHICH IS (ARE) RECORDED FOR PIN IDENTIFICATION ONLY.
17571	0173	THIS PARCEL WAS CREATED BASED ON INFORMATION CONTAINED IN DOCUMENT(S) WHICH IS (ARE) RECORDED FOR PIN IDENTIFICATION ONLY.
17572	0026	THIS PARCEL WAS CREATED BASED ON INFORMATION CONTAINED IN DOCUMENT(S) WHICH IS (ARE) RECORDED FOR PIN IDENTIFICATION ONLY. CORRECTION: INSTRUMENT NUMBER 62R16414 WAS OMITTED FROM THIS PROPERTY IN ERROR AND WAS ADDED AND CERTIFIED ON 2003/03/03 BY PETER GA
17572	0028	CORRECTION: INSTRUMENT NUMBER VM102375 WAS OMITTED FROM THIS PROPERTY IN ERROR AND WAS ADDED AND CERTIFIED ON 2006/10/03 BY KATHY CECE.
17573	0004	THIS PARCEL WAS CREATED BASED ON INFORMATION CONTAINED IN DOCUMENT(S) VM149685, WHICH IS (ARE) RECORDED FOR PIN IDENTIFICATION ONLY.
17573	0031	CORRECTION: INSTRUMENT NUMBER VM247901 WAS ENTERED IN ERROR AGAINST THIS PROPERTY AND WAS REMOVED AND CERTIFIED ON 2000/05/03 BY ANNE MARIE BERTRAND. CORRECTION: INSTRUMENT NUMBER VM247892 WAS ENTERED IN ERROR AGAINST THIS PROPERTY AND WAS REMOVED AND CER
17574	0001	THIS PARCEL WAS CREATED BASED ON INFORMATION CONTAINED IN DOCUMENT(S) WHICH IS (ARE) RECORDED FOR PIN IDENTIFICATION ONLY.
17574	0002	THIS PARCEL WAS CREATED BASED ON INFORMATION CONTAINED IN DOCUMENT(S) VM589, WHICH IS (ARE) RECORDED FOR PIN IDENTIFICATION ONLY.
17574	0003	THIS PARCEL WAS CREATED BASED ON INFORMATION CONTAINED IN DOCUMENT(S) AB8366, WHICH IS (ARE) RECORDED FOR PIN IDENTIFICATION ONLY.
17574	0017	THIS PARCEL WAS CREATED BASED ON INFORMATION CONTAINED IN DOCUMENT(S) CD6218,NS231900, WHICH IS (ARE) RECORDED FOR PIN IDENTIFICATION ONLY.
17574	0034	THIS PARCEL WAS CREATED BASED ON INFORMATION CONTAINED IN DOCUMENT(S):WHICH IS (ARE) RECORDED FOR PIN IDENTIFICATION ONLY.
17575	0012	THIS PARCEL WAS CREATED BASED ON INFORMATION CONTAINED IN DOCUMENT(S) CD254154, WHICH IS (ARE) RECORDED FOR PIN IDENTIFICATION ONLY.
17575	0017	THIS PARCEL WAS CREATED BASED ON INFORMATION CONTAINED IN DOCUMENT(S) WHICH IS (ARE) RECORDED FOR PIN IDENTIFICATION ONLY. CORRECTION: INSTRUMENT NUMBER VM250986 WAS ENTERED IN ERROR AGAINST THIS PROPERTY AND WAS REMOVED AND CERTIFIED ON 2001/12/28 BY HEL
17575	0038	THIS PARCEL WAS CREATED BASED ON INFORMATION CONTAINED IN DOCUMENT(S) AB108976,AB111391,AB127133,AB156679, AB185644,AB69173,AB69196,AB72196,AB74209,AB74353, AB74473,AB77371,AB78820,AB87631,AB89802,AB90413, AB91334,AB93845,AB98746,CD75046, WHICH IS (ARE) R
17575	0051	THIS PARCEL WAS CREATED BASED ON INFORMATION CONTAINED IN DOCUMENT(S):WHICH IS (ARE) RECORDED FOR PIN IDENTIFICATION ONLY.
17575	0053	CORRECTION: INSTRUMENT NUMBER VM268176 WAS OMITTED FROM THIS PROPERTY IN ERROR AND WAS ADDED AND CERTIFIED ON 2006/10/30 BY PETER GAIGAL.
17575	0054	THIS PARCEL WAS CREATED BASED ON INFORMATION CONTAINED IN DOCUMENT(S):WHICH IS (ARE) RECORDED FOR PIN IDENTIFICATION ONLY.
17576	0006	THIS PARCEL WAS CREATED BASED ON INFORMATION CONTAINED IN DOCUMENT(S) WHICH IS (ARE) RECORDED FOR PIN IDENTIFICATION ONLY.
17576	0010	THIS PARCEL WAS CREATED BASED ON INFORMATION CONTAINED IN DOCUMENT(S) CD143569, WHICH IS (ARE) RECORDED FOR PIN IDENTIFICATION ONLY.
17576	0024	THIS PARCEL WAS CREATED BASED ON INFORMATION CONTAINED IN DOCUMENT(S) NS36186, WHICH IS (ARE) RECORDED FOR PIN IDENTIFICATION ONLY.
17576	0031	THIS PARCEL WAS CREATED BASED ON INFORMATION CONTAINED IN DOCUMENT(S) VM42267, WHICH IS (ARE) RECORDED FOR PIN IDENTIFICATION ONLY.
17576	0035	THIS PARCEL WAS CREATED BASED ON INFORMATION CONTAINED IN DOCUMENT(S) VM238154, WHICH IS (ARE) RECORDED FOR PIN IDENTIFICATION ONLY.
17576	0037	THIS PARCEL WAS CREATED BASED ON INFORMATION CONTAINED IN DOCUMENT(S) VM195299, WHICH IS (ARE) RECORDED FOR PIN IDENTIFICATION ONLY.
17576	0045	THIS PARCEL WAS CREATED BASED ON INFORMATION CONTAINED IN DOCUMENT(S) VM197742, WHICH IS (ARE) RECORDED FOR PIN IDENTIFICATION ONLY.
17576	0077	THIS PARCEL WAS CREATED BASED ON INFORMATION CONTAINED IN DOCUMENT(S) AB94629, WHICH IS (ARE) RECORDED FOR PIN IDENTIFICATION ONLY.
17576	0089	THIS PARCEL WAS CREATED BASED ON INFORMATION CONTAINED IN DOCUMENT(S) VM140637, WHICH IS (ARE) RECORDED FOR PIN IDENTIFICATION ONLY.
17576	0112	THIS PARCEL WAS CREATED BASED ON INFORMATION CONTAINED IN DOCUMENT(S) CD79014, WHICH IS (ARE) RECORDED FOR PIN IDENTIFICATION ONLY.
17576	0139	THIS PARCEL WAS CREATED BASED ON INFORMATION CONTAINED IN DOCUMENT(S) VM235944, WHICH IS (ARE) RECORDED FOR PIN IDENTIFICATION ONLY.
17576	0140	THIS PARCEL WAS CREATED BASED ON INFORMATION CONTAINED IN DOCUMENT(S) VM121418, WHICH IS (ARE) RECORDED FOR PIN IDENTIFICATION ONLY.
17576	0146	THIS PARCEL WAS CREATED BASED ON INFORMATION CONTAINED IN DOCUMENT(S) AB47414, WHICH IS (ARE) RECORDED FOR PIN IDENTIFICATION ONLY.
17576	0165	THIS PARCEL WAS CREATED BASED ON INFORMATION CONTAINED IN DOCUMENT(S):WHICH IS (ARE) RECORDED FOR PIN IDENTIFICATION ONLY.
17579	0001	THIS PARCEL WAS CREATED BASED ON INFORMATION CONTAINED IN DOCUMENT(S) AB15552,AB159214,AB159215,AB173127, CD280084,CD72574,HA276100,HL195481,HL195831,HL198120, HL199337,HL200295,HL200854,HL202163,HL202934,HL203986, HL204134,HL205184,HL210435,HL210575,HL21
17579	0022	THIS PARCEL WAS CREATED BASED ON INFORMATION CONTAINED IN DOCUMENT(S) VM128681, WHICH IS (ARE) RECORDED FOR PIN IDENTIFICATION ONLY.
17579	0025	THIS PARCEL WAS CREATED BASED ON INFORMATION CONTAINED IN DOCUMENT(S) AB397867, WHICH IS (ARE) RECORDED FOR PIN IDENTIFICATION ONLY.
17580	0030	THIS PARCEL WAS CREATED BASED ON INFORMATION CONTAINED IN DOCUMENT(S) VM126328, WHICH IS (ARE) RECORDED FOR PIN IDENTIFICATION ONLY.
17580	0032	THIS PARCEL WAS CREATED BASED ON INFORMATION CONTAINED IN DOCUMENT(S) CD382950, WHICH IS (ARE) RECORDED FOR PIN IDENTIFICATION ONLY.
17580	0036	THIS PARCEL WAS CREATED BASED ON INFORMATION CONTAINED IN DOCUMENT(S) CD238074, WHICH IS (ARE) RECORDED FOR PIN IDENTIFICATION ONLY. CORRECTION: INSTRUMENT NUMBER VM231695 WAS ENTERED IN ERROR AGAINST THIS PROPERTY AND WAS REMOVED AND CERTIFIED ON 2001/07
17580	0067	THIS PARCEL WAS CREATED BASED ON INFORMATION CONTAINED IN DOCUMENT(S) VM215639, WHICH IS (ARE) RECORDED FOR PIN IDENTIFICATION ONLY.
17580	0071	THIS PARCEL WAS CREATED BASED ON INFORMATION CONTAINED IN DOCUMENT(S) HA269515,NS13914, WHICH IS (ARE) RECORDED FOR PIN IDENTIFICATION ONLY.
17580	0088	THIS PARCEL WAS CREATED BASED ON INFORMATION CONTAINED IN DOCUMENT(S):WHICH IS (ARE) RECORDED FOR PIN IDENTIFICATION ONLY. CORRECTION: INSTRUMENT NUMBER VM240668 WAS ENTERED IN ERROR AGAINST THIS PROPERTY AND WAS REMOVED AND CERTIFIED ON 2001/11/23 BY ANN
17583	0077	THE FOLLOWING REMARK HAS BEEN ADDED ON 2006/05/03 AT 16:11 BY CAROLYN ADSETT : PLAN ATTACHED TO HL261509.
17583	0128	CORRECTION: INSTRUMENT NUMBER EF19525 WAS ENTERED IN ERROR AGAINST THIS PROPERTY AND WAS REMOVED AND CERTIFIED ON 1997/07/24 BY ERIC CANNON. CORRECTION: INSTRUMENT NUMBER EF19525 WAS OMITTED FROM THIS PROPERTY IN ERROR AND WAS ADDED AND CERTIFIED ON 1997/
17584	0424	CORRECTION: INSTRUMENT NUMBER LT255441 WAS ENTERED IN ERROR AGAINST THIS PROPERTY AND WAS REMOVED AND CERTIFIED ON 2000/05/18 BY ANNE MARIE BERTRAND. CORRECTION: INSTRUMENT NUMBER LT259441 WAS OMITTED FROM THIS PROPERTY IN ERROR AND WAS ADDED AND CERTIFIE
17584	0588	SUBJECT TO SUBSECTION 44(1) OF THE LAND TITLES ACT EXCEPT PARAGRAPHS 11 AND 14, PROVINCIAL SUCCESSION DUTIES AND ESCHEATS OR FORFEITURE TO THE CROWN UP TO THE DATE OF CONVERSION AND EXCEPT PARAGRAPHS 3 AND 14 THEREAFTER.
17586	0037	THIS PARCEL WAS CREATED BASED ON INFORMATION CONTAINED IN DOCUMENT(S) CD440076, WHICH IS (ARE) RECORDED FOR PIN IDENTIFICATION ONLY.
17586	0040	THIS PARCEL WAS CREATED BASED ON INFORMATION CONTAINED IN DOCUMENT(S) CD503175, WHICH IS (ARE) RECORDED FOR PIN IDENTIFICATION ONLY.
17586	0063	THIS PARCEL WAS CREATED BASED ON INFORMATION CONTAINED IN DOCUMENT(S) CD311270, WHICH IS (ARE) RECORDED FOR PIN IDENTIFICATION ONLY.
17587	0007	CREATED 97/10/30. THE FOLLOWING REMARK HAS BEEN ADDED ON 1997/11/13 AT 09:13 BY LAND REGISTRAR 2 : PIN CREATED 97/11/03 MN. CORRECTION: INSTRUMENT NUMBER VM249617 WAS ENTERED IN ERROR AGAINST THIS PROPERTY AND WAS REMOVED AND CERTIFIED ON 2001/12/18 BY CH
17587	0008	CREATED 97/10/30. THE FOLLOWING REMARK HAS BEEN ADDED ON 1997/11/13 AT 09:13 BY LAND REGISTRAR 2 : PIN CREATED 97/11/03 MN. CORRECTION: INSTRUMENT NUMBER VM249617 WAS ENTERED IN ERROR AGAINST THIS PROPERTY AND WAS REMOVED AND CERTIFIED ON 2001/12/18 BY CH
17587	0009	CREATED 97/10/30. THE FOLLOWING REMARK HAS BEEN ADDED ON 1997/11/13 AT 09:14 BY LAND REGISTRAR 2 : PIN CREATED 97/11/03 MN. CORRECTION: INSTRUMENT NUMBER VM249617 WAS ENTERED IN ERROR AGAINST THIS PROPERTY AND WAS REMOVED AND CERTIFIED ON 2001/12/18 BY CH
17587	0010	CREATED 97/10/30. THE FOLLOWING REMARK HAS BEEN ADDED ON 1997/11/13 AT 09:14 BY LAND REGISTRAR 2 : PIN CREATED 97/11/03 MN. CORRECTION: INSTRUMENT NUMBER VM249617 WAS ENTERED IN ERROR AGAINST THIS PROPERTY AND WAS REMOVED AND CERTIFIED ON 2001/12/18 BY CH
17588	0050	THIS PARCEL WAS CREATED BASED ON INFORMATION CONTAINED IN DOCUMENT(S) CD414984, WHICH IS (ARE) RECORDED FOR PIN IDENTIFICATION ONLY.
17588	0065	THIS PARCEL WAS CREATED BASED ON INFORMATION CONTAINED IN DOCUMENT(S) CD479226, WHICH IS (ARE) RECORDED FOR PIN IDENTIFICATION ONLY.
17588	0072	THIS PARCEL WAS CREATED BASED ON INFORMATION CONTAINED IN DOCUMENT(S) CD111168,HL141623, WHICH IS (ARE) RECORDED FOR PIN IDENTIFICATION ONLY.
17588	0264	THIS PARCEL WAS CREATED BASED ON INFORMATION CONTAINED IN DOCUMENT(S) CD23311,CD360797, WHICH IS (ARE) RECORDED FOR PIN IDENTIFICATION ONLY.
17588	0273	THIS PARCEL WAS CREATED BASED ON INFORMATION CONTAINED IN DOCUMENT(S) AB259132,CD258434, WHICH IS (ARE) RECORDED FOR PIN IDENTIFICATION ONLY.
17588	0282	THIS PARCEL WAS CREATED BASED ON INFORMATION CONTAINED IN DOCUMENT(S) VM161770, WHICH IS (ARE) RECORDED FOR PIN IDENTIFICATION ONLY.
17588	0289	THIS PARCEL WAS CREATED BASED ON INFORMATION CONTAINED IN DOCUMENT(S) HL27433, WHICH IS (ARE) RECORDED FOR PIN IDENTIFICATION ONLY.
17588	0294	THIS PARCEL WAS CREATED BASED ON INFORMATION CONTAINED IN DOCUMENT(S) VM87441, WHICH IS (ARE) RECORDED FOR PIN IDENTIFICATION ONLY.
17588	0303	THIS PARCEL WAS CREATED BASED ON INFORMATION CONTAINED IN DOCUMENT(S) NS133126, WHICH IS (ARE) RECORDED FOR PIN IDENTIFICATION ONLY.
17588	0309	THIS PARCEL WAS CREATED BASED ON INFORMATION CONTAINED IN DOCUMENT(S) VM232605, WHICH IS (ARE) RECORDED FOR PIN IDENTIFICATION ONLY.
17588	0549	THIS PARCEL WAS CREATED BASED ON INFORMATION CONTAINED IN DOCUMENT(S) VM227064, WHICH IS (ARE) RECORDED FOR PIN IDENTIFICATION ONLY.
17588	0560	THIS PARCEL WAS CREATED BASED ON INFORMATION CONTAINED IN DOCUMENT(S) CD340145,CD446660, WHICH IS (ARE) RECORDED FOR PIN IDENTIFICATION ONLY.
17588	0564	THIS PARCEL WAS CREATED BASED ON INFORMATION CONTAINED IN DOCUMENT(S) NS276537, WHICH IS (ARE) RECORDED FOR PIN IDENTIFICATION ONLY.
17588	0575	THIS PARCEL WAS CREATED BASED ON INFORMATION CONTAINED IN DOCUMENT(S) CD514167, WHICH IS (ARE) RECORDED FOR PIN IDENTIFICATION ONLY.
17588	0580	THIS PARCEL WAS CREATED BASED ON INFORMATION CONTAINED IN DOCUMENT(S) CD139573, WHICH IS (ARE) RECORDED FOR PIN IDENTIFICATION ONLY.
17588	0668	THIS PARCEL WAS CREATED BASED ON INFORMATION CONTAINED IN DOCUMENT(S) VM139180, WHICH IS (ARE) RECORDED FOR PIN IDENTIFICATION ONLY.
17588	0669	THIS PARCEL WAS CREATED BASED ON INFORMATION CONTAINED IN DOCUMENT(S) VM17121, WHICH IS (ARE) RECORDED FOR PIN IDENTIFICATION ONLY.
17588	0721	THIS PARCEL WAS CREATED BASED ON INFORMATION CONTAINED IN DOCUMENT(S) CD242672, WHICH IS (ARE) RECORDED FOR PIN IDENTIFICATION ONLY.
17590	0007	THIS PARCEL WAS CREATED BASED ON INFORMATION CONTAINED IN DOCUMENT(S) AB161161,AB284058,AB298113,CD89732, CD89736,NS213075,NS46049,NS91470, WHICH IS (ARE) RECORDED FOR PIN IDENTIFICATION ONLY.
17590	0033	THIS PARCEL WAS CREATED BASED ON INFORMATION CONTAINED IN DOCUMENT(S) HL259051, WHICH IS (ARE) RECORDED FOR PIN IDENTIFICATION ONLY.
17590	0036	THIS PARCEL WAS CREATED BASED ON INFORMATION CONTAINED IN DOCUMENT(S) HL234191,HL234192,HL234193,HL234194, WHICH IS (ARE) RECORDED FOR PIN IDENTIFICATION ONLY.
17591	0006	THIS PARCEL WAS CREATED BASED ON INFORMATION CONTAINED IN DOCUMENT(S) CD216063,CD295860, WHICH IS (ARE) RECORDED FOR PIN IDENTIFICATION ONLY.
17592	0006	THIS PARCEL WAS CREATED BASED ON INFORMATION CONTAINED IN DOCUMENT(S) AB355890, WHICH IS (ARE) RECORDED FOR PIN IDENTIFICATION ONLY.
17593	0003	THIS PARCEL WAS CREATED BASED ON INFORMATION CONTAINED IN DOCUMENT(S) CD346496,CD59946,CD76209,HA103726, HA103727,HA124195,HA124520,HA150816,HA204412,HA204739, HA206152,HA206472,HA20648,HA207032,HA207143,HA208295, HA213649,HA217018,HA217019,HA217928,HA218
17594	0005	THIS PARCEL WAS CREATED BASED ON INFORMATION CONTAINED IN DOCUMENT(S) CD263653, WHICH IS (ARE) RECORDED FOR PIN IDENTIFICATION ONLY.
17594	0008	THIS PARCEL WAS CREATED BASED ON INFORMATION CONTAINED IN DOCUMENT(S) NS227910, WHICH IS (ARE) RECORDED FOR PIN IDENTIFICATION ONLY.
17595	0001	THIS PARCEL WAS CREATED BASED ON INFORMATION CONTAINED IN DOCUMENT(S) AB169197,AB220849,HL83472, WHICH IS (ARE) RECORDED FOR PIN IDENTIFICATION ONLY.
17595	0005	THIS PARCEL WAS CREATED BASED ON INFORMATION CONTAINED IN DOCUMENT(S) CD323301, WHICH IS (ARE) RECORDED FOR PIN IDENTIFICATION ONLY.
17596	0061	THIS PARCEL WAS CREATED BASED ON INFORMATION CONTAINED IN DOCUMENT(S) CD132305, WHICH IS (ARE) RECORDED FOR PIN IDENTIFICATION ONLY.
17596	0063	THIS PARCEL WAS CREATED BASED ON INFORMATION CONTAINED IN DOCUMENT(S) CD196004, WHICH IS (ARE) RECORDED FOR PIN IDENTIFICATION ONLY.
17597	0003	THIS PARCEL WAS CREATED BASED ON INFORMATION CONTAINED IN DOCUMENT(S) CD463400, WHICH IS (ARE) RECORDED FOR PIN IDENTIFICATION ONLY.
17600	0017	THIS PARCEL WAS CREATED BASED ON INFORMATION CONTAINED IN DOCUMENT(S):WHICH IS (ARE) RECORDED FOR PIN IDENTIFICATION ONLY.
17600	0034	THIS PARCEL WAS CREATED BASED ON INFORMATION CONTAINED IN DOCUMENT(S):WHICH IS (ARE) RECORDED FOR PIN IDENTIFICATION ONLY.
18009	0001	CORRECTION: INSTRUMENT NUMBER WE121310 WAS OMITTED FROM THIS PROPERTY IN ERROR AND WAS ADDED AND CERTIFIED ON 2002/09/30 BY CAROLYN ADSETT. CORRECTION: INSTRUMENT NUMBER WE121311 WAS OMITTED FROM THIS PROPERTY IN ERROR AND WAS ADDED AND CERTIFIED ON 2002/
18010	0046	CORRECTION: INSTRUMENT NUMBER LT311074 WAS OMITTED FROM THIS PROPERTY IN ERROR AND WAS ADDED AND CERTIFIED ON 1994/09/30 BY CATHY ROBERTS. CORRECTION: INSTRUMENT NUMBER LT311076 WAS OMITTED FROM THIS PROPERTY IN ERROR AND WAS ADDED AND CERTIFIED ON 1994/0
18010	0108	CORRECTION: INSTRUMENT NUMBER LT153862 WAS OMITTED FROM THIS PROPERTY IN ERROR AND WAS ADDED AND CERTIFIED ON 1994/09/30 BY CATHY ROBERTS.
18010	0146	CORRECTION: INSTRUMENT NUMBER LT513321 WAS ENTERED IN ERROR AGAINST THIS PROPERTY AND WAS REMOVED AND CERTIFIED ON 1998/12/06 BY DORRIE MORLEY.
18010	0265	CORRECTION: INSTRUMENT NUMBER LT420867 WAS ENTERED IN ERROR AGAINST THIS PROPERTY AND WAS REMOVED AND CERTIFIED ON 1998/08/07 BY BELLE FIAMELLI. CORRECTION: INSTRUMENT NUMBER LT420868 WAS ENTERED IN ERROR AGAINST THIS PROPERTY AND WAS REMOVED AND CERTIFIE
18012	0027	CORRECTION: INSTRUMENT NUMBER LT70766 WAS ENTERED IN ERROR AGAINST THIS PROPERTY AND WAS REMOVED AND CERTIFIED ON 1994/10/01 BY CATHY ROBERTS.
18012	0051	CORRECTION: INSTRUMENT NUMBER LT139418 WAS OMITTED FROM THIS PROPERTY IN ERROR AND WAS ADDED AND CERTIFIED ON 1994/10/01 BY CATHY ROBERTS.
18012	0052	CORRECTION: INSTRUMENT NUMBER LT139418 WAS OMITTED FROM THIS PROPERTY IN ERROR AND WAS ADDED AND CERTIFIED ON 1994/10/01 BY CATHY ROBERTS.
18012	0053	CORRECTION: INSTRUMENT NUMBER LT139418 WAS OMITTED FROM THIS PROPERTY IN ERROR AND WAS ADDED AND CERTIFIED ON 1994/10/01 BY CATHY ROBERTS.
18012	0054	CORRECTION: INSTRUMENT NUMBER LT139418 WAS OMITTED FROM THIS PROPERTY IN ERROR AND WAS ADDED AND CERTIFIED ON 1994/10/01 BY CATHY ROBERTS.
18012	0055	CORRECTION: INSTRUMENT NUMBER LT139418 WAS OMITTED FROM THIS PROPERTY IN ERROR AND WAS ADDED AND CERTIFIED ON 1994/10/01 BY CATHY ROBERTS.
18012	0056	CORRECTION: INSTRUMENT NUMBER LT139418 WAS OMITTED FROM THIS PROPERTY IN ERROR AND WAS ADDED AND CERTIFIED ON 1994/10/01 BY CATHY ROBERTS.
18012	0057	CORRECTION: INSTRUMENT NUMBER LT139418 WAS OMITTED FROM THIS PROPERTY IN ERROR AND WAS ADDED AND CERTIFIED ON 1994/10/01 BY CATHY ROBERTS.
18012	0058	CORRECTION: INSTRUMENT NUMBER LT139418 WAS OMITTED FROM THIS PROPERTY IN ERROR AND WAS ADDED AND CERTIFIED ON 1994/10/01 BY CATHY ROBERTS.
18012	0059	CORRECTION: INSTRUMENT NUMBER LT139418 WAS OMITTED FROM THIS PROPERTY IN ERROR AND WAS ADDED AND CERTIFIED ON 1994/10/01 BY CATHY ROBERTS.
18012	0060	CORRECTION: INSTRUMENT NUMBER LT139418 WAS OMITTED FROM THIS PROPERTY IN ERROR AND WAS ADDED AND CERTIFIED ON 1994/10/01 BY CATHY ROBERTS.
18012	0061	CORRECTION: INSTRUMENT NUMBER LT139418 WAS OMITTED FROM THIS PROPERTY IN ERROR AND WAS ADDED AND CERTIFIED ON 1994/10/01 BY CATHY ROBERTS.
18012	0062	CORRECTION: INSTRUMENT NUMBER LT139418 WAS OMITTED FROM THIS PROPERTY IN ERROR AND WAS ADDED AND CERTIFIED ON 1994/10/01 BY CATHY ROBERTS.
18012	0063	CORRECTION: INSTRUMENT NUMBER LT139418 WAS OMITTED FROM THIS PROPERTY IN ERROR AND WAS ADDED AND CERTIFIED ON 1994/10/01 BY CATHY ROBERTS.
18012	0064	CORRECTION: INSTRUMENT NUMBER LT139418 WAS OMITTED FROM THIS PROPERTY IN ERROR AND WAS ADDED AND CERTIFIED ON 1994/10/01 BY CATHY ROBERTS.
18012	0065	CORRECTION: INSTRUMENT NUMBER LT139418 WAS OMITTED FROM THIS PROPERTY IN ERROR AND WAS ADDED AND CERTIFIED ON 1994/10/01 BY CATHY ROBERTS.
18012	0066	CORRECTION: INSTRUMENT NUMBER LT139418 WAS OMITTED FROM THIS PROPERTY IN ERROR AND WAS ADDED AND CERTIFIED ON 1994/10/01 BY CATHY ROBERTS.
18012	0067	CORRECTION: INSTRUMENT NUMBER LT139418 WAS OMITTED FROM THIS PROPERTY IN ERROR AND WAS ADDED AND CERTIFIED ON 1994/10/01 BY CATHY ROBERTS.
18012	0068	CORRECTION: INSTRUMENT NUMBER LT139418 WAS OMITTED FROM THIS PROPERTY IN ERROR AND WAS ADDED AND CERTIFIED ON 1994/10/01 BY CATHY ROBERTS.
18012	0069	CORRECTION: INSTRUMENT NUMBER LT139418 WAS OMITTED FROM THIS PROPERTY IN ERROR AND WAS ADDED AND CERTIFIED ON 1994/10/01 BY CATHY ROBERTS.
18012	0070	CORRECTION: INSTRUMENT NUMBER LT139418 WAS OMITTED FROM THIS PROPERTY IN ERROR AND WAS ADDED AND CERTIFIED ON 1994/10/01 BY CATHY ROBERTS.
18012	0071	CORRECTION: INSTRUMENT NUMBER LT139418 WAS OMITTED FROM THIS PROPERTY IN ERROR AND WAS ADDED AND CERTIFIED ON 1994/10/01 BY CATHY ROBERTS.
18012	0072	CORRECTION: INSTRUMENT NUMBER LT139418 WAS OMITTED FROM THIS PROPERTY IN ERROR AND WAS ADDED AND CERTIFIED ON 1994/10/01 BY CATHY ROBERTS.
18012	0073	CORRECTION: INSTRUMENT NUMBER LT139418 WAS OMITTED FROM THIS PROPERTY IN ERROR AND WAS ADDED AND CERTIFIED ON 1994/10/01 BY CATHY ROBERTS.
18012	0074	CORRECTION: INSTRUMENT NUMBER LT139418 WAS OMITTED FROM THIS PROPERTY IN ERROR AND WAS ADDED AND CERTIFIED ON 1994/10/01 BY CATHY ROBERTS.
18012	0075	CORRECTION: INSTRUMENT NUMBER LT139418 WAS OMITTED FROM THIS PROPERTY IN ERROR AND WAS ADDED AND CERTIFIED ON 1994/10/01 BY CATHY ROBERTS.
18012	0076	CORRECTION: INSTRUMENT NUMBER LT139418 WAS OMITTED FROM THIS PROPERTY IN ERROR AND WAS ADDED AND CERTIFIED ON 1994/10/01 BY CATHY ROBERTS.
18012	0077	CORRECTION: INSTRUMENT NUMBER LT139418 WAS OMITTED FROM THIS PROPERTY IN ERROR AND WAS ADDED AND CERTIFIED ON 1994/10/01 BY CATHY ROBERTS.
18012	0078	CORRECTION: INSTRUMENT NUMBER LT139418 WAS OMITTED FROM THIS PROPERTY IN ERROR AND WAS ADDED AND CERTIFIED ON 1994/10/01 BY CATHY ROBERTS.
18012	0079	CORRECTION: INSTRUMENT NUMBER LT139418 WAS OMITTED FROM THIS PROPERTY IN ERROR AND WAS ADDED AND CERTIFIED ON 1994/10/01 BY CATHY ROBERTS.
18012	0080	CORRECTION: INSTRUMENT NUMBER LT139418 WAS OMITTED FROM THIS PROPERTY IN ERROR AND WAS ADDED AND CERTIFIED ON 1994/10/01 BY CATHY ROBERTS.
18012	0081	CORRECTION: INSTRUMENT NUMBER LT139418 WAS OMITTED FROM THIS PROPERTY IN ERROR AND WAS ADDED AND CERTIFIED ON 1994/10/01 BY CATHY ROBERTS.
18012	0082	CORRECTION: INSTRUMENT NUMBER LT139418 WAS OMITTED FROM THIS PROPERTY IN ERROR AND WAS ADDED AND CERTIFIED ON 1994/10/01 BY CATHY ROBERTS.
18012	0083	CORRECTION: INSTRUMENT NUMBER LT139418 WAS OMITTED FROM THIS PROPERTY IN ERROR AND WAS ADDED AND CERTIFIED ON 1994/10/01 BY CATHY ROBERTS.
18012	0084	CORRECTION: INSTRUMENT NUMBER LT139418 WAS OMITTED FROM THIS PROPERTY IN ERROR AND WAS ADDED AND CERTIFIED ON 1994/10/01 BY CATHY ROBERTS.
18012	0085	CORRECTION: INSTRUMENT NUMBER LT139418 WAS OMITTED FROM THIS PROPERTY IN ERROR AND WAS ADDED AND CERTIFIED ON 1994/10/01 BY CATHY ROBERTS.
18012	0086	CORRECTION: INSTRUMENT NUMBER LT139418 WAS OMITTED FROM THIS PROPERTY IN ERROR AND WAS ADDED AND CERTIFIED ON 1994/10/01 BY CATHY ROBERTS.
18012	0087	CORRECTION: INSTRUMENT NUMBER LT139418 WAS OMITTED FROM THIS PROPERTY IN ERROR AND WAS ADDED AND CERTIFIED ON 1994/10/01 BY CATHY ROBERTS.
18012	0088	CORRECTION: INSTRUMENT NUMBER LT139418 WAS OMITTED FROM THIS PROPERTY IN ERROR AND WAS ADDED AND CERTIFIED ON 1994/10/01 BY CATHY ROBERTS.
18012	0089	CORRECTION: INSTRUMENT NUMBER LT139418 WAS OMITTED FROM THIS PROPERTY IN ERROR AND WAS ADDED AND CERTIFIED ON 1994/10/01 BY CATHY ROBERTS.
18012	0090	CORRECTION: INSTRUMENT NUMBER LT139418 WAS OMITTED FROM THIS PROPERTY IN ERROR AND WAS ADDED AND CERTIFIED ON 1994/10/01 BY CATHY ROBERTS.
18016	0001	CORRECTION: INSTRUMENT NUMBER 5691LT WAS OMITTED FROM THIS PROPERTY IN ERROR AND WAS ADDED AND CERTIFIED ON 1997/11/03 BY LAND REGISTRAR 2.
18016	0004	CORRECTION: INSTRUMENT NUMBER 5691LT WAS OMITTED FROM THIS PROPERTY IN ERROR AND WAS ADDED AND CERTIFIED ON 1997/11/03 BY LAND REGISTRAR 2.
18016	0011	CORRECTION: INSTRUMENT NUMBER 5691LT WAS OMITTED FROM THIS PROPERTY IN ERROR AND WAS ADDED AND CERTIFIED ON 1997/11/03 BY LAND REGISTRAR 2.
18016	0022	CORRECTION: INSTRUMENT NUMBER LT252181 WAS OMITTED FROM THIS PROPERTY IN ERROR AND WAS ADDED AND CERTIFIED ON 1994/08/18 BY ELGIN FAREWELL. CORRECTION: INSTRUMENT NUMBER LT258116 WAS OMITTED FROM THIS PROPERTY IN ERROR AND WAS ADDED AND CERTIFIED ON 1994/
18016	0029	CORRECTION: INSTRUMENT NUMBER 5691LT WAS OMITTED FROM THIS PROPERTY IN ERROR AND WAS ADDED AND CERTIFIED ON 1997/11/03 BY LAND REGISTRAR 2.
18016	0030	CORRECTION: INSTRUMENT NUMBER 5691LT WAS OMITTED FROM THIS PROPERTY IN ERROR AND WAS ADDED AND CERTIFIED ON 1997/11/03 BY LAND REGISTRAR 2.
18016	0031	CORRECTION: INSTRUMENT NUMBER 5691LT WAS OMITTED FROM THIS PROPERTY IN ERROR AND WAS ADDED AND CERTIFIED ON 1997/11/03 BY LAND REGISTRAR 2.
18016	0048	CORRECTION: INSTRUMENT NUMBER 5691LT WAS OMITTED FROM THIS PROPERTY IN ERROR AND WAS ADDED AND CERTIFIED ON 1997/11/03 BY LAND REGISTRAR 2.
18016	0065	CORRECTION: INSTRUMENT NUMBER 5691LT WAS OMITTED FROM THIS PROPERTY IN ERROR AND WAS ADDED AND CERTIFIED ON 1997/11/03 BY LAND REGISTRAR 2.
18016	0067	CORRECTION: INSTRUMENT NUMBER 5691LT WAS OMITTED FROM THIS PROPERTY IN ERROR AND WAS ADDED AND CERTIFIED ON 1997/11/03 BY LAND REGISTRAR 2.
18016	0068	CORRECTION: INSTRUMENT NUMBER 5691LT WAS OMITTED FROM THIS PROPERTY IN ERROR AND WAS ADDED AND CERTIFIED ON 1997/11/03 BY LAND REGISTRAR 2.
18016	0070	CORRECTION: INSTRUMENT NUMBER 5691LT WAS OMITTED FROM THIS PROPERTY IN ERROR AND WAS ADDED AND CERTIFIED ON 1997/11/03 BY LAND REGISTRAR 2.
18016	0082	CORRECTION: INSTRUMENT NUMBER 5691LT WAS OMITTED FROM THIS PROPERTY IN ERROR AND WAS ADDED AND CERTIFIED ON 1997/11/03 BY LAND REGISTRAR 2.
18016	0084	CORRECTION: INSTRUMENT NUMBER 5691LT WAS OMITTED FROM THIS PROPERTY IN ERROR AND WAS ADDED AND CERTIFIED ON 1997/11/03 BY LAND REGISTRAR 2.
18016	0092	CORRECTION: INSTRUMENT NUMBER 5691LT WAS OMITTED FROM THIS PROPERTY IN ERROR AND WAS ADDED AND CERTIFIED ON 1997/11/03 BY LAND REGISTRAR 2.
18016	0094	CORRECTION: INSTRUMENT NUMBER 5691LT WAS OMITTED FROM THIS PROPERTY IN ERROR AND WAS ADDED AND CERTIFIED ON 1997/11/03 BY LAND REGISTRAR 2.
18016	0097	CORRECTION: INSTRUMENT NUMBER 5691LT WAS OMITTED FROM THIS PROPERTY IN ERROR AND WAS ADDED AND CERTIFIED ON 1997/11/03 BY LAND REGISTRAR 2.
18016	0101	CORRECTION: INSTRUMENT NUMBER 5691LT WAS OMITTED FROM THIS PROPERTY IN ERROR AND WAS ADDED AND CERTIFIED ON 1997/11/03 BY LAND REGISTRAR 2.
18034	0042	CORRECTION: INSTRUMENT NUMBER LT297208 WAS ENTERED IN ERROR AGAINST THIS PROPERTY AND WAS REMOVED AND CERTIFIED ON 1997/11/25 BY MARLENE HUNTER.
18041	0027	ON 2002/07/03 AT 13:36 THE ESTATE/QUALIFIER WERE CHANGED TO FEE SIMPLE ABSOLUTE FROM FEE SIMPLE QUALIFIER: N/A BY PETER GAIGAL .
18046	0075	CORRECTION: INSTRUMENT NUMBER LT54845 WAS ENTERED IN ERROR AGAINST THIS PROPERTY AND WAS REMOVED AND CERTIFIED ON 1994/09/30 BY CATHY ROBERTS.
18065	0239	CORRECTION: INSTRUMENT NUMBER LT65237 WAS OMITTED FROM THIS PROPERTY IN ERROR AND WAS ADDED AND CERTIFIED ON 1994/09/27 BY CATHY ROBERTS.
18065	0251	CORRECTION: INSTRUMENT NUMBER LT65237 WAS ENTERED IN ERROR AGAINST THIS PROPERTY AND WAS REMOVED AND CERTIFIED ON 1994/09/27 BY CATHY ROBERTS.
18079	0011	CORRECTION: INSTRUMENT NUMBER LT399260 WAS OMITTED FROM THIS PROPERTY IN ERROR AND WAS ADDED AND CERTIFIED ON 1996/03/14 BY MARLENE NICHOLLS.
18079	0012	CORRECTION: INSTRUMENT NUMBER LT399260 WAS OMITTED FROM THIS PROPERTY IN ERROR AND WAS ADDED AND CERTIFIED ON 1996/03/14 BY MARLENE NICHOLLS.
18079	0017	CORRECTION: INSTRUMENT NUMBER LT399260 WAS OMITTED FROM THIS PROPERTY IN ERROR AND WAS ADDED AND CERTIFIED ON 1996/03/14 BY MARLENE NICHOLLS.
18079	0020	CORRECTION: INSTRUMENT NUMBER LT399260 WAS OMITTED FROM THIS PROPERTY IN ERROR AND WAS ADDED AND CERTIFIED ON 1996/03/14 BY MARLENE NICHOLLS.
18079	0037	CORRECTION: INSTRUMENT NUMBER LT399260 WAS OMITTED FROM THIS PROPERTY IN ERROR AND WAS ADDED AND CERTIFIED ON 1996/03/14 BY MARLENE NICHOLLS.
18100	0002	CORRECTION: DOCUMENT WE10056121 REMOVED FROM 18100-0002 ON 2023/05/10 AT 15:40 BY STURINO, NADINE.
18100	0003	CORRECTION: DOCUMENT WE10056121 REMOVED FROM 18100-0003 ON 2023/05/10 AT 15:40 BY STURINO, NADINE.
18100	0004	CORRECTION: DOCUMENT WE10056121 REMOVED FROM 18100-0004 ON 2023/05/10 AT 15:40 BY STURINO, NADINE.
18100	0006	CORRECTION: DOCUMENT WE10056121 REMOVED FROM 18100-0006 ON 2023/05/10 AT 15:40 BY STURINO, NADINE.
18100	0023	CORRECTION: DOCUMENT WE10056121 REMOVED FROM 18100-0023 ON 2023/05/10 AT 15:40 BY STURINO, NADINE.
18100	0026	CORRECTION: DOCUMENT WE10056121 REMOVED FROM 18100-0026 ON 2023/05/10 AT 15:40 BY STURINO, NADINE.
18100	0029	CORRECTION: DOCUMENT WE10056121 REMOVED FROM 18100-0029 ON 2023/05/10 AT 15:40 BY STURINO, NADINE.
18100	0032	CORRECTION: DOCUMENT WE10056121 REMOVED FROM 18100-0032 ON 2023/05/10 AT 15:39 BY STURINO, NADINE.
18100	0040	CORRECTION: DOCUMENT WE10056121 REMOVED FROM 18100-0040 ON 2023/05/10 AT 15:39 BY STURINO, NADINE.
18100	0050	CORRECTION: DOCUMENT WE10056121 REMOVED FROM 18100-0050 ON 2023/05/10 AT 15:39 BY STURINO, NADINE.
18128	0002	CORRECTION: INSTRUMENT NUMBER LT233752 WAS ENTERED IN ERROR AGAINST THIS PROPERTY AND WAS REMOVED AND CERTIFIED ON 1996/11/04 BY ERIC CANNON.
18132	0019	CORRECTION: INSTRUMENT NUMBER LT399307 WAS OMITTED FROM THIS PROPERTY IN ERROR AND WAS ADDED AND CERTIFIED ON 1996/03/19 BY MARLENE NICHOLLS.
18132	0034	CORRECTION: INSTRUMENT NUMBER LT399307 WAS OMITTED FROM THIS PROPERTY IN ERROR AND WAS ADDED AND CERTIFIED ON 1996/03/19 BY MARLENE NICHOLLS.
18132	0039	CORRECTION: INSTRUMENT NUMBER LT399307 WAS OMITTED FROM THIS PROPERTY IN ERROR AND WAS ADDED AND CERTIFIED ON 1996/03/19 BY MARLENE NICHOLLS.
18132	0048	CORRECTION: INSTRUMENT NUMBER LT399307 WAS OMITTED FROM THIS PROPERTY IN ERROR AND WAS ADDED AND CERTIFIED ON 1996/03/19 BY MARLENE NICHOLLS.
18132	0050	CORRECTION: INSTRUMENT NUMBER LT399307 WAS OMITTED FROM THIS PROPERTY IN ERROR AND WAS ADDED AND CERTIFIED ON 1996/03/19 BY MARLENE NICHOLLS.
18132	0057	CORRECTION: INSTRUMENT NUMBER LT399307 WAS OMITTED FROM THIS PROPERTY IN ERROR AND WAS ADDED AND CERTIFIED ON 1996/03/19 BY MARLENE NICHOLLS.
18132	0059	CORRECTION: INSTRUMENT NUMBER LT399307 WAS OMITTED FROM THIS PROPERTY IN ERROR AND WAS ADDED AND CERTIFIED ON 1996/03/19 BY MARLENE NICHOLLS.
18141	0032	CORRECTION: INSTRUMENT NUMBER LT431962 WAS ENTERED IN ERROR AGAINST THIS PROPERTY AND WAS REMOVED AND CERTIFIED ON 1997/07/22 BY ERIC CANNON.
18141	0033	CORRECTION: INSTRUMENT NUMBER LT431962 WAS OMITTED FROM THIS PROPERTY IN ERROR AND WAS ADDED AND CERTIFIED ON 1997/07/22 BY ERIC CANNON.
18145	0047	THE FOLLOWING REMARK HAS BEEN ADDED ON 1995/01/13 AT 15:59 BY PETER GAIGAL : EXEC.743/94 MARZILLI,PAT. THE FOLLOWING REMARK HAS BEEN ADDED ON 1996/08/29 AT 08:36 BY PETER GAIGAL : EXEC. 743/94 DELETED BY LT376573:.
18168	0002	CORRECTION: INSTRUMENT NUMBER VM176 WAS ENTERED IN ERROR AGAINST THIS PROPERTY AND WAS REMOVED AND CERTIFIED ON 1994/09/25 BY CATHY ROBERTS.
18175	0003	CORRECTION: INSTRUMENT NUMBER LT566000 WAS OMITTED FROM THIS PROPERTY IN ERROR AND WAS ADDED AND CERTIFIED ON 2002/08/27 BY BELLE FIAMELLI.
18175	0290	CORRECTION: INSTRUMENT NUMBER LT430778 WAS OMITTED FROM THIS PROPERTY IN ERROR AND WAS ADDED AND CERTIFIED ON 1998/01/23 BY MARLENE HUNTER. CORRECTION: INSTRUMENT NUMBER LT430779 WAS OMITTED FROM THIS PROPERTY IN ERROR AND WAS ADDED AND CERTIFIED ON 1998/
18175	0335	CORRECTION: INSTRUMENT NUMBER LT586000 WAS OMITTED FROM THIS PROPERTY IN ERROR AND WAS ADDED AND CERTIFIED ON 2002/08/26 BY BELLE FIAMELLI. CORRECTION: INSTRUMENT NUMBER LT586000 WAS ENTERED IN ERROR AGAINST THIS PROPERTY AND WAS REMOVED AND CERTIFIED ON
18184	0011	CORRECTION: INSTRUMENT NUMBER LT328872 WAS OMITTED FROM THIS PROPERTY IN ERROR AND WAS ADDED AND CERTIFIED ON 1994/09/13 BY CATHY ROBERTS.
18184	0012	CORRECTION: INSTRUMENT NUMBER LT328872 WAS OMITTED FROM THIS PROPERTY IN ERROR AND WAS ADDED AND CERTIFIED ON 1994/09/13 BY CATHY ROBERTS.
18191	0001	CORRECTION: INSTRUMENT NUMBER 62R12153 WAS OMITTED FROM THIS PROPERTY IN ERROR AND WAS ADDED AND CERTIFIED ON 2000/06/09 BY DORRIE MORLEY. CORRECTION: INSTRUMENT NUMBER 62R12693 WAS OMITTED FROM THIS PROPERTY IN ERROR AND WAS ADDED AND CERTIFIED ON 2000/0
18191	0002	CORRECTION: INSTRUMENT NUMBER 62R12153 WAS OMITTED FROM THIS PROPERTY IN ERROR AND WAS ADDED AND CERTIFIED ON 2000/06/09 BY DORRIE MORLEY. CORRECTION: INSTRUMENT NUMBER 62R12693 WAS OMITTED FROM THIS PROPERTY IN ERROR AND WAS ADDED AND CERTIFIED ON 2000/0
18191	0003	CORRECTION: INSTRUMENT NUMBER 62R12153 WAS OMITTED FROM THIS PROPERTY IN ERROR AND WAS ADDED AND CERTIFIED ON 2000/06/09 BY DORRIE MORLEY. CORRECTION: INSTRUMENT NUMBER 62R12693 WAS OMITTED FROM THIS PROPERTY IN ERROR AND WAS ADDED AND CERTIFIED ON 2000/0
18191	0004	CORRECTION: INSTRUMENT NUMBER 62R12153 WAS OMITTED FROM THIS PROPERTY IN ERROR AND WAS ADDED AND CERTIFIED ON 2000/06/09 BY DORRIE MORLEY. CORRECTION: INSTRUMENT NUMBER 62R12693 WAS OMITTED FROM THIS PROPERTY IN ERROR AND WAS ADDED AND CERTIFIED ON 2000/0
18191	0005	CORRECTION: INSTRUMENT NUMBER 62R12153 WAS OMITTED FROM THIS PROPERTY IN ERROR AND WAS ADDED AND CERTIFIED ON 2000/06/09 BY DORRIE MORLEY. CORRECTION: INSTRUMENT NUMBER 62R12693 WAS OMITTED FROM THIS PROPERTY IN ERROR AND WAS ADDED AND CERTIFIED ON 2000/0
18191	0006	CORRECTION: INSTRUMENT NUMBER 62R12153 WAS OMITTED FROM THIS PROPERTY IN ERROR AND WAS ADDED AND CERTIFIED ON 2000/06/09 BY DORRIE MORLEY. CORRECTION: INSTRUMENT NUMBER 62R12693 WAS OMITTED FROM THIS PROPERTY IN ERROR AND WAS ADDED AND CERTIFIED ON 2000/0
18191	0007	CORRECTION: INSTRUMENT NUMBER 62R12153 WAS OMITTED FROM THIS PROPERTY IN ERROR AND WAS ADDED AND CERTIFIED ON 2000/06/09 BY DORRIE MORLEY. CORRECTION: INSTRUMENT NUMBER 62R12693 WAS OMITTED FROM THIS PROPERTY IN ERROR AND WAS ADDED AND CERTIFIED ON 2000/0
18191	0008	CORRECTION: INSTRUMENT NUMBER 62R12153 WAS OMITTED FROM THIS PROPERTY IN ERROR AND WAS ADDED AND CERTIFIED ON 2000/06/09 BY DORRIE MORLEY. CORRECTION: INSTRUMENT NUMBER 62R12693 WAS OMITTED FROM THIS PROPERTY IN ERROR AND WAS ADDED AND CERTIFIED ON 2000/0
18191	0009	CORRECTION: INSTRUMENT NUMBER 62R12153 WAS OMITTED FROM THIS PROPERTY IN ERROR AND WAS ADDED AND CERTIFIED ON 2000/06/09 BY DORRIE MORLEY. CORRECTION: INSTRUMENT NUMBER 62R12693 WAS OMITTED FROM THIS PROPERTY IN ERROR AND WAS ADDED AND CERTIFIED ON 2000/0
18191	0010	CORRECTION: INSTRUMENT NUMBER 62R12153 WAS OMITTED FROM THIS PROPERTY IN ERROR AND WAS ADDED AND CERTIFIED ON 2000/06/09 BY DORRIE MORLEY. CORRECTION: INSTRUMENT NUMBER 62R12693 WAS OMITTED FROM THIS PROPERTY IN ERROR AND WAS ADDED AND CERTIFIED ON 2000/0
18191	0011	CORRECTION: INSTRUMENT NUMBER 62R12153 WAS OMITTED FROM THIS PROPERTY IN ERROR AND WAS ADDED AND CERTIFIED ON 2000/06/09 BY DORRIE MORLEY. CORRECTION: INSTRUMENT NUMBER 62R12693 WAS OMITTED FROM THIS PROPERTY IN ERROR AND WAS ADDED AND CERTIFIED ON 2000/0
18191	0012	CORRECTION: INSTRUMENT NUMBER 62R12153 WAS OMITTED FROM THIS PROPERTY IN ERROR AND WAS ADDED AND CERTIFIED ON 2000/06/09 BY DORRIE MORLEY. CORRECTION: INSTRUMENT NUMBER 62R12693 WAS OMITTED FROM THIS PROPERTY IN ERROR AND WAS ADDED AND CERTIFIED ON 2000/0
18191	0013	CORRECTION: INSTRUMENT NUMBER 62R12153 WAS OMITTED FROM THIS PROPERTY IN ERROR AND WAS ADDED AND CERTIFIED ON 2000/06/09 BY DORRIE MORLEY. CORRECTION: INSTRUMENT NUMBER 62R12693 WAS OMITTED FROM THIS PROPERTY IN ERROR AND WAS ADDED AND CERTIFIED ON 2000/0
18191	0014	CORRECTION: INSTRUMENT NUMBER 62R12153 WAS OMITTED FROM THIS PROPERTY IN ERROR AND WAS ADDED AND CERTIFIED ON 2000/06/09 BY DORRIE MORLEY. CORRECTION: INSTRUMENT NUMBER 62R12693 WAS OMITTED FROM THIS PROPERTY IN ERROR AND WAS ADDED AND CERTIFIED ON 2000/0
18191	0015	CORRECTION: INSTRUMENT NUMBER 62R12153 WAS OMITTED FROM THIS PROPERTY IN ERROR AND WAS ADDED AND CERTIFIED ON 2000/06/09 BY DORRIE MORLEY. CORRECTION: INSTRUMENT NUMBER 62R12693 WAS OMITTED FROM THIS PROPERTY IN ERROR AND WAS ADDED AND CERTIFIED ON 2000/0
18191	0016	CORRECTION: INSTRUMENT NUMBER 62R12153 WAS OMITTED FROM THIS PROPERTY IN ERROR AND WAS ADDED AND CERTIFIED ON 2000/06/09 BY DORRIE MORLEY. CORRECTION: INSTRUMENT NUMBER 62R12693 WAS OMITTED FROM THIS PROPERTY IN ERROR AND WAS ADDED AND CERTIFIED ON 2000/0
18191	0017	CORRECTION: INSTRUMENT NUMBER 62R12153 WAS OMITTED FROM THIS PROPERTY IN ERROR AND WAS ADDED AND CERTIFIED ON 2000/06/09 BY DORRIE MORLEY. CORRECTION: INSTRUMENT NUMBER 62R12693 WAS OMITTED FROM THIS PROPERTY IN ERROR AND WAS ADDED AND CERTIFIED ON 2000/0
18191	0018	CORRECTION: INSTRUMENT NUMBER 62R12153 WAS OMITTED FROM THIS PROPERTY IN ERROR AND WAS ADDED AND CERTIFIED ON 2000/06/09 BY DORRIE MORLEY. CORRECTION: INSTRUMENT NUMBER 62R12693 WAS OMITTED FROM THIS PROPERTY IN ERROR AND WAS ADDED AND CERTIFIED ON 2000/0
18191	0019	CORRECTION: INSTRUMENT NUMBER 62R12153 WAS OMITTED FROM THIS PROPERTY IN ERROR AND WAS ADDED AND CERTIFIED ON 2000/06/09 BY DORRIE MORLEY. CORRECTION: INSTRUMENT NUMBER 62R12693 WAS OMITTED FROM THIS PROPERTY IN ERROR AND WAS ADDED AND CERTIFIED ON 2000/0
18210	0057	"THIS UNIT COMPRISES TWO (2) NON-CONTIGUOUS AREAS EACH DESIGNATED ON THE PLAN BY THE SAME UNIT NUMBER".
18238	0023	CORRECTION: INSTRUMENT NUMBER LT455375 WAS OMITTED FROM THIS PROPERTY IN ERROR AND WAS ADDED AND CERTIFIED ON 2003/06/26 BY ANNETTE VAN DUYN.
18246	0007	CORRECTION: DOCUMENT WE10056121 REMOVED FROM 18246-0007 ON 2023/05/10 AT 15:38 BY STURINO, NADINE.
18246	0013	CORRECTION: DOCUMENT WE10056121 REMOVED FROM 18246-0013 ON 2023/05/10 AT 15:38 BY STURINO, NADINE.
18248	0002	CORRECTION: DOCUMENT WE10056121 REMOVED FROM 18248-0002 ON 2023/05/10 AT 15:38 BY STURINO, NADINE.
18248	0004	CORRECTION: DOCUMENT WE10056121 REMOVED FROM 18248-0004 ON 2023/05/10 AT 15:38 BY STURINO, NADINE.
18248	0015	CORRECTION: DOCUMENT WE10056121 REMOVED FROM 18248-0015 ON 2023/05/10 AT 15:37 BY STURINO, NADINE.
18248	0017	CORRECTION: DOCUMENT WE10056121 REMOVED FROM 18248-0017 ON 2023/05/10 AT 15:37 BY STURINO, NADINE.
18248	0019	CORRECTION: DOCUMENT WE10056121 REMOVED FROM 18248-0019 ON 2023/05/10 AT 15:37 BY STURINO, NADINE.
18248	0031	CORRECTION: DOCUMENT WE10056121 REMOVED FROM 18248-0031 ON 2023/01/16 AT 10:01 BY STURINO, NADINE. CORRECTION: DOCUMENT WE10056121 REMOVED FROM 18248-0031 ON 2023/01/16 AT 10:02 BY STURINO, NADINE. CORRECTION: DOCUMENT WE10056121 ADDED TO 18248-0031 ON 20
18264	0014	SUBJECT ON THE DATE OF REGISTRATION 96/11/14 WITH AN ABSOLUTE TITLE TO SUB SECTION 44(1) OF THE LAND TITLES ACT EXCEPT PARAGRAPH 3 AND PROVINCIAL SUCCESSION DUTIES.
18264	0019	SUBJECT ON THE DATE OF REGISTRATION 96/11/14 WITH AN ABSOLUTE TITLE TO SUB SECTION 44(1) OF THE LAND TITLES ACT EXCEPT PARAGRAPH 3 AND PROVINCIAL SUCCESSION DUTIES.
18264	0027	SUBJECT ON THE DATE OF REGISTRATION 96/11/14 WITH AN ABSOLUTE TITLE TO SUB SECTION 44(1) OF THE LAND TITLES ACT EXCEPT PARAGRAPH 3 AND PROVINCIAL SUCCESSION DUTIES.
18271	0003	THE FOLLOWING REMARK HAS BEEN ADDED ON 1999/01/04 AT 14:13 BY ERIC CANNON : SUBJECT ON THE DATE OF REGISTRATION 98/07/10 TO SUBSECTION 44(1) OF THE LAND TITLES ACT, EXCEPT PARAGRAPHS 3 AND 14 THEREOF AND PROVINCIAL SUCCESSION DUTIES.
18271	0004	THE FOLLOWING REMARK HAS BEEN ADDED ON 1999/01/04 AT 14:18 BY ERIC CANNON : SUBJECT ON THE DATE OF REGISTRATION 98/07/10 TO SUBSECTION 44(1) OF THE LAND TITLES ACT, EXCEPT PARAGRAPHS 3 AND 14 THEREOF AND PROVINCIAL SUCCESSION DUTIES.
18271	0009	THE FOLLOWING REMARK HAS BEEN ADDED ON 1999/01/04 AT 14:35 BY ERIC CANNON : SUBJECT ON THE DATE OF REGISTRATION 98/07/10 TO SUBSECTION 44(1) OF THE LAND TITLES ACT, EXCEPT PARAGRAPHS 3 AND 14 THEREOF AND PROVINCIAL SUCCESSION DUTIES.
18271	0025	THE FOLLOWING REMARK HAS BEEN ADDED ON 1999/01/04 AT 15:44 BY ERIC CANNON : SUBJECT ON THE DATE OF REGISTRATION 98/07/10 TO SUBSECTION 44(1) OF THE LAND TITLES ACT, EXCEPT PARAGRAPHS 3 AND 14 THEREOF AND PROVINCIAL SUCCESSION DUTIES.
18271	0077	THE FOLLOWING REMARK HAS BEEN ADDED ON 1999/01/06 AT 09:52 BY ERIC CANNON : SUBJECT ON THE DATE OF REGISTRATION 98/07/10 TO SUBSECTION 44(1) OF THE LAND TITLES ACT, EXCEPT PARAGRAPHS 3 AND 14 THEREOF AND PROVINCIAL SUCCESSION DUTIES.
18275	0003	CORRECTION: INSTRUMENT NUMBER LT549673 WAS OMITTED FROM THIS PROPERTY IN ERROR AND WAS ADDED AND CERTIFIED ON 1999/06/03 BY ERIC CANNON.
18275	0009	CORRECTION: INSTRUMENT NUMBER LT549673 WAS ENTERED IN ERROR AGAINST THIS PROPERTY AND WAS REMOVED AND CERTIFIED ON 1999/06/03 BY ERIC CANNON.
18278	0011	SUBJECT ON THE DATE OF REGISTRATION 99/03/01 TO SUBSECTION 44(1) OF THE LAND TITLES ACT, EXCEPT PARAGRAPHS 3 AND 14 THEREOF AND PROVINCIAL SUCCESSION DUTIES.
18278	0021	SUBJECT ON THE DATE OF REGISTRATION 99/03/01 TO SUBSECTION 44(1) OF THE LAND TITLES ACT, EXCEPT PARAGRAPHS 3 AND 14 THEREOF AND PROVINCIAL SUCCESSION DUTIES.
18284	0020	CONVERTED TO LAND TITLES 1999/09/27.
18284	0026	CONVERTED TO LAND TITLES 1999/09/27.
18284	0044	CONVERTED TO LAND TITLES 1999/09/27.
18284	0048	CONVERTED TO LAND TITLES 1999/09/27.
18284	0049	CONVERTED TO LAND TITLES 1999/09/27.
18284	0057	CONVERTED TO LAND TITLES 1999/09/27.
18284	0062	CONVERTED TO LAND TITLES 1999/09/27.
18284	0072	CONVERTED TO LAND TITLES 1999/09/27.
18284	0090	CONVERTED TO LAND TITLES 1999/09/27.
18284	0106	CONVERTED TO LAND TITLES 1999/09/27.
18284	0125	CONVERTED TO LAND TITLES 1999/09/27.
18284	0135	CONVERTED TO LAND TITLES 1999/09/27.
18284	0138	CONVERTED TO LAND TITLES 1999/09/27.
18284	0163	CONVERTED TO LAND TITLES 1999/09/27.
18284	0177	CONVERTED TO LAND TITLES 1999/09/27.
18284	0190	CONVERTED TO LAND TITLES 1999/09/27.
18288	0001	SUBJECT TO SUBSECTION 44(1) OF THE LAND TITLES ACT EXCEPT PARAGRAPHS 11 & 14, PROVINCIAL SUCCESSION DUTIES AND ESCHEATS OR FORFEITURE TO THE CROWN UP TO THE DATE OF CONVERSION AND EXCEPT PARAGRAPHS 3 & 14 THEREAFTER.
18288	0002	SUBJECT TO SUBSECTION 44(1) OF THE LAND TITLES ACT EXCEPT PARAGRAPHS 11 & 14, PROVINCIAL SUCCESSION DUTIES AND ESCHEATS OR FORFEITURE TO THE CROWN UP TO THE DATE OF CONVERSION AND EXCEPT PARAGRAPHS 3 & 14 THEREAFTER.
18288	0003	SUBJECT TO SUBSECTION 44(1) OF THE LAND TITLES ACT EXCEPT PARAGRAPHS 11 & 14, PROVINCIAL SUCCESSION DUTIES AND ESCHEATS OR FORFEITURE TO THE CROWN UP TO THE DATE OF CONVERSION AND EXCEPT PARAGRAPHS 3 & 14 THEREAFTER.
18288	0004	SUBJECT TO SUBSECTION 44(1) OF THE LAND TITLES ACT EXCEPT PARAGRAPHS 11 & 14, PROVINCIAL SUCCESSION DUTIES AND ESCHEATS OR FORFEITURE TO THE CROWN UP TO THE DATE OF CONVERSION AND EXCEPT PARAGRAPHS 3 & 14 THEREAFTER.
18288	0005	SUBJECT TO SUBSECTION 44(1) OF THE LAND TITLES ACT EXCEPT PARAGRAPHS 11 & 14, PROVINCIAL SUCCESSION DUTIES AND ESCHEATS OR FORFEITURE TO THE CROWN UP TO THE DATE OF CONVERSION AND EXCEPT PARAGRAPHS 3 & 14 THEREAFTER.
18288	0006	SUBJECT TO SUBSECTION 44(1) OF THE LAND TITLES ACT EXCEPT PARAGRAPHS 11 & 14, PROVINCIAL SUCCESSION DUTIES AND ESCHEATS OR FORFEITURE TO THE CROWN UP TO THE DATE OF CONVERSION AND EXCEPT PARAGRAPHS 3 & 14 THEREAFTER.
18288	0007	SUBJECT TO SUBSECTION 44(1) OF THE LAND TITLES ACT EXCEPT PARAGRAPHS 11 & 14, PROVINCIAL SUCCESSION DUTIES AND ESCHEATS OR FORFEITURE TO THE CROWN UP TO THE DATE OF CONVERSION AND EXCEPT PARAGRAPHS 3 & 14 THEREAFTER.
18288	0008	SUBJECT TO SUBSECTION 44(1) OF THE LAND TITLES ACT EXCEPT PARAGRAPHS 11 & 14, PROVINCIAL SUCCESSION DUTIES AND ESCHEATS OR FORFEITURE TO THE CROWN UP TO THE DATE OF CONVERSION AND EXCEPT PARAGRAPHS 3 & 14 THEREAFTER.
18288	0009	SUBJECT TO SUBSECTION 44(1) OF THE LAND TITLES ACT EXCEPT PARAGRAPHS 11 & 14, PROVINCIAL SUCCESSION DUTIES AND ESCHEATS OR FORFEITURE TO THE CROWN UP TO THE DATE OF CONVERSION AND EXCEPT PARAGRAPHS 3 & 14 THEREAFTER.
18288	0010	SUBJECT TO SUBSECTION 44(1) OF THE LAND TITLES ACT EXCEPT PARAGRAPHS 11 & 14, PROVINCIAL SUCCESSION DUTIES AND ESCHEATS OR FORFEITURE TO THE CROWN UP TO THE DATE OF CONVERSION AND EXCEPT PARAGRAPHS 3 & 14 THEREAFTER.
18288	0011	SUBJECT TO SUBSECTION 44(1) OF THE LAND TITLES ACT EXCEPT PARAGRAPHS 11 & 14, PROVINCIAL SUCCESSION DUTIES AND ESCHEATS OR FORFEITURE TO THE CROWN UP TO THE DATE OF CONVERSION AND EXCEPT PARAGRAPHS 3 & 14 THEREAFTER.
18288	0012	SUBJECT TO SUBSECTION 44(1) OF THE LAND TITLES ACT EXCEPT PARAGRAPHS 11 & 14, PROVINCIAL SUCCESSION DUTIES AND ESCHEATS OR FORFEITURE TO THE CROWN UP TO THE DATE OF CONVERSION AND EXCEPT PARAGRAPHS 3 & 14 THEREAFTER.
18288	0013	SUBJECT TO SUBSECTION 44(1) OF THE LAND TITLES ACT EXCEPT PARAGRAPHS 11 & 14, PROVINCIAL SUCCESSION DUTIES AND ESCHEATS OR FORFEITURE TO THE CROWN UP TO THE DATE OF CONVERSION AND EXCEPT PARAGRAPHS 3 & 14 THEREAFTER.
18288	0014	SUBJECT TO SUBSECTION 44(1) OF THE LAND TITLES ACT EXCEPT PARAGRAPHS 11 & 14, PROVINCIAL SUCCESSION DUTIES AND ESCHEATS OR FORFEITURE TO THE CROWN UP TO THE DATE OF CONVERSION AND EXCEPT PARAGRAPHS 3 & 14 THEREAFTER.
18288	0015	SUBJECT TO SUBSECTION 44(1) OF THE LAND TITLES ACT EXCEPT PARAGRAPHS 11 & 14, PROVINCIAL SUCCESSION DUTIES AND ESCHEATS OR FORFEITURE TO THE CROWN UP TO THE DATE OF CONVERSION AND EXCEPT PARAGRAPHS 3 & 14 THEREAFTER.
18288	0016	SUBJECT TO SUBSECTION 44(1) OF THE LAND TITLES ACT EXCEPT PARAGRAPHS 11 & 14, PROVINCIAL SUCCESSION DUTIES AND ESCHEATS OR FORFEITURE TO THE CROWN UP TO THE DATE OF CONVERSION AND EXCEPT PARAGRAPHS 3 & 14 THEREAFTER.
18289	0001	SUBJECT ON THE DATE OF REGISTRATION 98/09/29 TO SUBSECTION 44(1) OF THE LAND TITLES ACT, EXCEPT PARAGRAPHS 3 AND 14 THEREOF. CORRECTION: INSTRUMENT NUMBER LT567229 WAS ENTERED IN ERROR AGAINST THIS PROPERTY AND WAS REMOVED AND CERTIFIED ON 1999/12/01 BY D
18289	0002	SUBJECT ON THE DATE OF REGISTRATION 98/09/29 TO SUBSECTION 44(1) OF THE LAND TITLES ACT, EXCEPT PARAGRAPHS 3 AND 14 THEREOF. CORRECTION: INSTRUMENT NUMBER LT567229 WAS ENTERED IN ERROR AGAINST THIS PROPERTY AND WAS REMOVED AND CERTIFIED ON 1999/12/01 BY D
18289	0003	SUBJECT ON THE DATE OF REGISTRATION 98/09/29 TO SUBSECTION 44(1) OF THE LAND TITLES ACT, EXCEPT PARAGRAPHS 3 AND 14 THEREOF. CORRECTION: INSTRUMENT NUMBER LT567229 WAS ENTERED IN ERROR AGAINST THIS PROPERTY AND WAS REMOVED AND CERTIFIED ON 1999/12/01 BY D
18289	0004	SUBJECT ON THE DATE OF REGISTRATION 98/09/29 TO SUBSECTION 44(1) OF THE LAND TITLES ACT, EXCEPT PARAGRAPHS 3 AND 14 THEREOF. CORRECTION: INSTRUMENT NUMBER LT567229 WAS ENTERED IN ERROR AGAINST THIS PROPERTY AND WAS REMOVED AND CERTIFIED ON 1999/12/01 BY D
18289	0005	SUBJECT ON THE DATE OF REGISTRATION 98/09/29 TO SUBSECTION 44(1) OF THE LAND TITLES ACT, EXCEPT PARAGRAPHS 3 AND 14 THEREOF. CORRECTION: INSTRUMENT NUMBER LT567229 WAS ENTERED IN ERROR AGAINST THIS PROPERTY AND WAS REMOVED AND CERTIFIED ON 1999/12/01 BY D
18289	0006	SUBJECT ON THE DATE OF REGISTRATION 98/09/29 TO SUBSECTION 44(1) OF THE LAND TITLES ACT, EXCEPT PARAGRAPHS 3 AND 14 THEREOF. CORRECTION: INSTRUMENT NUMBER LT567229 WAS ENTERED IN ERROR AGAINST THIS PROPERTY AND WAS REMOVED AND CERTIFIED ON 1999/12/01 BY D
18289	0007	SUBJECT ON THE DATE OF REGISTRATION 98/09/29 TO SUBSECTION 44(1) OF THE LAND TITLES ACT, EXCEPT PARAGRAPHS 3 AND 14 THEREOF. CORRECTION: INSTRUMENT NUMBER LT567229 WAS ENTERED IN ERROR AGAINST THIS PROPERTY AND WAS REMOVED AND CERTIFIED ON 1999/12/01 BY D
18289	0008	SUBJECT ON THE DATE OF REGISTRATION 98/09/29 TO SUBSECTION 44(1) OF THE LAND TITLES ACT, EXCEPT PARAGRAPHS 3 AND 14 THEREOF. CORRECTION: INSTRUMENT NUMBER LT567229 WAS ENTERED IN ERROR AGAINST THIS PROPERTY AND WAS REMOVED AND CERTIFIED ON 1999/12/01 BY D
18289	0009	SUBJECT ON THE DATE OF REGISTRATION 98/09/29 TO SUBSECTION 44(1) OF THE LAND TITLES ACT, EXCEPT PARAGRAPHS 3 AND 14 THEREOF. CORRECTION: INSTRUMENT NUMBER LT567229 WAS ENTERED IN ERROR AGAINST THIS PROPERTY AND WAS REMOVED AND CERTIFIED ON 1999/12/01 BY D
18289	0010	SUBJECT ON THE DATE OF REGISTRATION 98/09/29 TO SUBSECTION 44(1) OF THE LAND TITLES ACT, EXCEPT PARAGRAPHS 3 AND 14 THEREOF. CORRECTION: INSTRUMENT NUMBER LT567229 WAS ENTERED IN ERROR AGAINST THIS PROPERTY AND WAS REMOVED AND CERTIFIED ON 1999/12/01 BY D
18289	0011	SUBJECT ON THE DATE OF REGISTRATION 98/09/29 TO SUBSECTION 44(1) OF THE LAND TITLES ACT, EXCEPT PARAGRAPHS 3 AND 14 THEREOF. CORRECTION: INSTRUMENT NUMBER LT567229 WAS ENTERED IN ERROR AGAINST THIS PROPERTY AND WAS REMOVED AND CERTIFIED ON 1999/12/01 BY D
18289	0012	SUBJECT ON THE DATE OF REGISTRATION 98/09/29 TO SUBSECTION 44(1) OF THE LAND TITLES ACT, EXCEPT PARAGRAPHS 3 AND 14 THEREOF. CORRECTION: INSTRUMENT NUMBER LT567229 WAS ENTERED IN ERROR AGAINST THIS PROPERTY AND WAS REMOVED AND CERTIFIED ON 1999/12/01 BY D
18289	0013	SUBJECT ON THE DATE OF REGISTRATION 98/09/29 TO SUBSECTION 44(1) OF THE LAND TITLES ACT, EXCEPT PARAGRAPHS 3 AND 14 THEREOF. CORRECTION: INSTRUMENT NUMBER LT567229 WAS ENTERED IN ERROR AGAINST THIS PROPERTY AND WAS REMOVED AND CERTIFIED ON 1999/12/01 BY D
18289	0014	SUBJECT ON THE DATE OF REGISTRATION 98/09/29 TO SUBSECTION 44(1) OF THE LAND TITLES ACT, EXCEPT PARAGRAPHS 3 AND 14 THEREOF. CORRECTION: INSTRUMENT NUMBER LT567229 WAS ENTERED IN ERROR AGAINST THIS PROPERTY AND WAS REMOVED AND CERTIFIED ON 1999/12/01 BY D
18289	0015	SUBJECT ON THE DATE OF REGISTRATION 98/09/29 TO SUBSECTION 44(1) OF THE LAND TITLES ACT, EXCEPT PARAGRAPHS 3 AND 14 THEREOF. CORRECTION: INSTRUMENT NUMBER LT567229 WAS ENTERED IN ERROR AGAINST THIS PROPERTY AND WAS REMOVED AND CERTIFIED ON 1999/12/01 BY D
18289	0016	SUBJECT ON THE DATE OF REGISTRATION 98/09/29 TO SUBSECTION 44(1) OF THE LAND TITLES ACT, EXCEPT PARAGRAPHS 3 AND 14 THEREOF. CORRECTION: INSTRUMENT NUMBER LT567229 WAS ENTERED IN ERROR AGAINST THIS PROPERTY AND WAS REMOVED AND CERTIFIED ON 1999/12/01 BY D
18289	0017	SUBJECT ON THE DATE OF REGISTRATION 98/09/29 TO SUBSECTION 44(1) OF THE LAND TITLES ACT, EXCEPT PARAGRAPHS 3 AND 14 THEREOF. CORRECTION: INSTRUMENT NUMBER LT567229 WAS ENTERED IN ERROR AGAINST THIS PROPERTY AND WAS REMOVED AND CERTIFIED ON 1999/12/01 BY D
18289	0018	SUBJECT ON THE DATE OF REGISTRATION 98/09/29 TO SUBSECTION 44(1) OF THE LAND TITLES ACT, EXCEPT PARAGRAPHS 3 AND 14 THEREOF. CORRECTION: INSTRUMENT NUMBER LT567229 WAS ENTERED IN ERROR AGAINST THIS PROPERTY AND WAS REMOVED AND CERTIFIED ON 1999/12/01 BY D
18289	0019	SUBJECT ON THE DATE OF REGISTRATION 98/09/29 TO SUBSECTION 44(1) OF THE LAND TITLES ACT, EXCEPT PARAGRAPHS 3 AND 14 THEREOF. CORRECTION: INSTRUMENT NUMBER LT567229 WAS ENTERED IN ERROR AGAINST THIS PROPERTY AND WAS REMOVED AND CERTIFIED ON 1999/12/01 BY D
18289	0020	SUBJECT ON THE DATE OF REGISTRATION 98/09/29 TO SUBSECTION 44(1) OF THE LAND TITLES ACT, EXCEPT PARAGRAPHS 3 AND 14 THEREOF. CORRECTION: INSTRUMENT NUMBER LT567229 WAS ENTERED IN ERROR AGAINST THIS PROPERTY AND WAS REMOVED AND CERTIFIED ON 1999/12/01 BY D
18289	0021	SUBJECT ON THE DATE OF REGISTRATION 98/09/29 TO SUBSECTION 44(1) OF THE LAND TITLES ACT, EXCEPT PARAGRAPHS 3 AND 14 THEREOF. CORRECTION: INSTRUMENT NUMBER LT567229 WAS ENTERED IN ERROR AGAINST THIS PROPERTY AND WAS REMOVED AND CERTIFIED ON 1999/12/01 BY D
18289	0022	SUBJECT ON THE DATE OF REGISTRATION 98/09/29 TO SUBSECTION 44(1) OF THE LAND TITLES ACT, EXCEPT PARAGRAPHS 3 AND 14 THEREOF. CORRECTION: INSTRUMENT NUMBER LT567229 WAS ENTERED IN ERROR AGAINST THIS PROPERTY AND WAS REMOVED AND CERTIFIED ON 1999/12/01 BY D
18289	0023	SUBJECT ON THE DATE OF REGISTRATION 98/09/29 TO SUBSECTION 44(1) OF THE LAND TITLES ACT, EXCEPT PARAGRAPHS 3 AND 14 THEREOF. CORRECTION: INSTRUMENT NUMBER LT567229 WAS ENTERED IN ERROR AGAINST THIS PROPERTY AND WAS REMOVED AND CERTIFIED ON 1999/12/01 BY D
18289	0024	SUBJECT ON THE DATE OF REGISTRATION 98/09/29 TO SUBSECTION 44(1) OF THE LAND TITLES ACT, EXCEPT PARAGRAPHS 3 AND 14 THEREOF. CORRECTION: INSTRUMENT NUMBER LT567229 WAS ENTERED IN ERROR AGAINST THIS PROPERTY AND WAS REMOVED AND CERTIFIED ON 1999/12/01 BY D
18289	0025	SUBJECT ON THE DATE OF REGISTRATION 98/09/29 TO SUBSECTION 44(1) OF THE LAND TITLES ACT, EXCEPT PARAGRAPHS 3 AND 14 THEREOF. CORRECTION: INSTRUMENT NUMBER LT567229 WAS ENTERED IN ERROR AGAINST THIS PROPERTY AND WAS REMOVED AND CERTIFIED ON 1999/12/01 BY D
18289	0026	SUBJECT ON THE DATE OF REGISTRATION 98/09/29 TO SUBSECTION 44(1) OF THE LAND TITLES ACT, EXCEPT PARAGRAPHS 3 AND 14 THEREOF. CORRECTION: INSTRUMENT NUMBER LT567229 WAS ENTERED IN ERROR AGAINST THIS PROPERTY AND WAS REMOVED AND CERTIFIED ON 1999/12/01 BY D
18289	0027	SUBJECT ON THE DATE OF REGISTRATION 98/09/29 TO SUBSECTION 44(1) OF THE LAND TITLES ACT, EXCEPT PARAGRAPHS 3 AND 14 THEREOF. CORRECTION: INSTRUMENT NUMBER LT567229 WAS ENTERED IN ERROR AGAINST THIS PROPERTY AND WAS REMOVED AND CERTIFIED ON 1999/12/01 BY D
18289	0028	SUBJECT ON THE DATE OF REGISTRATION 98/09/29 TO SUBSECTION 44(1) OF THE LAND TITLES ACT, EXCEPT PARAGRAPHS 3 AND 14 THEREOF. CORRECTION: INSTRUMENT NUMBER LT567229 WAS ENTERED IN ERROR AGAINST THIS PROPERTY AND WAS REMOVED AND CERTIFIED ON 1999/12/01 BY D
18289	0029	SUBJECT ON THE DATE OF REGISTRATION 98/09/29 TO SUBSECTION 44(1) OF THE LAND TITLES ACT, EXCEPT PARAGRAPHS 3 AND 14 THEREOF. CORRECTION: INSTRUMENT NUMBER LT567229 WAS ENTERED IN ERROR AGAINST THIS PROPERTY AND WAS REMOVED AND CERTIFIED ON 1999/12/01 BY D
18289	0030	SUBJECT ON THE DATE OF REGISTRATION 98/09/29 TO SUBSECTION 44(1) OF THE LAND TITLES ACT, EXCEPT PARAGRAPHS 3 AND 14 THEREOF. CORRECTION: INSTRUMENT NUMBER LT567229 WAS ENTERED IN ERROR AGAINST THIS PROPERTY AND WAS REMOVED AND CERTIFIED ON 1999/12/01 BY D
18289	0031	SUBJECT ON THE DATE OF REGISTRATION 98/09/29 TO SUBSECTION 44(1) OF THE LAND TITLES ACT, EXCEPT PARAGRAPHS 3 AND 14 THEREOF. CORRECTION: INSTRUMENT NUMBER LT567229 WAS ENTERED IN ERROR AGAINST THIS PROPERTY AND WAS REMOVED AND CERTIFIED ON 1999/12/01 BY D
18289	0032	SUBJECT ON THE DATE OF REGISTRATION 98/09/29 TO SUBSECTION 44(1) OF THE LAND TITLES ACT, EXCEPT PARAGRAPHS 3 AND 14 THEREOF. CORRECTION: INSTRUMENT NUMBER LT567229 WAS ENTERED IN ERROR AGAINST THIS PROPERTY AND WAS REMOVED AND CERTIFIED ON 1999/12/01 BY D
18289	0033	SUBJECT ON THE DATE OF REGISTRATION 98/09/29 TO SUBSECTION 44(1) OF THE LAND TITLES ACT, EXCEPT PARAGRAPHS 3 AND 14 THEREOF. CORRECTION: INSTRUMENT NUMBER LT567229 WAS ENTERED IN ERROR AGAINST THIS PROPERTY AND WAS REMOVED AND CERTIFIED ON 1999/12/01 BY D
18289	0034	SUBJECT ON THE DATE OF REGISTRATION 98/09/29 TO SUBSECTION 44(1) OF THE LAND TITLES ACT, EXCEPT PARAGRAPHS 3 AND 14 THEREOF. CORRECTION: INSTRUMENT NUMBER LT567229 WAS ENTERED IN ERROR AGAINST THIS PROPERTY AND WAS REMOVED AND CERTIFIED ON 1999/12/01 BY D
18289	0035	SUBJECT ON THE DATE OF REGISTRATION 98/09/29 TO SUBSECTION 44(1) OF THE LAND TITLES ACT, EXCEPT PARAGRAPHS 3 AND 14 THEREOF. CORRECTION: INSTRUMENT NUMBER LT567229 WAS ENTERED IN ERROR AGAINST THIS PROPERTY AND WAS REMOVED AND CERTIFIED ON 1999/12/01 BY D
18289	0036	SUBJECT ON THE DATE OF REGISTRATION 98/09/29 TO SUBSECTION 44(1) OF THE LAND TITLES ACT, EXCEPT PARAGRAPHS 3 AND 14 THEREOF. CORRECTION: INSTRUMENT NUMBER LT567229 WAS ENTERED IN ERROR AGAINST THIS PROPERTY AND WAS REMOVED AND CERTIFIED ON 1999/12/01 BY D
18289	0037	SUBJECT ON THE DATE OF REGISTRATION 98/09/29 TO SUBSECTION 44(1) OF THE LAND TITLES ACT, EXCEPT PARAGRAPHS 3 AND 14 THEREOF. CORRECTION: INSTRUMENT NUMBER LT567229 WAS ENTERED IN ERROR AGAINST THIS PROPERTY AND WAS REMOVED AND CERTIFIED ON 1999/12/01 BY D
18289	0038	SUBJECT ON THE DATE OF REGISTRATION 98/09/29 TO SUBSECTION 44(1) OF THE LAND TITLES ACT, EXCEPT PARAGRAPHS 3 AND 14 THEREOF. CORRECTION: INSTRUMENT NUMBER LT567229 WAS ENTERED IN ERROR AGAINST THIS PROPERTY AND WAS REMOVED AND CERTIFIED ON 1999/12/01 BY D
18289	0039	SUBJECT ON THE DATE OF REGISTRATION 98/09/29 TO SUBSECTION 44(1) OF THE LAND TITLES ACT, EXCEPT PARAGRAPHS 3 AND 14 THEREOF. CORRECTION: INSTRUMENT NUMBER LT567229 WAS ENTERED IN ERROR AGAINST THIS PROPERTY AND WAS REMOVED AND CERTIFIED ON 1999/12/01 BY D
18289	0040	SUBJECT ON THE DATE OF REGISTRATION 98/09/29 TO SUBSECTION 44(1) OF THE LAND TITLES ACT, EXCEPT PARAGRAPHS 3 AND 14 THEREOF. CORRECTION: INSTRUMENT NUMBER LT567229 WAS ENTERED IN ERROR AGAINST THIS PROPERTY AND WAS REMOVED AND CERTIFIED ON 1999/12/01 BY D
18289	0041	SUBJECT ON THE DATE OF REGISTRATION 98/09/29 TO SUBSECTION 44(1) OF THE LAND TITLES ACT, EXCEPT PARAGRAPHS 3 AND 14 THEREOF. CORRECTION: INSTRUMENT NUMBER LT567229 WAS ENTERED IN ERROR AGAINST THIS PROPERTY AND WAS REMOVED AND CERTIFIED ON 1999/12/01 BY D
18289	0042	SUBJECT ON THE DATE OF REGISTRATION 98/09/29 TO SUBSECTION 44(1) OF THE LAND TITLES ACT, EXCEPT PARAGRAPHS 3 AND 14 THEREOF. CORRECTION: INSTRUMENT NUMBER LT567229 WAS ENTERED IN ERROR AGAINST THIS PROPERTY AND WAS REMOVED AND CERTIFIED ON 1999/12/01 BY D
18289	0043	SUBJECT ON THE DATE OF REGISTRATION 98/09/29 TO SUBSECTION 44(1) OF THE LAND TITLES ACT, EXCEPT PARAGRAPHS 3 AND 14 THEREOF. CORRECTION: INSTRUMENT NUMBER LT567229 WAS ENTERED IN ERROR AGAINST THIS PROPERTY AND WAS REMOVED AND CERTIFIED ON 1999/12/01 BY D
18289	0044	SUBJECT ON THE DATE OF REGISTRATION 98/09/29 TO SUBSECTION 44(1) OF THE LAND TITLES ACT, EXCEPT PARAGRAPHS 3 AND 14 THEREOF. CORRECTION: INSTRUMENT NUMBER LT567229 WAS ENTERED IN ERROR AGAINST THIS PROPERTY AND WAS REMOVED AND CERTIFIED ON 1999/12/01 BY D
18289	0045	SUBJECT ON THE DATE OF REGISTRATION 98/09/29 TO SUBSECTION 44(1) OF THE LAND TITLES ACT, EXCEPT PARAGRAPHS 3 AND 14 THEREOF. CORRECTION: INSTRUMENT NUMBER LT567229 WAS ENTERED IN ERROR AGAINST THIS PROPERTY AND WAS REMOVED AND CERTIFIED ON 1999/12/01 BY D
18289	0046	SUBJECT ON THE DATE OF REGISTRATION 98/09/29 TO SUBSECTION 44(1) OF THE LAND TITLES ACT, EXCEPT PARAGRAPHS 3 AND 14 THEREOF. CORRECTION: INSTRUMENT NUMBER LT567229 WAS ENTERED IN ERROR AGAINST THIS PROPERTY AND WAS REMOVED AND CERTIFIED ON 1999/12/01 BY D
18289	0047	SUBJECT ON THE DATE OF REGISTRATION 98/09/29 TO SUBSECTION 44(1) OF THE LAND TITLES ACT, EXCEPT PARAGRAPHS 3 AND 14 THEREOF. CORRECTION: INSTRUMENT NUMBER LT567229 WAS ENTERED IN ERROR AGAINST THIS PROPERTY AND WAS REMOVED AND CERTIFIED ON 1999/12/01 BY D
18289	0048	SUBJECT ON THE DATE OF REGISTRATION 98/09/29 TO SUBSECTION 44(1) OF THE LAND TITLES ACT, EXCEPT PARAGRAPHS 3 AND 14 THEREOF. CORRECTION: INSTRUMENT NUMBER LT567229 WAS ENTERED IN ERROR AGAINST THIS PROPERTY AND WAS REMOVED AND CERTIFIED ON 1999/12/01 BY D
18289	0049	SUBJECT ON THE DATE OF REGISTRATION 98/09/29 TO SUBSECTION 44(1) OF THE LAND TITLES ACT, EXCEPT PARAGRAPHS 3 AND 14 THEREOF. CORRECTION: INSTRUMENT NUMBER LT567229 WAS ENTERED IN ERROR AGAINST THIS PROPERTY AND WAS REMOVED AND CERTIFIED ON 1999/12/01 BY D
18289	0050	SUBJECT ON THE DATE OF REGISTRATION 98/09/29 TO SUBSECTION 44(1) OF THE LAND TITLES ACT, EXCEPT PARAGRAPHS 3 AND 14 THEREOF. CORRECTION: INSTRUMENT NUMBER LT567229 WAS ENTERED IN ERROR AGAINST THIS PROPERTY AND WAS REMOVED AND CERTIFIED ON 1999/12/01 BY D
18289	0051	SUBJECT ON THE DATE OF REGISTRATION 98/09/29 TO SUBSECTION 44(1) OF THE LAND TITLES ACT, EXCEPT PARAGRAPHS 3 AND 14 THEREOF. CORRECTION: INSTRUMENT NUMBER LT567229 WAS ENTERED IN ERROR AGAINST THIS PROPERTY AND WAS REMOVED AND CERTIFIED ON 1999/12/01 BY D
18289	0052	SUBJECT ON THE DATE OF REGISTRATION 98/09/29 TO SUBSECTION 44(1) OF THE LAND TITLES ACT, EXCEPT PARAGRAPHS 3 AND 14 THEREOF. CORRECTION: INSTRUMENT NUMBER LT567229 WAS ENTERED IN ERROR AGAINST THIS PROPERTY AND WAS REMOVED AND CERTIFIED ON 1999/12/01 BY D
18289	0053	SUBJECT ON THE DATE OF REGISTRATION 98/09/29 TO SUBSECTION 44(1) OF THE LAND TITLES ACT, EXCEPT PARAGRAPHS 3 AND 14 THEREOF. CORRECTION: INSTRUMENT NUMBER LT567229 WAS ENTERED IN ERROR AGAINST THIS PROPERTY AND WAS REMOVED AND CERTIFIED ON 1999/12/01 BY D
18289	0054	SUBJECT ON THE DATE OF REGISTRATION 98/09/29 TO SUBSECTION 44(1) OF THE LAND TITLES ACT, EXCEPT PARAGRAPHS 3 AND 14 THEREOF. CORRECTION: INSTRUMENT NUMBER LT567229 WAS ENTERED IN ERROR AGAINST THIS PROPERTY AND WAS REMOVED AND CERTIFIED ON 1999/12/01 BY D
18289	0055	SUBJECT ON THE DATE OF REGISTRATION 98/09/29 TO SUBSECTION 44(1) OF THE LAND TITLES ACT, EXCEPT PARAGRAPHS 3 AND 14 THEREOF. CORRECTION: INSTRUMENT NUMBER LT567229 WAS ENTERED IN ERROR AGAINST THIS PROPERTY AND WAS REMOVED AND CERTIFIED ON 1999/12/01 BY D
18289	0056	SUBJECT ON THE DATE OF REGISTRATION 98/09/29 TO SUBSECTION 44(1) OF THE LAND TITLES ACT, EXCEPT PARAGRAPHS 3 AND 14 THEREOF. CORRECTION: INSTRUMENT NUMBER LT567229 WAS ENTERED IN ERROR AGAINST THIS PROPERTY AND WAS REMOVED AND CERTIFIED ON 1999/12/01 BY D
18289	0057	SUBJECT ON THE DATE OF REGISTRATION 98/09/29 TO SUBSECTION 44(1) OF THE LAND TITLES ACT, EXCEPT PARAGRAPHS 3 AND 14 THEREOF. CORRECTION: INSTRUMENT NUMBER LT567229 WAS ENTERED IN ERROR AGAINST THIS PROPERTY AND WAS REMOVED AND CERTIFIED ON 1999/12/01 BY D
18289	0058	SUBJECT ON THE DATE OF REGISTRATION 98/09/29 TO SUBSECTION 44(1) OF THE LAND TITLES ACT, EXCEPT PARAGRAPHS 3 AND 14 THEREOF. CORRECTION: INSTRUMENT NUMBER LT567229 WAS ENTERED IN ERROR AGAINST THIS PROPERTY AND WAS REMOVED AND CERTIFIED ON 1999/12/01 BY D
18289	0059	SUBJECT ON THE DATE OF REGISTRATION 98/09/29 TO SUBSECTION 44(1) OF THE LAND TITLES ACT, EXCEPT PARAGRAPHS 3 AND 14 THEREOF. CORRECTION: INSTRUMENT NUMBER LT567229 WAS ENTERED IN ERROR AGAINST THIS PROPERTY AND WAS REMOVED AND CERTIFIED ON 1999/12/01 BY D
18289	0060	SUBJECT ON THE DATE OF REGISTRATION 98/09/29 TO SUBSECTION 44(1) OF THE LAND TITLES ACT, EXCEPT PARAGRAPHS 3 AND 14 THEREOF. CORRECTION: INSTRUMENT NUMBER LT567229 WAS ENTERED IN ERROR AGAINST THIS PROPERTY AND WAS REMOVED AND CERTIFIED ON 1999/12/01 BY D
18289	0061	SUBJECT ON THE DATE OF REGISTRATION 98/09/29 TO SUBSECTION 44(1) OF THE LAND TITLES ACT, EXCEPT PARAGRAPHS 3 AND 14 THEREOF. CORRECTION: INSTRUMENT NUMBER LT567229 WAS ENTERED IN ERROR AGAINST THIS PROPERTY AND WAS REMOVED AND CERTIFIED ON 1999/12/01 BY D
18289	0062	SUBJECT ON THE DATE OF REGISTRATION 98/09/29 TO SUBSECTION 44(1) OF THE LAND TITLES ACT, EXCEPT PARAGRAPHS 3 AND 14 THEREOF. CORRECTION: INSTRUMENT NUMBER LT567229 WAS ENTERED IN ERROR AGAINST THIS PROPERTY AND WAS REMOVED AND CERTIFIED ON 1999/12/01 BY D
18289	0063	SUBJECT ON THE DATE OF REGISTRATION 98/09/29 TO SUBSECTION 44(1) OF THE LAND TITLES ACT, EXCEPT PARAGRAPHS 3 AND 14 THEREOF. CORRECTION: INSTRUMENT NUMBER LT567229 WAS ENTERED IN ERROR AGAINST THIS PROPERTY AND WAS REMOVED AND CERTIFIED ON 1999/12/01 BY D
18289	0064	SUBJECT ON THE DATE OF REGISTRATION 98/09/29 TO SUBSECTION 44(1) OF THE LAND TITLES ACT, EXCEPT PARAGRAPHS 3 AND 14 THEREOF. CORRECTION: INSTRUMENT NUMBER LT567229 WAS ENTERED IN ERROR AGAINST THIS PROPERTY AND WAS REMOVED AND CERTIFIED ON 1999/12/01 BY D
18289	0065	SUBJECT ON THE DATE OF REGISTRATION 98/09/29 TO SUBSECTION 44(1) OF THE LAND TITLES ACT, EXCEPT PARAGRAPHS 3 AND 14 THEREOF. CORRECTION: INSTRUMENT NUMBER LT567229 WAS ENTERED IN ERROR AGAINST THIS PROPERTY AND WAS REMOVED AND CERTIFIED ON 1999/12/01 BY D
18289	0066	SUBJECT ON THE DATE OF REGISTRATION 98/09/29 TO SUBSECTION 44(1) OF THE LAND TITLES ACT, EXCEPT PARAGRAPHS 3 AND 14 THEREOF. CORRECTION: INSTRUMENT NUMBER LT567229 WAS ENTERED IN ERROR AGAINST THIS PROPERTY AND WAS REMOVED AND CERTIFIED ON 1999/12/01 BY D
18289	0067	SUBJECT ON THE DATE OF REGISTRATION 98/09/29 TO SUBSECTION 44(1) OF THE LAND TITLES ACT, EXCEPT PARAGRAPHS 3 AND 14 THEREOF. CORRECTION: INSTRUMENT NUMBER LT567229 WAS ENTERED IN ERROR AGAINST THIS PROPERTY AND WAS REMOVED AND CERTIFIED ON 1999/12/01 BY D
18289	0068	SUBJECT ON THE DATE OF REGISTRATION 98/09/29 TO SUBSECTION 44(1) OF THE LAND TITLES ACT, EXCEPT PARAGRAPHS 3 AND 14 THEREOF. CORRECTION: INSTRUMENT NUMBER LT567229 WAS ENTERED IN ERROR AGAINST THIS PROPERTY AND WAS REMOVED AND CERTIFIED ON 1999/12/01 BY D
18289	0069	SUBJECT ON THE DATE OF REGISTRATION 98/09/29 TO SUBSECTION 44(1) OF THE LAND TITLES ACT, EXCEPT PARAGRAPHS 3 AND 14 THEREOF. CORRECTION: INSTRUMENT NUMBER LT567229 WAS ENTERED IN ERROR AGAINST THIS PROPERTY AND WAS REMOVED AND CERTIFIED ON 1999/12/01 BY D
18289	0070	SUBJECT ON THE DATE OF REGISTRATION 98/09/29 TO SUBSECTION 44(1) OF THE LAND TITLES ACT, EXCEPT PARAGRAPHS 3 AND 14 THEREOF. CORRECTION: INSTRUMENT NUMBER LT567229 WAS ENTERED IN ERROR AGAINST THIS PROPERTY AND WAS REMOVED AND CERTIFIED ON 1999/12/01 BY D
18289	0071	SUBJECT ON THE DATE OF REGISTRATION 98/09/29 TO SUBSECTION 44(1) OF THE LAND TITLES ACT, EXCEPT PARAGRAPHS 3 AND 14 THEREOF. CORRECTION: INSTRUMENT NUMBER LT567229 WAS ENTERED IN ERROR AGAINST THIS PROPERTY AND WAS REMOVED AND CERTIFIED ON 1999/12/01 BY D
18289	0072	SUBJECT ON THE DATE OF REGISTRATION 98/09/29 TO SUBSECTION 44(1) OF THE LAND TITLES ACT, EXCEPT PARAGRAPHS 3 AND 14 THEREOF. CORRECTION: INSTRUMENT NUMBER LT567229 WAS ENTERED IN ERROR AGAINST THIS PROPERTY AND WAS REMOVED AND CERTIFIED ON 1999/12/01 BY D
18289	0073	SUBJECT ON THE DATE OF REGISTRATION 98/09/29 TO SUBSECTION 44(1) OF THE LAND TITLES ACT, EXCEPT PARAGRAPHS 3 AND 14 THEREOF. CORRECTION: INSTRUMENT NUMBER LT567229 WAS ENTERED IN ERROR AGAINST THIS PROPERTY AND WAS REMOVED AND CERTIFIED ON 1999/12/01 BY D
18289	0074	SUBJECT ON THE DATE OF REGISTRATION 98/09/29 TO SUBSECTION 44(1) OF THE LAND TITLES ACT, EXCEPT PARAGRAPHS 3 AND 14 THEREOF. CORRECTION: INSTRUMENT NUMBER LT567229 WAS ENTERED IN ERROR AGAINST THIS PROPERTY AND WAS REMOVED AND CERTIFIED ON 1999/12/01 BY D
18289	0075	SUBJECT ON THE DATE OF REGISTRATION 98/09/29 TO SUBSECTION 44(1) OF THE LAND TITLES ACT, EXCEPT PARAGRAPHS 3 AND 14 THEREOF. CORRECTION: INSTRUMENT NUMBER LT567229 WAS ENTERED IN ERROR AGAINST THIS PROPERTY AND WAS REMOVED AND CERTIFIED ON 1999/12/01 BY D
18289	0076	SUBJECT ON THE DATE OF REGISTRATION 98/09/29 TO SUBSECTION 44(1) OF THE LAND TITLES ACT, EXCEPT PARAGRAPHS 3 AND 14 THEREOF. CORRECTION: INSTRUMENT NUMBER LT567229 WAS ENTERED IN ERROR AGAINST THIS PROPERTY AND WAS REMOVED AND CERTIFIED ON 1999/12/01 BY D
18289	0077	SUBJECT ON THE DATE OF REGISTRATION 98/09/29 TO SUBSECTION 44(1) OF THE LAND TITLES ACT, EXCEPT PARAGRAPHS 3 AND 14 THEREOF. CORRECTION: INSTRUMENT NUMBER LT567229 WAS ENTERED IN ERROR AGAINST THIS PROPERTY AND WAS REMOVED AND CERTIFIED ON 1999/12/01 BY D
18289	0078	SUBJECT ON THE DATE OF REGISTRATION 98/09/29 TO SUBSECTION 44(1) OF THE LAND TITLES ACT, EXCEPT PARAGRAPHS 3 AND 14 THEREOF. CORRECTION: INSTRUMENT NUMBER LT567229 WAS ENTERED IN ERROR AGAINST THIS PROPERTY AND WAS REMOVED AND CERTIFIED ON 1999/12/01 BY D
18289	0079	SUBJECT ON THE DATE OF REGISTRATION 98/09/29 TO SUBSECTION 44(1) OF THE LAND TITLES ACT, EXCEPT PARAGRAPHS 3 AND 14 THEREOF. CORRECTION: INSTRUMENT NUMBER LT567229 WAS ENTERED IN ERROR AGAINST THIS PROPERTY AND WAS REMOVED AND CERTIFIED ON 1999/12/01 BY D
18289	0080	SUBJECT ON THE DATE OF REGISTRATION 98/09/29 TO SUBSECTION 44(1) OF THE LAND TITLES ACT, EXCEPT PARAGRAPHS 3 AND 14 THEREOF. CORRECTION: INSTRUMENT NUMBER LT567229 WAS ENTERED IN ERROR AGAINST THIS PROPERTY AND WAS REMOVED AND CERTIFIED ON 1999/12/01 BY D
18289	0081	SUBJECT ON THE DATE OF REGISTRATION 98/09/29 TO SUBSECTION 44(1) OF THE LAND TITLES ACT, EXCEPT PARAGRAPHS 3 AND 14 THEREOF. CORRECTION: INSTRUMENT NUMBER LT567229 WAS ENTERED IN ERROR AGAINST THIS PROPERTY AND WAS REMOVED AND CERTIFIED ON 1999/12/01 BY D
18289	0082	SUBJECT ON THE DATE OF REGISTRATION 98/09/29 TO SUBSECTION 44(1) OF THE LAND TITLES ACT, EXCEPT PARAGRAPHS 3 AND 14 THEREOF. CORRECTION: INSTRUMENT NUMBER LT567229 WAS ENTERED IN ERROR AGAINST THIS PROPERTY AND WAS REMOVED AND CERTIFIED ON 1999/12/01 BY D
18289	0083	SUBJECT ON THE DATE OF REGISTRATION 98/09/29 TO SUBSECTION 44(1) OF THE LAND TITLES ACT, EXCEPT PARAGRAPHS 3 AND 14 THEREOF. CORRECTION: INSTRUMENT NUMBER LT567229 WAS ENTERED IN ERROR AGAINST THIS PROPERTY AND WAS REMOVED AND CERTIFIED ON 1999/12/01 BY D
18289	0084	SUBJECT ON THE DATE OF REGISTRATION 98/09/29 TO SUBSECTION 44(1) OF THE LAND TITLES ACT, EXCEPT PARAGRAPHS 3 AND 14 THEREOF. CORRECTION: INSTRUMENT NUMBER LT567229 WAS ENTERED IN ERROR AGAINST THIS PROPERTY AND WAS REMOVED AND CERTIFIED ON 1999/12/01 BY D
18289	0085	SUBJECT ON THE DATE OF REGISTRATION 98/09/29 TO SUBSECTION 44(1) OF THE LAND TITLES ACT, EXCEPT PARAGRAPHS 3 AND 14 THEREOF. CORRECTION: INSTRUMENT NUMBER LT567229 WAS ENTERED IN ERROR AGAINST THIS PROPERTY AND WAS REMOVED AND CERTIFIED ON 1999/12/01 BY D
18289	0086	SUBJECT ON THE DATE OF REGISTRATION 98/09/29 TO SUBSECTION 44(1) OF THE LAND TITLES ACT, EXCEPT PARAGRAPHS 3 AND 14 THEREOF. CORRECTION: INSTRUMENT NUMBER LT567229 WAS ENTERED IN ERROR AGAINST THIS PROPERTY AND WAS REMOVED AND CERTIFIED ON 1999/12/01 BY D
18289	0087	SUBJECT ON THE DATE OF REGISTRATION 98/09/29 TO SUBSECTION 44(1) OF THE LAND TITLES ACT, EXCEPT PARAGRAPHS 3 AND 14 THEREOF. CORRECTION: INSTRUMENT NUMBER LT567229 WAS ENTERED IN ERROR AGAINST THIS PROPERTY AND WAS REMOVED AND CERTIFIED ON 1999/12/01 BY D
18289	0088	SUBJECT ON THE DATE OF REGISTRATION 98/09/29 TO SUBSECTION 44(1) OF THE LAND TITLES ACT, EXCEPT PARAGRAPHS 3 AND 14 THEREOF. CORRECTION: INSTRUMENT NUMBER LT567229 WAS ENTERED IN ERROR AGAINST THIS PROPERTY AND WAS REMOVED AND CERTIFIED ON 1999/12/01 BY D
18289	0089	SUBJECT ON THE DATE OF REGISTRATION 98/09/29 TO SUBSECTION 44(1) OF THE LAND TITLES ACT, EXCEPT PARAGRAPHS 3 AND 14 THEREOF. CORRECTION: INSTRUMENT NUMBER LT567229 WAS ENTERED IN ERROR AGAINST THIS PROPERTY AND WAS REMOVED AND CERTIFIED ON 1999/12/01 BY D
18289	0090	SUBJECT ON THE DATE OF REGISTRATION 98/09/29 TO SUBSECTION 44(1) OF THE LAND TITLES ACT, EXCEPT PARAGRAPHS 3 AND 14 THEREOF. CORRECTION: INSTRUMENT NUMBER LT567229 WAS ENTERED IN ERROR AGAINST THIS PROPERTY AND WAS REMOVED AND CERTIFIED ON 1999/12/01 BY D
18289	0091	SUBJECT ON THE DATE OF REGISTRATION 98/09/29 TO SUBSECTION 44(1) OF THE LAND TITLES ACT, EXCEPT PARAGRAPHS 3 AND 14 THEREOF. CORRECTION: INSTRUMENT NUMBER LT567229 WAS ENTERED IN ERROR AGAINST THIS PROPERTY AND WAS REMOVED AND CERTIFIED ON 1999/12/01 BY D
18289	0092	SUBJECT ON THE DATE OF REGISTRATION 98/09/29 TO SUBSECTION 44(1) OF THE LAND TITLES ACT, EXCEPT PARAGRAPHS 3 AND 14 THEREOF. CORRECTION: INSTRUMENT NUMBER LT567229 WAS ENTERED IN ERROR AGAINST THIS PROPERTY AND WAS REMOVED AND CERTIFIED ON 1999/12/01 BY D
18289	0093	SUBJECT ON THE DATE OF REGISTRATION 98/09/29 TO SUBSECTION 44(1) OF THE LAND TITLES ACT, EXCEPT PARAGRAPHS 3 AND 14 THEREOF. CORRECTION: INSTRUMENT NUMBER LT567229 WAS ENTERED IN ERROR AGAINST THIS PROPERTY AND WAS REMOVED AND CERTIFIED ON 1999/12/01 BY D
18289	0094	SUBJECT ON THE DATE OF REGISTRATION 98/09/29 TO SUBSECTION 44(1) OF THE LAND TITLES ACT, EXCEPT PARAGRAPHS 3 AND 14 THEREOF. CORRECTION: INSTRUMENT NUMBER LT567229 WAS ENTERED IN ERROR AGAINST THIS PROPERTY AND WAS REMOVED AND CERTIFIED ON 1999/12/01 BY D
18289	0095	SUBJECT ON THE DATE OF REGISTRATION 98/09/29 TO SUBSECTION 44(1) OF THE LAND TITLES ACT, EXCEPT PARAGRAPHS 3 AND 14 THEREOF. CORRECTION: INSTRUMENT NUMBER LT567229 WAS ENTERED IN ERROR AGAINST THIS PROPERTY AND WAS REMOVED AND CERTIFIED ON 1999/12/01 BY D
18289	0096	SUBJECT ON THE DATE OF REGISTRATION 98/09/29 TO SUBSECTION 44(1) OF THE LAND TITLES ACT, EXCEPT PARAGRAPHS 3 AND 14 THEREOF. CORRECTION: INSTRUMENT NUMBER LT567229 WAS ENTERED IN ERROR AGAINST THIS PROPERTY AND WAS REMOVED AND CERTIFIED ON 1999/12/01 BY D
18289	0097	SUBJECT ON THE DATE OF REGISTRATION 98/09/29 TO SUBSECTION 44(1) OF THE LAND TITLES ACT, EXCEPT PARAGRAPHS 3 AND 14 THEREOF. CORRECTION: INSTRUMENT NUMBER LT567229 WAS ENTERED IN ERROR AGAINST THIS PROPERTY AND WAS REMOVED AND CERTIFIED ON 1999/12/01 BY D
18289	0098	SUBJECT ON THE DATE OF REGISTRATION 98/09/29 TO SUBSECTION 44(1) OF THE LAND TITLES ACT, EXCEPT PARAGRAPHS 3 AND 14 THEREOF. CORRECTION: INSTRUMENT NUMBER LT567229 WAS ENTERED IN ERROR AGAINST THIS PROPERTY AND WAS REMOVED AND CERTIFIED ON 1999/12/01 BY D
18289	0099	SUBJECT ON THE DATE OF REGISTRATION 98/09/29 TO SUBSECTION 44(1) OF THE LAND TITLES ACT, EXCEPT PARAGRAPHS 3 AND 14 THEREOF. CORRECTION: INSTRUMENT NUMBER LT567229 WAS ENTERED IN ERROR AGAINST THIS PROPERTY AND WAS REMOVED AND CERTIFIED ON 1999/12/01 BY D
18289	0100	SUBJECT ON THE DATE OF REGISTRATION 98/09/29 TO SUBSECTION 44(1) OF THE LAND TITLES ACT, EXCEPT PARAGRAPHS 3 AND 14 THEREOF. CORRECTION: INSTRUMENT NUMBER LT567229 WAS ENTERED IN ERROR AGAINST THIS PROPERTY AND WAS REMOVED AND CERTIFIED ON 1999/12/01 BY D
18289	0101	SUBJECT ON THE DATE OF REGISTRATION 98/09/29 TO SUBSECTION 44(1) OF THE LAND TITLES ACT, EXCEPT PARAGRAPHS 3 AND 14 THEREOF. CORRECTION: INSTRUMENT NUMBER LT567229 WAS ENTERED IN ERROR AGAINST THIS PROPERTY AND WAS REMOVED AND CERTIFIED ON 1999/12/01 BY D
18289	0102	SUBJECT ON THE DATE OF REGISTRATION 98/09/29 TO SUBSECTION 44(1) OF THE LAND TITLES ACT, EXCEPT PARAGRAPHS 3 AND 14 THEREOF. CORRECTION: INSTRUMENT NUMBER LT567229 WAS ENTERED IN ERROR AGAINST THIS PROPERTY AND WAS REMOVED AND CERTIFIED ON 1999/12/01 BY D
18289	0103	SUBJECT ON THE DATE OF REGISTRATION 98/09/29 TO SUBSECTION 44(1) OF THE LAND TITLES ACT, EXCEPT PARAGRAPHS 3 AND 14 THEREOF. CORRECTION: INSTRUMENT NUMBER LT567229 WAS ENTERED IN ERROR AGAINST THIS PROPERTY AND WAS REMOVED AND CERTIFIED ON 1999/12/01 BY D
18289	0104	SUBJECT ON THE DATE OF REGISTRATION 98/09/29 TO SUBSECTION 44(1) OF THE LAND TITLES ACT, EXCEPT PARAGRAPHS 3 AND 14 THEREOF. CORRECTION: INSTRUMENT NUMBER LT567229 WAS ENTERED IN ERROR AGAINST THIS PROPERTY AND WAS REMOVED AND CERTIFIED ON 1999/12/01 BY D
18289	0105	SUBJECT ON THE DATE OF REGISTRATION 98/09/29 TO SUBSECTION 44(1) OF THE LAND TITLES ACT, EXCEPT PARAGRAPHS 3 AND 14 THEREOF. CORRECTION: INSTRUMENT NUMBER LT567229 WAS ENTERED IN ERROR AGAINST THIS PROPERTY AND WAS REMOVED AND CERTIFIED ON 1999/12/01 BY D
18289	0106	SUBJECT ON THE DATE OF REGISTRATION 98/09/29 TO SUBSECTION 44(1) OF THE LAND TITLES ACT, EXCEPT PARAGRAPHS 3 AND 14 THEREOF. CORRECTION: INSTRUMENT NUMBER LT567229 WAS ENTERED IN ERROR AGAINST THIS PROPERTY AND WAS REMOVED AND CERTIFIED ON 1999/12/01 BY D
18289	0107	SUBJECT ON THE DATE OF REGISTRATION 98/09/29 TO SUBSECTION 44(1) OF THE LAND TITLES ACT, EXCEPT PARAGRAPHS 3 AND 14 THEREOF. CORRECTION: INSTRUMENT NUMBER LT567229 WAS ENTERED IN ERROR AGAINST THIS PROPERTY AND WAS REMOVED AND CERTIFIED ON 1999/12/01 BY D
18289	0108	SUBJECT ON THE DATE OF REGISTRATION 98/09/29 TO SUBSECTION 44(1) OF THE LAND TITLES ACT, EXCEPT PARAGRAPHS 3 AND 14 THEREOF. CORRECTION: INSTRUMENT NUMBER LT567229 WAS ENTERED IN ERROR AGAINST THIS PROPERTY AND WAS REMOVED AND CERTIFIED ON 1999/12/01 BY D
18291	0018	SUBJECT TO SUBSECTION 44(1) OF THE LAND TITLES ACT, EXCEPT PARAGRAPH 11, PARAGRAPH 14, PROVINCIAL SUCCESSION DUTIES AND ESCHEATS OR FORFEITURE TO THE CROWN, UP TO THE DATE OF CONVERSION, AND EXCEPT PARAGRAPH 3 AND PARAGRAPH 14 THEREAFTER.
18293	0001	SUBJECT TO SUBSECTION 44(1) OF THE LAND TITLES ACT, EXCEPT PARAGRAPHS 11 & 14, PROVINCIAL SUCCESSION DUTIES AND ESCHEATS OR FORFEITURE TO THE CROWN UP TO THE DATE OF CONVERSION AND EXCEPT PARAGRAPHS 3 & 14 THEREAFTER.
18293	0002	SUBJECT TO SUBSECTION 44(1) OF THE LAND TITLES ACT, EXCEPT PARAGRAPHS 11 & 14, PROVINCIAL SUCCESSION DUTIES AND ESCHEATS OR FORFEITURE TO THE CROWN UP TO THE DATE OF CONVERSION AND EXCEPT PARAGRAPHS 3 & 14 THEREAFTER.
18293	0003	SUBJECT TO SUBSECTION 44(1) OF THE LAND TITLES ACT, EXCEPT PARAGRAPHS 11 & 14, PROVINCIAL SUCCESSION DUTIES AND ESCHEATS OR FORFEITURE TO THE CROWN UP TO THE DATE OF CONVERSION AND EXCEPT PARAGRAPHS 3 & 14 THEREAFTER.
18293	0004	SUBJECT TO SUBSECTION 44(1) OF THE LAND TITLES ACT, EXCEPT PARAGRAPHS 11 & 14, PROVINCIAL SUCCESSION DUTIES AND ESCHEATS OR FORFEITURE TO THE CROWN UP TO THE DATE OF CONVERSION AND EXCEPT PARAGRAPHS 3 & 14 THEREAFTER.
18293	0005	SUBJECT TO SUBSECTION 44(1) OF THE LAND TITLES ACT, EXCEPT PARAGRAPHS 11 & 14, PROVINCIAL SUCCESSION DUTIES AND ESCHEATS OR FORFEITURE TO THE CROWN UP TO THE DATE OF CONVERSION AND EXCEPT PARAGRAPHS 3 & 14 THEREAFTER.
18293	0006	SUBJECT TO SUBSECTION 44(1) OF THE LAND TITLES ACT, EXCEPT PARAGRAPHS 11 & 14, PROVINCIAL SUCCESSION DUTIES AND ESCHEATS OR FORFEITURE TO THE CROWN UP TO THE DATE OF CONVERSION AND EXCEPT PARAGRAPHS 3 & 14 THEREAFTER.
18293	0007	SUBJECT TO SUBSECTION 44(1) OF THE LAND TITLES ACT, EXCEPT PARAGRAPHS 11 & 14, PROVINCIAL SUCCESSION DUTIES AND ESCHEATS OR FORFEITURE TO THE CROWN UP TO THE DATE OF CONVERSION AND EXCEPT PARAGRAPHS 3 & 14 THEREAFTER.
18293	0008	SUBJECT TO SUBSECTION 44(1) OF THE LAND TITLES ACT, EXCEPT PARAGRAPHS 11 & 14, PROVINCIAL SUCCESSION DUTIES AND ESCHEATS OR FORFEITURE TO THE CROWN UP TO THE DATE OF CONVERSION AND EXCEPT PARAGRAPHS 3 & 14 THEREAFTER.
18293	0009	SUBJECT TO SUBSECTION 44(1) OF THE LAND TITLES ACT, EXCEPT PARAGRAPHS 11 & 14, PROVINCIAL SUCCESSION DUTIES AND ESCHEATS OR FORFEITURE TO THE CROWN UP TO THE DATE OF CONVERSION AND EXCEPT PARAGRAPHS 3 & 14 THEREAFTER.
18293	0010	SUBJECT TO SUBSECTION 44(1) OF THE LAND TITLES ACT, EXCEPT PARAGRAPHS 11 & 14, PROVINCIAL SUCCESSION DUTIES AND ESCHEATS OR FORFEITURE TO THE CROWN UP TO THE DATE OF CONVERSION AND EXCEPT PARAGRAPHS 3 & 14 THEREAFTER.
18293	0011	SUBJECT TO SUBSECTION 44(1) OF THE LAND TITLES ACT, EXCEPT PARAGRAPHS 11 & 14, PROVINCIAL SUCCESSION DUTIES AND ESCHEATS OR FORFEITURE TO THE CROWN UP TO THE DATE OF CONVERSION AND EXCEPT PARAGRAPHS 3 & 14 THEREAFTER.
18293	0012	SUBJECT TO SUBSECTION 44(1) OF THE LAND TITLES ACT, EXCEPT PARAGRAPHS 11 & 14, PROVINCIAL SUCCESSION DUTIES AND ESCHEATS OR FORFEITURE TO THE CROWN UP TO THE DATE OF CONVERSION AND EXCEPT PARAGRAPHS 3 & 14 THEREAFTER.
18293	0013	SUBJECT TO SUBSECTION 44(1) OF THE LAND TITLES ACT, EXCEPT PARAGRAPHS 11 & 14, PROVINCIAL SUCCESSION DUTIES AND ESCHEATS OR FORFEITURE TO THE CROWN UP TO THE DATE OF CONVERSION AND EXCEPT PARAGRAPHS 3 & 14 THEREAFTER.
18293	0014	SUBJECT TO SUBSECTION 44(1) OF THE LAND TITLES ACT, EXCEPT PARAGRAPHS 11 & 14, PROVINCIAL SUCCESSION DUTIES AND ESCHEATS OR FORFEITURE TO THE CROWN UP TO THE DATE OF CONVERSION AND EXCEPT PARAGRAPHS 3 & 14 THEREAFTER.
18293	0015	SUBJECT TO SUBSECTION 44(1) OF THE LAND TITLES ACT, EXCEPT PARAGRAPHS 11 & 14, PROVINCIAL SUCCESSION DUTIES AND ESCHEATS OR FORFEITURE TO THE CROWN UP TO THE DATE OF CONVERSION AND EXCEPT PARAGRAPHS 3 & 14 THEREAFTER.
18293	0016	SUBJECT TO SUBSECTION 44(1) OF THE LAND TITLES ACT, EXCEPT PARAGRAPHS 11 & 14, PROVINCIAL SUCCESSION DUTIES AND ESCHEATS OR FORFEITURE TO THE CROWN UP TO THE DATE OF CONVERSION AND EXCEPT PARAGRAPHS 3 & 14 THEREAFTER.
18293	0017	SUBJECT TO SUBSECTION 44(1) OF THE LAND TITLES ACT, EXCEPT PARAGRAPHS 11 & 14, PROVINCIAL SUCCESSION DUTIES AND ESCHEATS OR FORFEITURE TO THE CROWN UP TO THE DATE OF CONVERSION AND EXCEPT PARAGRAPHS 3 & 14 THEREAFTER.
18293	0018	SUBJECT TO SUBSECTION 44(1) OF THE LAND TITLES ACT, EXCEPT PARAGRAPHS 11 & 14, PROVINCIAL SUCCESSION DUTIES AND ESCHEATS OR FORFEITURE TO THE CROWN UP TO THE DATE OF CONVERSION AND EXCEPT PARAGRAPHS 3 & 14 THEREAFTER.
18293	0019	SUBJECT TO SUBSECTION 44(1) OF THE LAND TITLES ACT, EXCEPT PARAGRAPHS 11 & 14, PROVINCIAL SUCCESSION DUTIES AND ESCHEATS OR FORFEITURE TO THE CROWN UP TO THE DATE OF CONVERSION AND EXCEPT PARAGRAPHS 3 & 14 THEREAFTER.
18293	0020	SUBJECT TO SUBSECTION 44(1) OF THE LAND TITLES ACT, EXCEPT PARAGRAPHS 11 & 14, PROVINCIAL SUCCESSION DUTIES AND ESCHEATS OR FORFEITURE TO THE CROWN UP TO THE DATE OF CONVERSION AND EXCEPT PARAGRAPHS 3 & 14 THEREAFTER.
18293	0021	SUBJECT TO SUBSECTION 44(1) OF THE LAND TITLES ACT, EXCEPT PARAGRAPHS 11 & 14, PROVINCIAL SUCCESSION DUTIES AND ESCHEATS OR FORFEITURE TO THE CROWN UP TO THE DATE OF CONVERSION AND EXCEPT PARAGRAPHS 3 & 14 THEREAFTER.
18293	0022	SUBJECT TO SUBSECTION 44(1) OF THE LAND TITLES ACT, EXCEPT PARAGRAPHS 11 & 14, PROVINCIAL SUCCESSION DUTIES AND ESCHEATS OR FORFEITURE TO THE CROWN UP TO THE DATE OF CONVERSION AND EXCEPT PARAGRAPHS 3 & 14 THEREAFTER.
18293	0023	SUBJECT TO SUBSECTION 44(1) OF THE LAND TITLES ACT, EXCEPT PARAGRAPHS 11 & 14, PROVINCIAL SUCCESSION DUTIES AND ESCHEATS OR FORFEITURE TO THE CROWN UP TO THE DATE OF CONVERSION AND EXCEPT PARAGRAPHS 3 & 14 THEREAFTER.
18293	0024	SUBJECT TO SUBSECTION 44(1) OF THE LAND TITLES ACT, EXCEPT PARAGRAPHS 11 & 14, PROVINCIAL SUCCESSION DUTIES AND ESCHEATS OR FORFEITURE TO THE CROWN UP TO THE DATE OF CONVERSION AND EXCEPT PARAGRAPHS 3 & 14 THEREAFTER.
18293	0025	SUBJECT TO SUBSECTION 44(1) OF THE LAND TITLES ACT, EXCEPT PARAGRAPHS 11 & 14, PROVINCIAL SUCCESSION DUTIES AND ESCHEATS OR FORFEITURE TO THE CROWN UP TO THE DATE OF CONVERSION AND EXCEPT PARAGRAPHS 3 & 14 THEREAFTER.
18293	0026	SUBJECT TO SUBSECTION 44(1) OF THE LAND TITLES ACT, EXCEPT PARAGRAPHS 11 & 14, PROVINCIAL SUCCESSION DUTIES AND ESCHEATS OR FORFEITURE TO THE CROWN UP TO THE DATE OF CONVERSION AND EXCEPT PARAGRAPHS 3 & 14 THEREAFTER.
18293	0027	SUBJECT TO SUBSECTION 44(1) OF THE LAND TITLES ACT, EXCEPT PARAGRAPHS 11 & 14, PROVINCIAL SUCCESSION DUTIES AND ESCHEATS OR FORFEITURE TO THE CROWN UP TO THE DATE OF CONVERSION AND EXCEPT PARAGRAPHS 3 & 14 THEREAFTER.
18293	0028	SUBJECT TO SUBSECTION 44(1) OF THE LAND TITLES ACT, EXCEPT PARAGRAPHS 11 & 14, PROVINCIAL SUCCESSION DUTIES AND ESCHEATS OR FORFEITURE TO THE CROWN UP TO THE DATE OF CONVERSION AND EXCEPT PARAGRAPHS 3 & 14 THEREAFTER.
18293	0029	SUBJECT TO SUBSECTION 44(1) OF THE LAND TITLES ACT, EXCEPT PARAGRAPHS 11 & 14, PROVINCIAL SUCCESSION DUTIES AND ESCHEATS OR FORFEITURE TO THE CROWN UP TO THE DATE OF CONVERSION AND EXCEPT PARAGRAPHS 3 & 14 THEREAFTER.
18293	0030	SUBJECT TO SUBSECTION 44(1) OF THE LAND TITLES ACT, EXCEPT PARAGRAPHS 11 & 14, PROVINCIAL SUCCESSION DUTIES AND ESCHEATS OR FORFEITURE TO THE CROWN UP TO THE DATE OF CONVERSION AND EXCEPT PARAGRAPHS 3 & 14 THEREAFTER.
18293	0031	SUBJECT TO SUBSECTION 44(1) OF THE LAND TITLES ACT, EXCEPT PARAGRAPHS 11 & 14, PROVINCIAL SUCCESSION DUTIES AND ESCHEATS OR FORFEITURE TO THE CROWN UP TO THE DATE OF CONVERSION AND EXCEPT PARAGRAPHS 3 & 14 THEREAFTER.
18293	0032	SUBJECT TO SUBSECTION 44(1) OF THE LAND TITLES ACT, EXCEPT PARAGRAPHS 11 & 14, PROVINCIAL SUCCESSION DUTIES AND ESCHEATS OR FORFEITURE TO THE CROWN UP TO THE DATE OF CONVERSION AND EXCEPT PARAGRAPHS 3 & 14 THEREAFTER.
18293	0033	SUBJECT TO SUBSECTION 44(1) OF THE LAND TITLES ACT, EXCEPT PARAGRAPHS 11 & 14, PROVINCIAL SUCCESSION DUTIES AND ESCHEATS OR FORFEITURE TO THE CROWN UP TO THE DATE OF CONVERSION AND EXCEPT PARAGRAPHS 3 & 14 THEREAFTER.
18293	0034	SUBJECT TO SUBSECTION 44(1) OF THE LAND TITLES ACT, EXCEPT PARAGRAPHS 11 & 14, PROVINCIAL SUCCESSION DUTIES AND ESCHEATS OR FORFEITURE TO THE CROWN UP TO THE DATE OF CONVERSION AND EXCEPT PARAGRAPHS 3 & 14 THEREAFTER.
18293	0035	SUBJECT TO SUBSECTION 44(1) OF THE LAND TITLES ACT, EXCEPT PARAGRAPHS 11 & 14, PROVINCIAL SUCCESSION DUTIES AND ESCHEATS OR FORFEITURE TO THE CROWN UP TO THE DATE OF CONVERSION AND EXCEPT PARAGRAPHS 3 & 14 THEREAFTER.
18293	0036	SUBJECT TO SUBSECTION 44(1) OF THE LAND TITLES ACT, EXCEPT PARAGRAPHS 11 & 14, PROVINCIAL SUCCESSION DUTIES AND ESCHEATS OR FORFEITURE TO THE CROWN UP TO THE DATE OF CONVERSION AND EXCEPT PARAGRAPHS 3 & 14 THEREAFTER.
18293	0037	SUBJECT TO SUBSECTION 44(1) OF THE LAND TITLES ACT, EXCEPT PARAGRAPHS 11 & 14, PROVINCIAL SUCCESSION DUTIES AND ESCHEATS OR FORFEITURE TO THE CROWN UP TO THE DATE OF CONVERSION AND EXCEPT PARAGRAPHS 3 & 14 THEREAFTER.
18293	0038	SUBJECT TO SUBSECTION 44(1) OF THE LAND TITLES ACT, EXCEPT PARAGRAPHS 11 & 14, PROVINCIAL SUCCESSION DUTIES AND ESCHEATS OR FORFEITURE TO THE CROWN UP TO THE DATE OF CONVERSION AND EXCEPT PARAGRAPHS 3 & 14 THEREAFTER.
18293	0039	SUBJECT TO SUBSECTION 44(1) OF THE LAND TITLES ACT, EXCEPT PARAGRAPHS 11 & 14, PROVINCIAL SUCCESSION DUTIES AND ESCHEATS OR FORFEITURE TO THE CROWN UP TO THE DATE OF CONVERSION AND EXCEPT PARAGRAPHS 3 & 14 THEREAFTER.
18293	0040	SUBJECT TO SUBSECTION 44(1) OF THE LAND TITLES ACT, EXCEPT PARAGRAPHS 11 & 14, PROVINCIAL SUCCESSION DUTIES AND ESCHEATS OR FORFEITURE TO THE CROWN UP TO THE DATE OF CONVERSION AND EXCEPT PARAGRAPHS 3 & 14 THEREAFTER.
18293	0041	SUBJECT TO SUBSECTION 44(1) OF THE LAND TITLES ACT, EXCEPT PARAGRAPHS 11 & 14, PROVINCIAL SUCCESSION DUTIES AND ESCHEATS OR FORFEITURE TO THE CROWN UP TO THE DATE OF CONVERSION AND EXCEPT PARAGRAPHS 3 & 14 THEREAFTER.
18293	0042	SUBJECT TO SUBSECTION 44(1) OF THE LAND TITLES ACT, EXCEPT PARAGRAPHS 11 & 14, PROVINCIAL SUCCESSION DUTIES AND ESCHEATS OR FORFEITURE TO THE CROWN UP TO THE DATE OF CONVERSION AND EXCEPT PARAGRAPHS 3 & 14 THEREAFTER.
18293	0043	SUBJECT TO SUBSECTION 44(1) OF THE LAND TITLES ACT, EXCEPT PARAGRAPHS 11 & 14, PROVINCIAL SUCCESSION DUTIES AND ESCHEATS OR FORFEITURE TO THE CROWN UP TO THE DATE OF CONVERSION AND EXCEPT PARAGRAPHS 3 & 14 THEREAFTER.
18293	0044	SUBJECT TO SUBSECTION 44(1) OF THE LAND TITLES ACT, EXCEPT PARAGRAPHS 11 & 14, PROVINCIAL SUCCESSION DUTIES AND ESCHEATS OR FORFEITURE TO THE CROWN UP TO THE DATE OF CONVERSION AND EXCEPT PARAGRAPHS 3 & 14 THEREAFTER.
18293	0045	SUBJECT TO SUBSECTION 44(1) OF THE LAND TITLES ACT, EXCEPT PARAGRAPHS 11 & 14, PROVINCIAL SUCCESSION DUTIES AND ESCHEATS OR FORFEITURE TO THE CROWN UP TO THE DATE OF CONVERSION AND EXCEPT PARAGRAPHS 3 & 14 THEREAFTER.
18293	0046	SUBJECT TO SUBSECTION 44(1) OF THE LAND TITLES ACT, EXCEPT PARAGRAPHS 11 & 14, PROVINCIAL SUCCESSION DUTIES AND ESCHEATS OR FORFEITURE TO THE CROWN UP TO THE DATE OF CONVERSION AND EXCEPT PARAGRAPHS 3 & 14 THEREAFTER.
18293	0047	SUBJECT TO SUBSECTION 44(1) OF THE LAND TITLES ACT, EXCEPT PARAGRAPHS 11 & 14, PROVINCIAL SUCCESSION DUTIES AND ESCHEATS OR FORFEITURE TO THE CROWN UP TO THE DATE OF CONVERSION AND EXCEPT PARAGRAPHS 3 & 14 THEREAFTER.
18293	0048	SUBJECT TO SUBSECTION 44(1) OF THE LAND TITLES ACT, EXCEPT PARAGRAPHS 11 & 14, PROVINCIAL SUCCESSION DUTIES AND ESCHEATS OR FORFEITURE TO THE CROWN UP TO THE DATE OF CONVERSION AND EXCEPT PARAGRAPHS 3 & 14 THEREAFTER.
18293	0049	SUBJECT TO SUBSECTION 44(1) OF THE LAND TITLES ACT, EXCEPT PARAGRAPHS 11 & 14, PROVINCIAL SUCCESSION DUTIES AND ESCHEATS OR FORFEITURE TO THE CROWN UP TO THE DATE OF CONVERSION AND EXCEPT PARAGRAPHS 3 & 14 THEREAFTER.
18293	0050	SUBJECT TO SUBSECTION 44(1) OF THE LAND TITLES ACT, EXCEPT PARAGRAPHS 11 & 14, PROVINCIAL SUCCESSION DUTIES AND ESCHEATS OR FORFEITURE TO THE CROWN UP TO THE DATE OF CONVERSION AND EXCEPT PARAGRAPHS 3 & 14 THEREAFTER.
18293	0051	SUBJECT TO SUBSECTION 44(1) OF THE LAND TITLES ACT, EXCEPT PARAGRAPHS 11 & 14, PROVINCIAL SUCCESSION DUTIES AND ESCHEATS OR FORFEITURE TO THE CROWN UP TO THE DATE OF CONVERSION AND EXCEPT PARAGRAPHS 3 & 14 THEREAFTER.
18293	0052	SUBJECT TO SUBSECTION 44(1) OF THE LAND TITLES ACT, EXCEPT PARAGRAPHS 11 & 14, PROVINCIAL SUCCESSION DUTIES AND ESCHEATS OR FORFEITURE TO THE CROWN UP TO THE DATE OF CONVERSION AND EXCEPT PARAGRAPHS 3 & 14 THEREAFTER.
18293	0053	SUBJECT TO SUBSECTION 44(1) OF THE LAND TITLES ACT, EXCEPT PARAGRAPHS 11 & 14, PROVINCIAL SUCCESSION DUTIES AND ESCHEATS OR FORFEITURE TO THE CROWN UP TO THE DATE OF CONVERSION AND EXCEPT PARAGRAPHS 3 & 14 THEREAFTER.
18293	0054	SUBJECT TO SUBSECTION 44(1) OF THE LAND TITLES ACT, EXCEPT PARAGRAPHS 11 & 14, PROVINCIAL SUCCESSION DUTIES AND ESCHEATS OR FORFEITURE TO THE CROWN UP TO THE DATE OF CONVERSION AND EXCEPT PARAGRAPHS 3 & 14 THEREAFTER.
18293	0055	SUBJECT TO SUBSECTION 44(1) OF THE LAND TITLES ACT, EXCEPT PARAGRAPHS 11 & 14, PROVINCIAL SUCCESSION DUTIES AND ESCHEATS OR FORFEITURE TO THE CROWN UP TO THE DATE OF CONVERSION AND EXCEPT PARAGRAPHS 3 & 14 THEREAFTER.
18293	0056	SUBJECT TO SUBSECTION 44(1) OF THE LAND TITLES ACT, EXCEPT PARAGRAPHS 11 & 14, PROVINCIAL SUCCESSION DUTIES AND ESCHEATS OR FORFEITURE TO THE CROWN UP TO THE DATE OF CONVERSION AND EXCEPT PARAGRAPHS 3 & 14 THEREAFTER.
18293	0057	SUBJECT TO SUBSECTION 44(1) OF THE LAND TITLES ACT, EXCEPT PARAGRAPHS 11 & 14, PROVINCIAL SUCCESSION DUTIES AND ESCHEATS OR FORFEITURE TO THE CROWN UP TO THE DATE OF CONVERSION AND EXCEPT PARAGRAPHS 3 & 14 THEREAFTER.
18293	0058	SUBJECT TO SUBSECTION 44(1) OF THE LAND TITLES ACT, EXCEPT PARAGRAPHS 11 & 14, PROVINCIAL SUCCESSION DUTIES AND ESCHEATS OR FORFEITURE TO THE CROWN UP TO THE DATE OF CONVERSION AND EXCEPT PARAGRAPHS 3 & 14 THEREAFTER.
18293	0059	SUBJECT TO SUBSECTION 44(1) OF THE LAND TITLES ACT, EXCEPT PARAGRAPHS 11 & 14, PROVINCIAL SUCCESSION DUTIES AND ESCHEATS OR FORFEITURE TO THE CROWN UP TO THE DATE OF CONVERSION AND EXCEPT PARAGRAPHS 3 & 14 THEREAFTER.
18293	0060	SUBJECT TO SUBSECTION 44(1) OF THE LAND TITLES ACT, EXCEPT PARAGRAPHS 11 & 14, PROVINCIAL SUCCESSION DUTIES AND ESCHEATS OR FORFEITURE TO THE CROWN UP TO THE DATE OF CONVERSION AND EXCEPT PARAGRAPHS 3 & 14 THEREAFTER.
18293	0061	SUBJECT TO SUBSECTION 44(1) OF THE LAND TITLES ACT, EXCEPT PARAGRAPHS 11 & 14, PROVINCIAL SUCCESSION DUTIES AND ESCHEATS OR FORFEITURE TO THE CROWN UP TO THE DATE OF CONVERSION AND EXCEPT PARAGRAPHS 3 & 14 THEREAFTER.
18293	0062	SUBJECT TO SUBSECTION 44(1) OF THE LAND TITLES ACT, EXCEPT PARAGRAPHS 11 & 14, PROVINCIAL SUCCESSION DUTIES AND ESCHEATS OR FORFEITURE TO THE CROWN UP TO THE DATE OF CONVERSION AND EXCEPT PARAGRAPHS 3 & 14 THEREAFTER.
18293	0063	SUBJECT TO SUBSECTION 44(1) OF THE LAND TITLES ACT, EXCEPT PARAGRAPHS 11 & 14, PROVINCIAL SUCCESSION DUTIES AND ESCHEATS OR FORFEITURE TO THE CROWN UP TO THE DATE OF CONVERSION AND EXCEPT PARAGRAPHS 3 & 14 THEREAFTER.
18293	0064	SUBJECT TO SUBSECTION 44(1) OF THE LAND TITLES ACT, EXCEPT PARAGRAPHS 11 & 14, PROVINCIAL SUCCESSION DUTIES AND ESCHEATS OR FORFEITURE TO THE CROWN UP TO THE DATE OF CONVERSION AND EXCEPT PARAGRAPHS 3 & 14 THEREAFTER.
18293	0065	SUBJECT TO SUBSECTION 44(1) OF THE LAND TITLES ACT, EXCEPT PARAGRAPHS 11 & 14, PROVINCIAL SUCCESSION DUTIES AND ESCHEATS OR FORFEITURE TO THE CROWN UP TO THE DATE OF CONVERSION AND EXCEPT PARAGRAPHS 3 & 14 THEREAFTER.
18293	0066	SUBJECT TO SUBSECTION 44(1) OF THE LAND TITLES ACT, EXCEPT PARAGRAPHS 11 & 14, PROVINCIAL SUCCESSION DUTIES AND ESCHEATS OR FORFEITURE TO THE CROWN UP TO THE DATE OF CONVERSION AND EXCEPT PARAGRAPHS 3 & 14 THEREAFTER.
18293	0067	SUBJECT TO SUBSECTION 44(1) OF THE LAND TITLES ACT, EXCEPT PARAGRAPHS 11 & 14, PROVINCIAL SUCCESSION DUTIES AND ESCHEATS OR FORFEITURE TO THE CROWN UP TO THE DATE OF CONVERSION AND EXCEPT PARAGRAPHS 3 & 14 THEREAFTER.
18293	0068	SUBJECT TO SUBSECTION 44(1) OF THE LAND TITLES ACT, EXCEPT PARAGRAPHS 11 & 14, PROVINCIAL SUCCESSION DUTIES AND ESCHEATS OR FORFEITURE TO THE CROWN UP TO THE DATE OF CONVERSION AND EXCEPT PARAGRAPHS 3 & 14 THEREAFTER.
18293	0069	SUBJECT TO SUBSECTION 44(1) OF THE LAND TITLES ACT, EXCEPT PARAGRAPHS 11 & 14, PROVINCIAL SUCCESSION DUTIES AND ESCHEATS OR FORFEITURE TO THE CROWN UP TO THE DATE OF CONVERSION AND EXCEPT PARAGRAPHS 3 & 14 THEREAFTER.
18293	0070	SUBJECT TO SUBSECTION 44(1) OF THE LAND TITLES ACT, EXCEPT PARAGRAPHS 11 & 14, PROVINCIAL SUCCESSION DUTIES AND ESCHEATS OR FORFEITURE TO THE CROWN UP TO THE DATE OF CONVERSION AND EXCEPT PARAGRAPHS 3 & 14 THEREAFTER.
18293	0071	SUBJECT TO SUBSECTION 44(1) OF THE LAND TITLES ACT, EXCEPT PARAGRAPHS 11 & 14, PROVINCIAL SUCCESSION DUTIES AND ESCHEATS OR FORFEITURE TO THE CROWN UP TO THE DATE OF CONVERSION AND EXCEPT PARAGRAPHS 3 & 14 THEREAFTER.
18293	0072	SUBJECT TO SUBSECTION 44(1) OF THE LAND TITLES ACT, EXCEPT PARAGRAPHS 11 & 14, PROVINCIAL SUCCESSION DUTIES AND ESCHEATS OR FORFEITURE TO THE CROWN UP TO THE DATE OF CONVERSION AND EXCEPT PARAGRAPHS 3 & 14 THEREAFTER.
18293	0073	SUBJECT TO SUBSECTION 44(1) OF THE LAND TITLES ACT, EXCEPT PARAGRAPHS 11 & 14, PROVINCIAL SUCCESSION DUTIES AND ESCHEATS OR FORFEITURE TO THE CROWN UP TO THE DATE OF CONVERSION AND EXCEPT PARAGRAPHS 3 & 14 THEREAFTER.
18293	0074	SUBJECT TO SUBSECTION 44(1) OF THE LAND TITLES ACT, EXCEPT PARAGRAPHS 11 & 14, PROVINCIAL SUCCESSION DUTIES AND ESCHEATS OR FORFEITURE TO THE CROWN UP TO THE DATE OF CONVERSION AND EXCEPT PARAGRAPHS 3 & 14 THEREAFTER.
18293	0075	SUBJECT TO SUBSECTION 44(1) OF THE LAND TITLES ACT, EXCEPT PARAGRAPHS 11 & 14, PROVINCIAL SUCCESSION DUTIES AND ESCHEATS OR FORFEITURE TO THE CROWN UP TO THE DATE OF CONVERSION AND EXCEPT PARAGRAPHS 3 & 14 THEREAFTER.
18293	0076	SUBJECT TO SUBSECTION 44(1) OF THE LAND TITLES ACT, EXCEPT PARAGRAPHS 11 & 14, PROVINCIAL SUCCESSION DUTIES AND ESCHEATS OR FORFEITURE TO THE CROWN UP TO THE DATE OF CONVERSION AND EXCEPT PARAGRAPHS 3 & 14 THEREAFTER.
18293	0077	SUBJECT TO SUBSECTION 44(1) OF THE LAND TITLES ACT, EXCEPT PARAGRAPHS 11 & 14, PROVINCIAL SUCCESSION DUTIES AND ESCHEATS OR FORFEITURE TO THE CROWN UP TO THE DATE OF CONVERSION AND EXCEPT PARAGRAPHS 3 & 14 THEREAFTER.
18293	0078	SUBJECT TO SUBSECTION 44(1) OF THE LAND TITLES ACT, EXCEPT PARAGRAPHS 11 & 14, PROVINCIAL SUCCESSION DUTIES AND ESCHEATS OR FORFEITURE TO THE CROWN UP TO THE DATE OF CONVERSION AND EXCEPT PARAGRAPHS 3 & 14 THEREAFTER.
18293	0079	SUBJECT TO SUBSECTION 44(1) OF THE LAND TITLES ACT, EXCEPT PARAGRAPHS 11 & 14, PROVINCIAL SUCCESSION DUTIES AND ESCHEATS OR FORFEITURE TO THE CROWN UP TO THE DATE OF CONVERSION AND EXCEPT PARAGRAPHS 3 & 14 THEREAFTER.
18293	0080	SUBJECT TO SUBSECTION 44(1) OF THE LAND TITLES ACT, EXCEPT PARAGRAPHS 11 & 14, PROVINCIAL SUCCESSION DUTIES AND ESCHEATS OR FORFEITURE TO THE CROWN UP TO THE DATE OF CONVERSION AND EXCEPT PARAGRAPHS 3 & 14 THEREAFTER.
18293	0081	SUBJECT TO SUBSECTION 44(1) OF THE LAND TITLES ACT, EXCEPT PARAGRAPHS 11 & 14, PROVINCIAL SUCCESSION DUTIES AND ESCHEATS OR FORFEITURE TO THE CROWN UP TO THE DATE OF CONVERSION AND EXCEPT PARAGRAPHS 3 & 14 THEREAFTER.
18293	0082	SUBJECT TO SUBSECTION 44(1) OF THE LAND TITLES ACT, EXCEPT PARAGRAPHS 11 & 14, PROVINCIAL SUCCESSION DUTIES AND ESCHEATS OR FORFEITURE TO THE CROWN UP TO THE DATE OF CONVERSION AND EXCEPT PARAGRAPHS 3 & 14 THEREAFTER.
18293	0083	SUBJECT TO SUBSECTION 44(1) OF THE LAND TITLES ACT, EXCEPT PARAGRAPHS 11 & 14, PROVINCIAL SUCCESSION DUTIES AND ESCHEATS OR FORFEITURE TO THE CROWN UP TO THE DATE OF CONVERSION AND EXCEPT PARAGRAPHS 3 & 14 THEREAFTER.
18293	0084	SUBJECT TO SUBSECTION 44(1) OF THE LAND TITLES ACT, EXCEPT PARAGRAPHS 11 & 14, PROVINCIAL SUCCESSION DUTIES AND ESCHEATS OR FORFEITURE TO THE CROWN UP TO THE DATE OF CONVERSION AND EXCEPT PARAGRAPHS 3 & 14 THEREAFTER.
18293	0085	SUBJECT TO SUBSECTION 44(1) OF THE LAND TITLES ACT, EXCEPT PARAGRAPHS 11 & 14, PROVINCIAL SUCCESSION DUTIES AND ESCHEATS OR FORFEITURE TO THE CROWN UP TO THE DATE OF CONVERSION AND EXCEPT PARAGRAPHS 3 & 14 THEREAFTER.
18293	0086	SUBJECT TO SUBSECTION 44(1) OF THE LAND TITLES ACT, EXCEPT PARAGRAPHS 11 & 14, PROVINCIAL SUCCESSION DUTIES AND ESCHEATS OR FORFEITURE TO THE CROWN UP TO THE DATE OF CONVERSION AND EXCEPT PARAGRAPHS 3 & 14 THEREAFTER.
18293	0087	SUBJECT TO SUBSECTION 44(1) OF THE LAND TITLES ACT, EXCEPT PARAGRAPHS 11 & 14, PROVINCIAL SUCCESSION DUTIES AND ESCHEATS OR FORFEITURE TO THE CROWN UP TO THE DATE OF CONVERSION AND EXCEPT PARAGRAPHS 3 & 14 THEREAFTER.
18293	0088	SUBJECT TO SUBSECTION 44(1) OF THE LAND TITLES ACT, EXCEPT PARAGRAPHS 11 & 14, PROVINCIAL SUCCESSION DUTIES AND ESCHEATS OR FORFEITURE TO THE CROWN UP TO THE DATE OF CONVERSION AND EXCEPT PARAGRAPHS 3 & 14 THEREAFTER.
18293	0089	SUBJECT TO SUBSECTION 44(1) OF THE LAND TITLES ACT, EXCEPT PARAGRAPHS 11 & 14, PROVINCIAL SUCCESSION DUTIES AND ESCHEATS OR FORFEITURE TO THE CROWN UP TO THE DATE OF CONVERSION AND EXCEPT PARAGRAPHS 3 & 14 THEREAFTER.
18293	0090	SUBJECT TO SUBSECTION 44(1) OF THE LAND TITLES ACT, EXCEPT PARAGRAPHS 11 & 14, PROVINCIAL SUCCESSION DUTIES AND ESCHEATS OR FORFEITURE TO THE CROWN UP TO THE DATE OF CONVERSION AND EXCEPT PARAGRAPHS 3 & 14 THEREAFTER.
18293	0091	SUBJECT TO SUBSECTION 44(1) OF THE LAND TITLES ACT, EXCEPT PARAGRAPHS 11 & 14, PROVINCIAL SUCCESSION DUTIES AND ESCHEATS OR FORFEITURE TO THE CROWN UP TO THE DATE OF CONVERSION AND EXCEPT PARAGRAPHS 3 & 14 THEREAFTER.
18293	0092	SUBJECT TO SUBSECTION 44(1) OF THE LAND TITLES ACT, EXCEPT PARAGRAPHS 11 & 14, PROVINCIAL SUCCESSION DUTIES AND ESCHEATS OR FORFEITURE TO THE CROWN UP TO THE DATE OF CONVERSION AND EXCEPT PARAGRAPHS 3 & 14 THEREAFTER.
18293	0093	SUBJECT TO SUBSECTION 44(1) OF THE LAND TITLES ACT, EXCEPT PARAGRAPHS 11 & 14, PROVINCIAL SUCCESSION DUTIES AND ESCHEATS OR FORFEITURE TO THE CROWN UP TO THE DATE OF CONVERSION AND EXCEPT PARAGRAPHS 3 & 14 THEREAFTER.
18293	0094	SUBJECT TO SUBSECTION 44(1) OF THE LAND TITLES ACT, EXCEPT PARAGRAPHS 11 & 14, PROVINCIAL SUCCESSION DUTIES AND ESCHEATS OR FORFEITURE TO THE CROWN UP TO THE DATE OF CONVERSION AND EXCEPT PARAGRAPHS 3 & 14 THEREAFTER.
18293	0095	SUBJECT TO SUBSECTION 44(1) OF THE LAND TITLES ACT, EXCEPT PARAGRAPHS 11 & 14, PROVINCIAL SUCCESSION DUTIES AND ESCHEATS OR FORFEITURE TO THE CROWN UP TO THE DATE OF CONVERSION AND EXCEPT PARAGRAPHS 3 & 14 THEREAFTER.
18293	0096	SUBJECT TO SUBSECTION 44(1) OF THE LAND TITLES ACT, EXCEPT PARAGRAPHS 11 & 14, PROVINCIAL SUCCESSION DUTIES AND ESCHEATS OR FORFEITURE TO THE CROWN UP TO THE DATE OF CONVERSION AND EXCEPT PARAGRAPHS 3 & 14 THEREAFTER.
18293	0097	SUBJECT TO SUBSECTION 44(1) OF THE LAND TITLES ACT, EXCEPT PARAGRAPHS 11 & 14, PROVINCIAL SUCCESSION DUTIES AND ESCHEATS OR FORFEITURE TO THE CROWN UP TO THE DATE OF CONVERSION AND EXCEPT PARAGRAPHS 3 & 14 THEREAFTER.
18293	0098	SUBJECT TO SUBSECTION 44(1) OF THE LAND TITLES ACT, EXCEPT PARAGRAPHS 11 & 14, PROVINCIAL SUCCESSION DUTIES AND ESCHEATS OR FORFEITURE TO THE CROWN UP TO THE DATE OF CONVERSION AND EXCEPT PARAGRAPHS 3 & 14 THEREAFTER.
18293	0099	SUBJECT TO SUBSECTION 44(1) OF THE LAND TITLES ACT, EXCEPT PARAGRAPHS 11 & 14, PROVINCIAL SUCCESSION DUTIES AND ESCHEATS OR FORFEITURE TO THE CROWN UP TO THE DATE OF CONVERSION AND EXCEPT PARAGRAPHS 3 & 14 THEREAFTER.
18293	0100	SUBJECT TO SUBSECTION 44(1) OF THE LAND TITLES ACT, EXCEPT PARAGRAPHS 11 & 14, PROVINCIAL SUCCESSION DUTIES AND ESCHEATS OR FORFEITURE TO THE CROWN UP TO THE DATE OF CONVERSION AND EXCEPT PARAGRAPHS 3 & 14 THEREAFTER.
18293	0101	SUBJECT TO SUBSECTION 44(1) OF THE LAND TITLES ACT, EXCEPT PARAGRAPHS 11 & 14, PROVINCIAL SUCCESSION DUTIES AND ESCHEATS OR FORFEITURE TO THE CROWN UP TO THE DATE OF CONVERSION AND EXCEPT PARAGRAPHS 3 & 14 THEREAFTER.
18293	0102	SUBJECT TO SUBSECTION 44(1) OF THE LAND TITLES ACT, EXCEPT PARAGRAPHS 11 & 14, PROVINCIAL SUCCESSION DUTIES AND ESCHEATS OR FORFEITURE TO THE CROWN UP TO THE DATE OF CONVERSION AND EXCEPT PARAGRAPHS 3 & 14 THEREAFTER.
18293	0103	SUBJECT TO SUBSECTION 44(1) OF THE LAND TITLES ACT, EXCEPT PARAGRAPHS 11 & 14, PROVINCIAL SUCCESSION DUTIES AND ESCHEATS OR FORFEITURE TO THE CROWN UP TO THE DATE OF CONVERSION AND EXCEPT PARAGRAPHS 3 & 14 THEREAFTER.
18293	0104	SUBJECT TO SUBSECTION 44(1) OF THE LAND TITLES ACT, EXCEPT PARAGRAPHS 11 & 14, PROVINCIAL SUCCESSION DUTIES AND ESCHEATS OR FORFEITURE TO THE CROWN UP TO THE DATE OF CONVERSION AND EXCEPT PARAGRAPHS 3 & 14 THEREAFTER.
18293	0105	SUBJECT TO SUBSECTION 44(1) OF THE LAND TITLES ACT, EXCEPT PARAGRAPHS 11 & 14, PROVINCIAL SUCCESSION DUTIES AND ESCHEATS OR FORFEITURE TO THE CROWN UP TO THE DATE OF CONVERSION AND EXCEPT PARAGRAPHS 3 & 14 THEREAFTER.
18293	0106	SUBJECT TO SUBSECTION 44(1) OF THE LAND TITLES ACT, EXCEPT PARAGRAPHS 11 & 14, PROVINCIAL SUCCESSION DUTIES AND ESCHEATS OR FORFEITURE TO THE CROWN UP TO THE DATE OF CONVERSION AND EXCEPT PARAGRAPHS 3 & 14 THEREAFTER.
18293	0107	SUBJECT TO SUBSECTION 44(1) OF THE LAND TITLES ACT, EXCEPT PARAGRAPHS 11 & 14, PROVINCIAL SUCCESSION DUTIES AND ESCHEATS OR FORFEITURE TO THE CROWN UP TO THE DATE OF CONVERSION AND EXCEPT PARAGRAPHS 3 & 14 THEREAFTER.
18293	0108	SUBJECT TO SUBSECTION 44(1) OF THE LAND TITLES ACT, EXCEPT PARAGRAPHS 11 & 14, PROVINCIAL SUCCESSION DUTIES AND ESCHEATS OR FORFEITURE TO THE CROWN UP TO THE DATE OF CONVERSION AND EXCEPT PARAGRAPHS 3 & 14 THEREAFTER.
18293	0109	SUBJECT TO SUBSECTION 44(1) OF THE LAND TITLES ACT, EXCEPT PARAGRAPHS 11 & 14, PROVINCIAL SUCCESSION DUTIES AND ESCHEATS OR FORFEITURE TO THE CROWN UP TO THE DATE OF CONVERSION AND EXCEPT PARAGRAPHS 3 & 14 THEREAFTER.
18293	0110	SUBJECT TO SUBSECTION 44(1) OF THE LAND TITLES ACT, EXCEPT PARAGRAPHS 11 & 14, PROVINCIAL SUCCESSION DUTIES AND ESCHEATS OR FORFEITURE TO THE CROWN UP TO THE DATE OF CONVERSION AND EXCEPT PARAGRAPHS 3 & 14 THEREAFTER.
18293	0111	SUBJECT TO SUBSECTION 44(1) OF THE LAND TITLES ACT, EXCEPT PARAGRAPHS 11 & 14, PROVINCIAL SUCCESSION DUTIES AND ESCHEATS OR FORFEITURE TO THE CROWN UP TO THE DATE OF CONVERSION AND EXCEPT PARAGRAPHS 3 & 14 THEREAFTER.
18293	0112	SUBJECT TO SUBSECTION 44(1) OF THE LAND TITLES ACT, EXCEPT PARAGRAPHS 11 & 14, PROVINCIAL SUCCESSION DUTIES AND ESCHEATS OR FORFEITURE TO THE CROWN UP TO THE DATE OF CONVERSION AND EXCEPT PARAGRAPHS 3 & 14 THEREAFTER.
18293	0113	SUBJECT TO SUBSECTION 44(1) OF THE LAND TITLES ACT, EXCEPT PARAGRAPHS 11 & 14, PROVINCIAL SUCCESSION DUTIES AND ESCHEATS OR FORFEITURE TO THE CROWN UP TO THE DATE OF CONVERSION AND EXCEPT PARAGRAPHS 3 & 14 THEREAFTER.
18293	0114	SUBJECT TO SUBSECTION 44(1) OF THE LAND TITLES ACT, EXCEPT PARAGRAPHS 11 & 14, PROVINCIAL SUCCESSION DUTIES AND ESCHEATS OR FORFEITURE TO THE CROWN UP TO THE DATE OF CONVERSION AND EXCEPT PARAGRAPHS 3 & 14 THEREAFTER.
18293	0115	SUBJECT TO SUBSECTION 44(1) OF THE LAND TITLES ACT, EXCEPT PARAGRAPHS 11 & 14, PROVINCIAL SUCCESSION DUTIES AND ESCHEATS OR FORFEITURE TO THE CROWN UP TO THE DATE OF CONVERSION AND EXCEPT PARAGRAPHS 3 & 14 THEREAFTER.
18293	0116	SUBJECT TO SUBSECTION 44(1) OF THE LAND TITLES ACT, EXCEPT PARAGRAPHS 11 & 14, PROVINCIAL SUCCESSION DUTIES AND ESCHEATS OR FORFEITURE TO THE CROWN UP TO THE DATE OF CONVERSION AND EXCEPT PARAGRAPHS 3 & 14 THEREAFTER.
18293	0117	SUBJECT TO SUBSECTION 44(1) OF THE LAND TITLES ACT, EXCEPT PARAGRAPHS 11 & 14, PROVINCIAL SUCCESSION DUTIES AND ESCHEATS OR FORFEITURE TO THE CROWN UP TO THE DATE OF CONVERSION AND EXCEPT PARAGRAPHS 3 & 14 THEREAFTER.
18293	0118	SUBJECT TO SUBSECTION 44(1) OF THE LAND TITLES ACT, EXCEPT PARAGRAPHS 11 & 14, PROVINCIAL SUCCESSION DUTIES AND ESCHEATS OR FORFEITURE TO THE CROWN UP TO THE DATE OF CONVERSION AND EXCEPT PARAGRAPHS 3 & 14 THEREAFTER.
18293	0119	SUBJECT TO SUBSECTION 44(1) OF THE LAND TITLES ACT, EXCEPT PARAGRAPHS 11 & 14, PROVINCIAL SUCCESSION DUTIES AND ESCHEATS OR FORFEITURE TO THE CROWN UP TO THE DATE OF CONVERSION AND EXCEPT PARAGRAPHS 3 & 14 THEREAFTER.
18293	0120	SUBJECT TO SUBSECTION 44(1) OF THE LAND TITLES ACT, EXCEPT PARAGRAPHS 11 & 14, PROVINCIAL SUCCESSION DUTIES AND ESCHEATS OR FORFEITURE TO THE CROWN UP TO THE DATE OF CONVERSION AND EXCEPT PARAGRAPHS 3 & 14 THEREAFTER.
18293	0121	SUBJECT TO SUBSECTION 44(1) OF THE LAND TITLES ACT, EXCEPT PARAGRAPHS 11 & 14, PROVINCIAL SUCCESSION DUTIES AND ESCHEATS OR FORFEITURE TO THE CROWN UP TO THE DATE OF CONVERSION AND EXCEPT PARAGRAPHS 3 & 14 THEREAFTER.
18293	0122	SUBJECT TO SUBSECTION 44(1) OF THE LAND TITLES ACT, EXCEPT PARAGRAPHS 11 & 14, PROVINCIAL SUCCESSION DUTIES AND ESCHEATS OR FORFEITURE TO THE CROWN UP TO THE DATE OF CONVERSION AND EXCEPT PARAGRAPHS 3 & 14 THEREAFTER.
18293	0123	SUBJECT TO SUBSECTION 44(1) OF THE LAND TITLES ACT, EXCEPT PARAGRAPHS 11 & 14, PROVINCIAL SUCCESSION DUTIES AND ESCHEATS OR FORFEITURE TO THE CROWN UP TO THE DATE OF CONVERSION AND EXCEPT PARAGRAPHS 3 & 14 THEREAFTER.
18293	0124	SUBJECT TO SUBSECTION 44(1) OF THE LAND TITLES ACT, EXCEPT PARAGRAPHS 11 & 14, PROVINCIAL SUCCESSION DUTIES AND ESCHEATS OR FORFEITURE TO THE CROWN UP TO THE DATE OF CONVERSION AND EXCEPT PARAGRAPHS 3 & 14 THEREAFTER.
18293	0125	SUBJECT TO SUBSECTION 44(1) OF THE LAND TITLES ACT, EXCEPT PARAGRAPHS 11 & 14, PROVINCIAL SUCCESSION DUTIES AND ESCHEATS OR FORFEITURE TO THE CROWN UP TO THE DATE OF CONVERSION AND EXCEPT PARAGRAPHS 3 & 14 THEREAFTER.
18293	0126	SUBJECT TO SUBSECTION 44(1) OF THE LAND TITLES ACT, EXCEPT PARAGRAPHS 11 & 14, PROVINCIAL SUCCESSION DUTIES AND ESCHEATS OR FORFEITURE TO THE CROWN UP TO THE DATE OF CONVERSION AND EXCEPT PARAGRAPHS 3 & 14 THEREAFTER.
18293	0127	SUBJECT TO SUBSECTION 44(1) OF THE LAND TITLES ACT, EXCEPT PARAGRAPHS 11 & 14, PROVINCIAL SUCCESSION DUTIES AND ESCHEATS OR FORFEITURE TO THE CROWN UP TO THE DATE OF CONVERSION AND EXCEPT PARAGRAPHS 3 & 14 THEREAFTER.
18293	0128	SUBJECT TO SUBSECTION 44(1) OF THE LAND TITLES ACT, EXCEPT PARAGRAPHS 11 & 14, PROVINCIAL SUCCESSION DUTIES AND ESCHEATS OR FORFEITURE TO THE CROWN UP TO THE DATE OF CONVERSION AND EXCEPT PARAGRAPHS 3 & 14 THEREAFTER.
18293	0129	SUBJECT TO SUBSECTION 44(1) OF THE LAND TITLES ACT, EXCEPT PARAGRAPHS 11 & 14, PROVINCIAL SUCCESSION DUTIES AND ESCHEATS OR FORFEITURE TO THE CROWN UP TO THE DATE OF CONVERSION AND EXCEPT PARAGRAPHS 3 & 14 THEREAFTER.
18293	0130	SUBJECT TO SUBSECTION 44(1) OF THE LAND TITLES ACT, EXCEPT PARAGRAPHS 11 & 14, PROVINCIAL SUCCESSION DUTIES AND ESCHEATS OR FORFEITURE TO THE CROWN UP TO THE DATE OF CONVERSION AND EXCEPT PARAGRAPHS 3 & 14 THEREAFTER.
18293	0131	SUBJECT TO SUBSECTION 44(1) OF THE LAND TITLES ACT, EXCEPT PARAGRAPHS 11 & 14, PROVINCIAL SUCCESSION DUTIES AND ESCHEATS OR FORFEITURE TO THE CROWN UP TO THE DATE OF CONVERSION AND EXCEPT PARAGRAPHS 3 & 14 THEREAFTER.
18293	0132	SUBJECT TO SUBSECTION 44(1) OF THE LAND TITLES ACT, EXCEPT PARAGRAPHS 11 & 14, PROVINCIAL SUCCESSION DUTIES AND ESCHEATS OR FORFEITURE TO THE CROWN UP TO THE DATE OF CONVERSION AND EXCEPT PARAGRAPHS 3 & 14 THEREAFTER.
18293	0133	SUBJECT TO SUBSECTION 44(1) OF THE LAND TITLES ACT, EXCEPT PARAGRAPHS 11 & 14, PROVINCIAL SUCCESSION DUTIES AND ESCHEATS OR FORFEITURE TO THE CROWN UP TO THE DATE OF CONVERSION AND EXCEPT PARAGRAPHS 3 & 14 THEREAFTER.
18293	0134	SUBJECT TO SUBSECTION 44(1) OF THE LAND TITLES ACT, EXCEPT PARAGRAPHS 11 & 14, PROVINCIAL SUCCESSION DUTIES AND ESCHEATS OR FORFEITURE TO THE CROWN UP TO THE DATE OF CONVERSION AND EXCEPT PARAGRAPHS 3 & 14 THEREAFTER.
18293	0135	SUBJECT TO SUBSECTION 44(1) OF THE LAND TITLES ACT, EXCEPT PARAGRAPHS 11 & 14, PROVINCIAL SUCCESSION DUTIES AND ESCHEATS OR FORFEITURE TO THE CROWN UP TO THE DATE OF CONVERSION AND EXCEPT PARAGRAPHS 3 & 14 THEREAFTER.
18293	0136	SUBJECT TO SUBSECTION 44(1) OF THE LAND TITLES ACT, EXCEPT PARAGRAPHS 11 & 14, PROVINCIAL SUCCESSION DUTIES AND ESCHEATS OR FORFEITURE TO THE CROWN UP TO THE DATE OF CONVERSION AND EXCEPT PARAGRAPHS 3 & 14 THEREAFTER.
18293	0137	SUBJECT TO SUBSECTION 44(1) OF THE LAND TITLES ACT, EXCEPT PARAGRAPHS 11 & 14, PROVINCIAL SUCCESSION DUTIES AND ESCHEATS OR FORFEITURE TO THE CROWN UP TO THE DATE OF CONVERSION AND EXCEPT PARAGRAPHS 3 & 14 THEREAFTER.
18293	0138	SUBJECT TO SUBSECTION 44(1) OF THE LAND TITLES ACT, EXCEPT PARAGRAPHS 11 & 14, PROVINCIAL SUCCESSION DUTIES AND ESCHEATS OR FORFEITURE TO THE CROWN UP TO THE DATE OF CONVERSION AND EXCEPT PARAGRAPHS 3 & 14 THEREAFTER.
18293	0139	SUBJECT TO SUBSECTION 44(1) OF THE LAND TITLES ACT, EXCEPT PARAGRAPHS 11 & 14, PROVINCIAL SUCCESSION DUTIES AND ESCHEATS OR FORFEITURE TO THE CROWN UP TO THE DATE OF CONVERSION AND EXCEPT PARAGRAPHS 3 & 14 THEREAFTER.
18293	0140	SUBJECT TO SUBSECTION 44(1) OF THE LAND TITLES ACT, EXCEPT PARAGRAPHS 11 & 14, PROVINCIAL SUCCESSION DUTIES AND ESCHEATS OR FORFEITURE TO THE CROWN UP TO THE DATE OF CONVERSION AND EXCEPT PARAGRAPHS 3 & 14 THEREAFTER.
18293	0141	SUBJECT TO SUBSECTION 44(1) OF THE LAND TITLES ACT, EXCEPT PARAGRAPHS 11 & 14, PROVINCIAL SUCCESSION DUTIES AND ESCHEATS OR FORFEITURE TO THE CROWN UP TO THE DATE OF CONVERSION AND EXCEPT PARAGRAPHS 3 & 14 THEREAFTER.
18293	0142	SUBJECT TO SUBSECTION 44(1) OF THE LAND TITLES ACT, EXCEPT PARAGRAPHS 11 & 14, PROVINCIAL SUCCESSION DUTIES AND ESCHEATS OR FORFEITURE TO THE CROWN UP TO THE DATE OF CONVERSION AND EXCEPT PARAGRAPHS 3 & 14 THEREAFTER.
18293	0143	SUBJECT TO SUBSECTION 44(1) OF THE LAND TITLES ACT, EXCEPT PARAGRAPHS 11 & 14, PROVINCIAL SUCCESSION DUTIES AND ESCHEATS OR FORFEITURE TO THE CROWN UP TO THE DATE OF CONVERSION AND EXCEPT PARAGRAPHS 3 & 14 THEREAFTER.
18293	0144	SUBJECT TO SUBSECTION 44(1) OF THE LAND TITLES ACT, EXCEPT PARAGRAPHS 11 & 14, PROVINCIAL SUCCESSION DUTIES AND ESCHEATS OR FORFEITURE TO THE CROWN UP TO THE DATE OF CONVERSION AND EXCEPT PARAGRAPHS 3 & 14 THEREAFTER.
18293	0145	SUBJECT TO SUBSECTION 44(1) OF THE LAND TITLES ACT, EXCEPT PARAGRAPHS 11 & 14, PROVINCIAL SUCCESSION DUTIES AND ESCHEATS OR FORFEITURE TO THE CROWN UP TO THE DATE OF CONVERSION AND EXCEPT PARAGRAPHS 3 & 14 THEREAFTER.
18293	0146	SUBJECT TO SUBSECTION 44(1) OF THE LAND TITLES ACT, EXCEPT PARAGRAPHS 11 & 14, PROVINCIAL SUCCESSION DUTIES AND ESCHEATS OR FORFEITURE TO THE CROWN UP TO THE DATE OF CONVERSION AND EXCEPT PARAGRAPHS 3 & 14 THEREAFTER.
18293	0147	SUBJECT TO SUBSECTION 44(1) OF THE LAND TITLES ACT, EXCEPT PARAGRAPHS 11 & 14, PROVINCIAL SUCCESSION DUTIES AND ESCHEATS OR FORFEITURE TO THE CROWN UP TO THE DATE OF CONVERSION AND EXCEPT PARAGRAPHS 3 & 14 THEREAFTER.
18293	0148	SUBJECT TO SUBSECTION 44(1) OF THE LAND TITLES ACT, EXCEPT PARAGRAPHS 11 & 14, PROVINCIAL SUCCESSION DUTIES AND ESCHEATS OR FORFEITURE TO THE CROWN UP TO THE DATE OF CONVERSION AND EXCEPT PARAGRAPHS 3 & 14 THEREAFTER.
18293	0149	SUBJECT TO SUBSECTION 44(1) OF THE LAND TITLES ACT, EXCEPT PARAGRAPHS 11 & 14, PROVINCIAL SUCCESSION DUTIES AND ESCHEATS OR FORFEITURE TO THE CROWN UP TO THE DATE OF CONVERSION AND EXCEPT PARAGRAPHS 3 & 14 THEREAFTER.
18293	0150	SUBJECT TO SUBSECTION 44(1) OF THE LAND TITLES ACT, EXCEPT PARAGRAPHS 11 & 14, PROVINCIAL SUCCESSION DUTIES AND ESCHEATS OR FORFEITURE TO THE CROWN UP TO THE DATE OF CONVERSION AND EXCEPT PARAGRAPHS 3 & 14 THEREAFTER.
18293	0151	SUBJECT TO SUBSECTION 44(1) OF THE LAND TITLES ACT, EXCEPT PARAGRAPHS 11 & 14, PROVINCIAL SUCCESSION DUTIES AND ESCHEATS OR FORFEITURE TO THE CROWN UP TO THE DATE OF CONVERSION AND EXCEPT PARAGRAPHS 3 & 14 THEREAFTER.
18293	0152	SUBJECT TO SUBSECTION 44(1) OF THE LAND TITLES ACT, EXCEPT PARAGRAPHS 11 & 14, PROVINCIAL SUCCESSION DUTIES AND ESCHEATS OR FORFEITURE TO THE CROWN UP TO THE DATE OF CONVERSION AND EXCEPT PARAGRAPHS 3 & 14 THEREAFTER.
18293	0153	SUBJECT TO SUBSECTION 44(1) OF THE LAND TITLES ACT, EXCEPT PARAGRAPHS 11 & 14, PROVINCIAL SUCCESSION DUTIES AND ESCHEATS OR FORFEITURE TO THE CROWN UP TO THE DATE OF CONVERSION AND EXCEPT PARAGRAPHS 3 & 14 THEREAFTER.
18293	0154	SUBJECT TO SUBSECTION 44(1) OF THE LAND TITLES ACT, EXCEPT PARAGRAPHS 11 & 14, PROVINCIAL SUCCESSION DUTIES AND ESCHEATS OR FORFEITURE TO THE CROWN UP TO THE DATE OF CONVERSION AND EXCEPT PARAGRAPHS 3 & 14 THEREAFTER.
18293	0155	SUBJECT TO SUBSECTION 44(1) OF THE LAND TITLES ACT, EXCEPT PARAGRAPHS 11 & 14, PROVINCIAL SUCCESSION DUTIES AND ESCHEATS OR FORFEITURE TO THE CROWN UP TO THE DATE OF CONVERSION AND EXCEPT PARAGRAPHS 3 & 14 THEREAFTER.
18295	0004	THE FOLLOWING REMARK HAS BEEN ADDED ON 2000/06/01 AT 11:00 BY LYN WEAVER : S/T ENTER OPON FOR 5 YEARS FROM 2000/05/14 AS IN LT600884.
18295	0008	THE FOLLOWING REMARK HAS BEEN ADDED ON 2000/04/27 AT 15:45 BY LYN WEAVER : S/T RT TO ENTER WITHIN 5 YRS. FROM 2000/04/07 AS IN LT596781.
18295	0009	THE FOLLOWING REMARK HAS BEEN ADDED ON 2000/04/27 AT 09:50 BY LYN WEAVER : S/T THE RIGHT TO ENTER UPON THE PROPERTY AT ANY TIME WITHIN 5 YEARS FROM 2000/04/07 AS IN LT 596758.
18296	0019	SUBJECT ON THE DATE OF REGISTRATION 99/04/20 TO SUBSECTION 44 (1) OF THE LAND TITLES ACT, EXCEPT PARAGRAPHS 3 AND 14 THEREOF AND PROVINCIAL SUCCESSION DUIES.
18296	0024	SUBJECT ON THE DATE OF REGISTRATION 99/04/20 TO SUBSECTION 44 (1) OF THE LAND TITLES ACT, EXCEPT PARAGRAPHS 3 AND 14 THEREOF AND PROVINCIAL SUCCESSION DUIES.
18297	0036	SUBJECT TO SUBSECTION 44(1) OF THE LAND TITLES ACT, EXCEPT PARAGRAPHS 11 & 14, PROVINCIAL SUCCESSION DUTIES AND ESCHEATS OR FORFEITURE TO THE CROWN UP TO THE DATE OF CONVERSION AND EXCEPT PARAGRAPHS 3 AND 14 THEREAFTER.
18299	0005	SUBJECT ON THE DATE OF REGISTRATION 98/02/11 TO SUBSECTION 44(1) OF THE LAND TITLES ACT, EXCEPT PARAGRAPHS 3 AND 14 THEREOF AND PROVINCIAL SUCCESSION DUTIES.
18299	0037	SUBJECT ON THE DATE OF REGISTRATION 98/02/11 TO SUBSECTION 44(1) OF THE LAND TITLES ACT, EXCEPT PARAGRAPHS 3 AND 14 THEREOF AND PROVINCIAL SUCCESSION DUTIES.
18302	0001	SUBJECT ON THE DATE OF REGISTRATION 99/04/22 TO SUBSECTION 44 (1) OF THE LAND TITLES ACT, EXCEPT PARAGRAPHS 3 AND 14 THEREOF AND PROVINCIAL SUCCESSION DUTIES.
18302	0002	SUBJECT ON THE DATE OF REGISTRATION 99/04/22 TO SUBSECTION 44 (1) OF THE LAND TITLES ACT, EXCEPT PARAGRAPHS 3 AND 14 THEREOF AND PROVINCIAL SUCCESSION DUTIES.
18302	0003	SUBJECT ON THE DATE OF REGISTRATION 99/04/22 TO SUBSECTION 44 (1) OF THE LAND TITLES ACT, EXCEPT PARAGRAPHS 3 AND 14 THEREOF AND PROVINCIAL SUCCESSION DUTIES.
18302	0004	SUBJECT ON THE DATE OF REGISTRATION 99/04/22 TO SUBSECTION 44 (1) OF THE LAND TITLES ACT, EXCEPT PARAGRAPHS 3 AND 14 THEREOF AND PROVINCIAL SUCCESSION DUTIES.
18302	0005	SUBJECT ON THE DATE OF REGISTRATION 99/04/22 TO SUBSECTION 44 (1) OF THE LAND TITLES ACT, EXCEPT PARAGRAPHS 3 AND 14 THEREOF AND PROVINCIAL SUCCESSION DUTIES.
18302	0006	SUBJECT ON THE DATE OF REGISTRATION 99/04/22 TO SUBSECTION 44 (1) OF THE LAND TITLES ACT, EXCEPT PARAGRAPHS 3 AND 14 THEREOF AND PROVINCIAL SUCCESSION DUTIES.
18302	0007	SUBJECT ON THE DATE OF REGISTRATION 99/04/22 TO SUBSECTION 44 (1) OF THE LAND TITLES ACT, EXCEPT PARAGRAPHS 3 AND 14 THEREOF AND PROVINCIAL SUCCESSION DUTIES.
18302	0008	SUBJECT ON THE DATE OF REGISTRATION 99/04/22 TO SUBSECTION 44 (1) OF THE LAND TITLES ACT, EXCEPT PARAGRAPHS 3 AND 14 THEREOF AND PROVINCIAL SUCCESSION DUTIES.
18306	0005	CORRECTION: INSTRUMENT NUMBER LT560419 WAS OMITTED FROM THIS PROPERTY IN ERROR AND WAS ADDED AND CERTIFIED ON 2000/11/28 BY PETER GAIGAL.
18306	0018	CORRECTION: INSTRUMENT NUMBER LT560419 WAS OMITTED FROM THIS PROPERTY IN ERROR AND WAS ADDED AND CERTIFIED ON 2000/11/28 BY PETER GAIGAL.
18306	0022	CORRECTION: INSTRUMENT NUMBER LT560419 WAS OMITTED FROM THIS PROPERTY IN ERROR AND WAS ADDED AND CERTIFIED ON 2000/11/28 BY PETER GAIGAL.
18316	0008	SUBJECT TO SUBSECTION 44(1) OF THE LAND TITLES ACT, EXCEPT PARAGRAPHS 3 AND 13 AND PROVINCIAL SUCCESSION DUTIES.
18316	0016	SUBJECT TO SUBSECTION 44(1) OF THE LAND TITLES ACT, EXCEPT PARAGRAPHS 3 AND 13 AND PROVINCIAL SUCCESSION DUTIES.
18317	0001	SUBJECT ON THE DATE OF REGISTRATION 2000/03/23 TO SUBSECTION 44 (1) OF THE LAND TITLES ACT, EXCEPT PARAGRAPHS 3 AND 14 THEREOF AND PROVINCIAL SUCCESSION DUTIES.
18317	0002	SUBJECT ON THE DATE OF REGISTRATION 2000/03/23 TO SUBSECTION 44 (1) OF THE LAND TITLES ACT, EXCEPT PARAGRAPHS 3 AND 14 THEREOF AND PROVINCIAL SUCCESSION DUTIES.
18317	0003	SUBJECT ON THE DATE OF REGISTRATION 2000/03/23 TO SUBSECTION 44 (1) OF THE LAND TITLES ACT, EXCEPT PARAGRAPHS 3 AND 14 THEREOF AND PROVINCIAL SUCCESSION DUTIES.
18317	0004	SUBJECT ON THE DATE OF REGISTRATION 2000/03/23 TO SUBSECTION 44 (1) OF THE LAND TITLES ACT, EXCEPT PARAGRAPHS 3 AND 14 THEREOF AND PROVINCIAL SUCCESSION DUTIES.
18317	0005	SUBJECT ON THE DATE OF REGISTRATION 2000/03/23 TO SUBSECTION 44 (1) OF THE LAND TITLES ACT, EXCEPT PARAGRAPHS 3 AND 14 THEREOF AND PROVINCIAL SUCCESSION DUTIES.
18317	0006	SUBJECT ON THE DATE OF REGISTRATION 2000/03/23 TO SUBSECTION 44 (1) OF THE LAND TITLES ACT, EXCEPT PARAGRAPHS 3 AND 14 THEREOF AND PROVINCIAL SUCCESSION DUTIES.
18317	0007	SUBJECT ON THE DATE OF REGISTRATION 2000/03/23 TO SUBSECTION 44 (1) OF THE LAND TITLES ACT, EXCEPT PARAGRAPHS 3 AND 14 THEREOF AND PROVINCIAL SUCCESSION DUTIES.
18317	0008	SUBJECT ON THE DATE OF REGISTRATION 2000/03/23 TO SUBSECTION 44 (1) OF THE LAND TITLES ACT, EXCEPT PARAGRAPHS 3 AND 14 THEREOF AND PROVINCIAL SUCCESSION DUTIES.
18317	0009	SUBJECT ON THE DATE OF REGISTRATION 2000/03/23 TO SUBSECTION 44 (1) OF THE LAND TITLES ACT, EXCEPT PARAGRAPHS 3 AND 14 THEREOF AND PROVINCIAL SUCCESSION DUTIES.
18317	0010	SUBJECT ON THE DATE OF REGISTRATION 2000/03/23 TO SUBSECTION 44 (1) OF THE LAND TITLES ACT, EXCEPT PARAGRAPHS 3 AND 14 THEREOF AND PROVINCIAL SUCCESSION DUTIES.
18317	0011	SUBJECT ON THE DATE OF REGISTRATION 2000/03/23 TO SUBSECTION 44 (1) OF THE LAND TITLES ACT, EXCEPT PARAGRAPHS 3 AND 14 THEREOF AND PROVINCIAL SUCCESSION DUTIES.
18317	0012	SUBJECT ON THE DATE OF REGISTRATION 2000/03/23 TO SUBSECTION 44 (1) OF THE LAND TITLES ACT, EXCEPT PARAGRAPHS 3 AND 14 THEREOF AND PROVINCIAL SUCCESSION DUTIES.
18317	0013	SUBJECT ON THE DATE OF REGISTRATION 2000/03/23 TO SUBSECTION 44 (1) OF THE LAND TITLES ACT, EXCEPT PARAGRAPHS 3 AND 14 THEREOF AND PROVINCIAL SUCCESSION DUTIES.
18317	0014	SUBJECT ON THE DATE OF REGISTRATION 2000/03/23 TO SUBSECTION 44 (1) OF THE LAND TITLES ACT, EXCEPT PARAGRAPHS 3 AND 14 THEREOF AND PROVINCIAL SUCCESSION DUTIES.
18317	0015	SUBJECT ON THE DATE OF REGISTRATION 2000/03/23 TO SUBSECTION 44 (1) OF THE LAND TITLES ACT, EXCEPT PARAGRAPHS 3 AND 14 THEREOF AND PROVINCIAL SUCCESSION DUTIES.
18317	0016	SUBJECT ON THE DATE OF REGISTRATION 2000/03/23 TO SUBSECTION 44 (1) OF THE LAND TITLES ACT, EXCEPT PARAGRAPHS 3 AND 14 THEREOF AND PROVINCIAL SUCCESSION DUTIES.
18317	0017	SUBJECT ON THE DATE OF REGISTRATION 2000/03/23 TO SUBSECTION 44 (1) OF THE LAND TITLES ACT, EXCEPT PARAGRAPHS 3 AND 14 THEREOF AND PROVINCIAL SUCCESSION DUTIES.
18317	0018	SUBJECT ON THE DATE OF REGISTRATION 2000/03/23 TO SUBSECTION 44 (1) OF THE LAND TITLES ACT, EXCEPT PARAGRAPHS 3 AND 14 THEREOF AND PROVINCIAL SUCCESSION DUTIES.
18317	0019	SUBJECT ON THE DATE OF REGISTRATION 2000/03/23 TO SUBSECTION 44 (1) OF THE LAND TITLES ACT, EXCEPT PARAGRAPHS 3 AND 14 THEREOF AND PROVINCIAL SUCCESSION DUTIES.
18317	0020	SUBJECT ON THE DATE OF REGISTRATION 2000/03/23 TO SUBSECTION 44 (1) OF THE LAND TITLES ACT, EXCEPT PARAGRAPHS 3 AND 14 THEREOF AND PROVINCIAL SUCCESSION DUTIES.
18317	0021	SUBJECT ON THE DATE OF REGISTRATION 2000/03/23 TO SUBSECTION 44 (1) OF THE LAND TITLES ACT, EXCEPT PARAGRAPHS 3 AND 14 THEREOF AND PROVINCIAL SUCCESSION DUTIES.
18317	0022	SUBJECT ON THE DATE OF REGISTRATION 2000/03/23 TO SUBSECTION 44 (1) OF THE LAND TITLES ACT, EXCEPT PARAGRAPHS 3 AND 14 THEREOF AND PROVINCIAL SUCCESSION DUTIES.
18317	0023	SUBJECT ON THE DATE OF REGISTRATION 2000/03/23 TO SUBSECTION 44 (1) OF THE LAND TITLES ACT, EXCEPT PARAGRAPHS 3 AND 14 THEREOF AND PROVINCIAL SUCCESSION DUTIES.
18317	0024	SUBJECT ON THE DATE OF REGISTRATION 2000/03/23 TO SUBSECTION 44 (1) OF THE LAND TITLES ACT, EXCEPT PARAGRAPHS 3 AND 14 THEREOF AND PROVINCIAL SUCCESSION DUTIES.
18317	0025	SUBJECT ON THE DATE OF REGISTRATION 2000/03/23 TO SUBSECTION 44 (1) OF THE LAND TITLES ACT, EXCEPT PARAGRAPHS 3 AND 14 THEREOF AND PROVINCIAL SUCCESSION DUTIES.
18317	0026	SUBJECT ON THE DATE OF REGISTRATION 2000/03/23 TO SUBSECTION 44 (1) OF THE LAND TITLES ACT, EXCEPT PARAGRAPHS 3 AND 14 THEREOF AND PROVINCIAL SUCCESSION DUTIES.
18317	0027	SUBJECT ON THE DATE OF REGISTRATION 2000/03/23 TO SUBSECTION 44 (1) OF THE LAND TITLES ACT, EXCEPT PARAGRAPHS 3 AND 14 THEREOF AND PROVINCIAL SUCCESSION DUTIES.
18317	0028	SUBJECT ON THE DATE OF REGISTRATION 2000/03/23 TO SUBSECTION 44 (1) OF THE LAND TITLES ACT, EXCEPT PARAGRAPHS 3 AND 14 THEREOF AND PROVINCIAL SUCCESSION DUTIES.
18317	0029	SUBJECT ON THE DATE OF REGISTRATION 2000/03/23 TO SUBSECTION 44 (1) OF THE LAND TITLES ACT, EXCEPT PARAGRAPHS 3 AND 14 THEREOF AND PROVINCIAL SUCCESSION DUTIES.
18317	0030	SUBJECT ON THE DATE OF REGISTRATION 2000/03/23 TO SUBSECTION 44 (1) OF THE LAND TITLES ACT, EXCEPT PARAGRAPHS 3 AND 14 THEREOF AND PROVINCIAL SUCCESSION DUTIES.
18317	0031	SUBJECT ON THE DATE OF REGISTRATION 2000/03/23 TO SUBSECTION 44 (1) OF THE LAND TITLES ACT, EXCEPT PARAGRAPHS 3 AND 14 THEREOF AND PROVINCIAL SUCCESSION DUTIES.
18317	0032	SUBJECT ON THE DATE OF REGISTRATION 2000/03/23 TO SUBSECTION 44 (1) OF THE LAND TITLES ACT, EXCEPT PARAGRAPHS 3 AND 14 THEREOF AND PROVINCIAL SUCCESSION DUTIES.
18317	0033	SUBJECT ON THE DATE OF REGISTRATION 2000/03/23 TO SUBSECTION 44 (1) OF THE LAND TITLES ACT, EXCEPT PARAGRAPHS 3 AND 14 THEREOF AND PROVINCIAL SUCCESSION DUTIES.
18317	0034	SUBJECT ON THE DATE OF REGISTRATION 2000/03/23 TO SUBSECTION 44 (1) OF THE LAND TITLES ACT, EXCEPT PARAGRAPHS 3 AND 14 THEREOF AND PROVINCIAL SUCCESSION DUTIES.
18317	0035	SUBJECT ON THE DATE OF REGISTRATION 2000/03/23 TO SUBSECTION 44 (1) OF THE LAND TITLES ACT, EXCEPT PARAGRAPHS 3 AND 14 THEREOF AND PROVINCIAL SUCCESSION DUTIES.
18317	0036	SUBJECT ON THE DATE OF REGISTRATION 2000/03/23 TO SUBSECTION 44 (1) OF THE LAND TITLES ACT, EXCEPT PARAGRAPHS 3 AND 14 THEREOF AND PROVINCIAL SUCCESSION DUTIES.
18317	0037	SUBJECT ON THE DATE OF REGISTRATION 2000/03/23 TO SUBSECTION 44 (1) OF THE LAND TITLES ACT, EXCEPT PARAGRAPHS 3 AND 14 THEREOF AND PROVINCIAL SUCCESSION DUTIES.
18317	0038	SUBJECT ON THE DATE OF REGISTRATION 2000/03/23 TO SUBSECTION 44 (1) OF THE LAND TITLES ACT, EXCEPT PARAGRAPHS 3 AND 14 THEREOF AND PROVINCIAL SUCCESSION DUTIES.
18317	0039	SUBJECT ON THE DATE OF REGISTRATION 2000/03/23 TO SUBSECTION 44 (1) OF THE LAND TITLES ACT, EXCEPT PARAGRAPHS 3 AND 14 THEREOF AND PROVINCIAL SUCCESSION DUTIES.
18317	0040	SUBJECT ON THE DATE OF REGISTRATION 2000/03/23 TO SUBSECTION 44 (1) OF THE LAND TITLES ACT, EXCEPT PARAGRAPHS 3 AND 14 THEREOF AND PROVINCIAL SUCCESSION DUTIES.
18317	0041	SUBJECT ON THE DATE OF REGISTRATION 2000/03/23 TO SUBSECTION 44 (1) OF THE LAND TITLES ACT, EXCEPT PARAGRAPHS 3 AND 14 THEREOF AND PROVINCIAL SUCCESSION DUTIES.
18317	0042	SUBJECT ON THE DATE OF REGISTRATION 2000/03/23 TO SUBSECTION 44 (1) OF THE LAND TITLES ACT, EXCEPT PARAGRAPHS 3 AND 14 THEREOF AND PROVINCIAL SUCCESSION DUTIES.
18317	0043	SUBJECT ON THE DATE OF REGISTRATION 2000/03/23 TO SUBSECTION 44 (1) OF THE LAND TITLES ACT, EXCEPT PARAGRAPHS 3 AND 14 THEREOF AND PROVINCIAL SUCCESSION DUTIES.
18317	0044	SUBJECT ON THE DATE OF REGISTRATION 2000/03/23 TO SUBSECTION 44 (1) OF THE LAND TITLES ACT, EXCEPT PARAGRAPHS 3 AND 14 THEREOF AND PROVINCIAL SUCCESSION DUTIES.
18317	0045	SUBJECT ON THE DATE OF REGISTRATION 2000/03/23 TO SUBSECTION 44 (1) OF THE LAND TITLES ACT, EXCEPT PARAGRAPHS 3 AND 14 THEREOF AND PROVINCIAL SUCCESSION DUTIES.
18317	0046	SUBJECT ON THE DATE OF REGISTRATION 2000/03/23 TO SUBSECTION 44 (1) OF THE LAND TITLES ACT, EXCEPT PARAGRAPHS 3 AND 14 THEREOF AND PROVINCIAL SUCCESSION DUTIES.
18317	0047	SUBJECT ON THE DATE OF REGISTRATION 2000/03/23 TO SUBSECTION 44 (1) OF THE LAND TITLES ACT, EXCEPT PARAGRAPHS 3 AND 14 THEREOF AND PROVINCIAL SUCCESSION DUTIES.
18317	0048	SUBJECT ON THE DATE OF REGISTRATION 2000/03/23 TO SUBSECTION 44 (1) OF THE LAND TITLES ACT, EXCEPT PARAGRAPHS 3 AND 14 THEREOF AND PROVINCIAL SUCCESSION DUTIES.
18317	0049	SUBJECT ON THE DATE OF REGISTRATION 2000/03/23 TO SUBSECTION 44 (1) OF THE LAND TITLES ACT, EXCEPT PARAGRAPHS 3 AND 14 THEREOF AND PROVINCIAL SUCCESSION DUTIES.
18317	0050	SUBJECT ON THE DATE OF REGISTRATION 2000/03/23 TO SUBSECTION 44 (1) OF THE LAND TITLES ACT, EXCEPT PARAGRAPHS 3 AND 14 THEREOF AND PROVINCIAL SUCCESSION DUTIES.
18317	0051	SUBJECT ON THE DATE OF REGISTRATION 2000/03/23 TO SUBSECTION 44 (1) OF THE LAND TITLES ACT, EXCEPT PARAGRAPHS 3 AND 14 THEREOF AND PROVINCIAL SUCCESSION DUTIES.
18317	0052	SUBJECT ON THE DATE OF REGISTRATION 2000/03/23 TO SUBSECTION 44 (1) OF THE LAND TITLES ACT, EXCEPT PARAGRAPHS 3 AND 14 THEREOF AND PROVINCIAL SUCCESSION DUTIES.
18317	0053	SUBJECT ON THE DATE OF REGISTRATION 2000/03/23 TO SUBSECTION 44 (1) OF THE LAND TITLES ACT, EXCEPT PARAGRAPHS 3 AND 14 THEREOF AND PROVINCIAL SUCCESSION DUTIES.
18317	0054	SUBJECT ON THE DATE OF REGISTRATION 2000/03/23 TO SUBSECTION 44 (1) OF THE LAND TITLES ACT, EXCEPT PARAGRAPHS 3 AND 14 THEREOF AND PROVINCIAL SUCCESSION DUTIES.
18317	0055	SUBJECT ON THE DATE OF REGISTRATION 2000/03/23 TO SUBSECTION 44 (1) OF THE LAND TITLES ACT, EXCEPT PARAGRAPHS 3 AND 14 THEREOF AND PROVINCIAL SUCCESSION DUTIES.
18317	0056	SUBJECT ON THE DATE OF REGISTRATION 2000/03/23 TO SUBSECTION 44 (1) OF THE LAND TITLES ACT, EXCEPT PARAGRAPHS 3 AND 14 THEREOF AND PROVINCIAL SUCCESSION DUTIES.
18317	0057	SUBJECT ON THE DATE OF REGISTRATION 2000/03/23 TO SUBSECTION 44 (1) OF THE LAND TITLES ACT, EXCEPT PARAGRAPHS 3 AND 14 THEREOF AND PROVINCIAL SUCCESSION DUTIES.
18317	0058	SUBJECT ON THE DATE OF REGISTRATION 2000/03/23 TO SUBSECTION 44 (1) OF THE LAND TITLES ACT, EXCEPT PARAGRAPHS 3 AND 14 THEREOF AND PROVINCIAL SUCCESSION DUTIES.
18317	0059	SUBJECT ON THE DATE OF REGISTRATION 2000/03/23 TO SUBSECTION 44 (1) OF THE LAND TITLES ACT, EXCEPT PARAGRAPHS 3 AND 14 THEREOF AND PROVINCIAL SUCCESSION DUTIES.
18317	0060	SUBJECT ON THE DATE OF REGISTRATION 2000/03/23 TO SUBSECTION 44 (1) OF THE LAND TITLES ACT, EXCEPT PARAGRAPHS 3 AND 14 THEREOF AND PROVINCIAL SUCCESSION DUTIES.
18317	0061	SUBJECT ON THE DATE OF REGISTRATION 2000/03/23 TO SUBSECTION 44 (1) OF THE LAND TITLES ACT, EXCEPT PARAGRAPHS 3 AND 14 THEREOF AND PROVINCIAL SUCCESSION DUTIES.
18317	0062	SUBJECT ON THE DATE OF REGISTRATION 2000/03/23 TO SUBSECTION 44 (1) OF THE LAND TITLES ACT, EXCEPT PARAGRAPHS 3 AND 14 THEREOF AND PROVINCIAL SUCCESSION DUTIES.
18317	0063	SUBJECT ON THE DATE OF REGISTRATION 2000/03/23 TO SUBSECTION 44 (1) OF THE LAND TITLES ACT, EXCEPT PARAGRAPHS 3 AND 14 THEREOF AND PROVINCIAL SUCCESSION DUTIES.
18317	0064	SUBJECT ON THE DATE OF REGISTRATION 2000/03/23 TO SUBSECTION 44 (1) OF THE LAND TITLES ACT, EXCEPT PARAGRAPHS 3 AND 14 THEREOF AND PROVINCIAL SUCCESSION DUTIES.
18317	0065	SUBJECT ON THE DATE OF REGISTRATION 2000/03/23 TO SUBSECTION 44 (1) OF THE LAND TITLES ACT, EXCEPT PARAGRAPHS 3 AND 14 THEREOF AND PROVINCIAL SUCCESSION DUTIES.
18317	0066	SUBJECT ON THE DATE OF REGISTRATION 2000/03/23 TO SUBSECTION 44 (1) OF THE LAND TITLES ACT, EXCEPT PARAGRAPHS 3 AND 14 THEREOF AND PROVINCIAL SUCCESSION DUTIES.
18326	0086	CORRECTION: INSTRUMENT NUMBER WE60128 WAS OMITTED FROM THIS PROPERTY IN ERROR AND WAS ADDED AND CERTIFIED ON 2001/12/10 BY HELEN MACMILLAN.
18327	0001	SUBJECT ON THE DATE OF REGISTRATION 99/08/09 TO SUBSECTION 44 (1) OF THE LAND TITLES ACT, EXCEPT PARAGRAPHS 11 AND 14, PROVINCIAL SUCCESSION DUTIES AND ESCHEATS OR FORFEITURE TO THE CROWN UP TO THE DATE OF CONVERSION AND EXCEPT PARAGRAPHS 3 AND 14 THEREAF
18327	0002	SUBJECT ON THE DATE OF REGISTRATION 99/08/09 TO SUBSECTION 44 (1) OF THE LAND TITLES ACT, EXCEPT PARAGRAPHS 11 AND 14, PROVINCIAL SUCCESSION DUTIES AND ESCHEATS OR FORFEITURE TO THE CROWN UP TO THE DATE OF CONVERSION AND EXCEPT PARAGRAPHS 3 AND 14 THEREAF
18327	0003	SUBJECT ON THE DATE OF REGISTRATION 99/08/09 TO SUBSECTION 44 (1) OF THE LAND TITLES ACT, EXCEPT PARAGRAPHS 11 AND 14, PROVINCIAL SUCCESSION DUTIES AND ESCHEATS OR FORFEITURE TO THE CROWN UP TO THE DATE OF CONVERSION AND EXCEPT PARAGRAPHS 3 AND 14 THEREAF
18327	0004	SUBJECT ON THE DATE OF REGISTRATION 99/08/09 TO SUBSECTION 44 (1) OF THE LAND TITLES ACT, EXCEPT PARAGRAPHS 11 AND 14, PROVINCIAL SUCCESSION DUTIES AND ESCHEATS OR FORFEITURE TO THE CROWN UP TO THE DATE OF CONVERSION AND EXCEPT PARAGRAPHS 3 AND 14 THEREAF
18327	0005	SUBJECT ON THE DATE OF REGISTRATION 99/08/09 TO SUBSECTION 44 (1) OF THE LAND TITLES ACT, EXCEPT PARAGRAPHS 11 AND 14, PROVINCIAL SUCCESSION DUTIES AND ESCHEATS OR FORFEITURE TO THE CROWN UP TO THE DATE OF CONVERSION AND EXCEPT PARAGRAPHS 3 AND 14 THEREAF
18327	0006	SUBJECT ON THE DATE OF REGISTRATION 99/08/09 TO SUBSECTION 44 (1) OF THE LAND TITLES ACT, EXCEPT PARAGRAPHS 11 AND 14, PROVINCIAL SUCCESSION DUTIES AND ESCHEATS OR FORFEITURE TO THE CROWN UP TO THE DATE OF CONVERSION AND EXCEPT PARAGRAPHS 3 AND 14 THEREAF
18327	0007	SUBJECT ON THE DATE OF REGISTRATION 99/08/09 TO SUBSECTION 44 (1) OF THE LAND TITLES ACT, EXCEPT PARAGRAPHS 11 AND 14, PROVINCIAL SUCCESSION DUTIES AND ESCHEATS OR FORFEITURE TO THE CROWN UP TO THE DATE OF CONVERSION AND EXCEPT PARAGRAPHS 3 AND 14 THEREAF
18327	0008	SUBJECT ON THE DATE OF REGISTRATION 99/08/09 TO SUBSECTION 44 (1) OF THE LAND TITLES ACT, EXCEPT PARAGRAPHS 11 AND 14, PROVINCIAL SUCCESSION DUTIES AND ESCHEATS OR FORFEITURE TO THE CROWN UP TO THE DATE OF CONVERSION AND EXCEPT PARAGRAPHS 3 AND 14 THEREAF
18327	0009	SUBJECT ON THE DATE OF REGISTRATION 99/08/09 TO SUBSECTION 44 (1) OF THE LAND TITLES ACT, EXCEPT PARAGRAPHS 11 AND 14, PROVINCIAL SUCCESSION DUTIES AND ESCHEATS OR FORFEITURE TO THE CROWN UP TO THE DATE OF CONVERSION AND EXCEPT PARAGRAPHS 3 AND 14 THEREAF
18327	0010	SUBJECT ON THE DATE OF REGISTRATION 99/08/09 TO SUBSECTION 44 (1) OF THE LAND TITLES ACT, EXCEPT PARAGRAPHS 11 AND 14, PROVINCIAL SUCCESSION DUTIES AND ESCHEATS OR FORFEITURE TO THE CROWN UP TO THE DATE OF CONVERSION AND EXCEPT PARAGRAPHS 3 AND 14 THEREAF
18327	0011	SUBJECT ON THE DATE OF REGISTRATION 99/08/09 TO SUBSECTION 44 (1) OF THE LAND TITLES ACT, EXCEPT PARAGRAPHS 11 AND 14, PROVINCIAL SUCCESSION DUTIES AND ESCHEATS OR FORFEITURE TO THE CROWN UP TO THE DATE OF CONVERSION AND EXCEPT PARAGRAPHS 3 AND 14 THEREAF
18327	0012	SUBJECT ON THE DATE OF REGISTRATION 99/08/09 TO SUBSECTION 44 (1) OF THE LAND TITLES ACT, EXCEPT PARAGRAPHS 11 AND 14, PROVINCIAL SUCCESSION DUTIES AND ESCHEATS OR FORFEITURE TO THE CROWN UP TO THE DATE OF CONVERSION AND EXCEPT PARAGRAPHS 3 AND 14 THEREAF
18327	0013	SUBJECT ON THE DATE OF REGISTRATION 99/08/09 TO SUBSECTION 44 (1) OF THE LAND TITLES ACT, EXCEPT PARAGRAPHS 11 AND 14, PROVINCIAL SUCCESSION DUTIES AND ESCHEATS OR FORFEITURE TO THE CROWN UP TO THE DATE OF CONVERSION AND EXCEPT PARAGRAPHS 3 AND 14 THEREAF
18327	0014	SUBJECT ON THE DATE OF REGISTRATION 99/08/09 TO SUBSECTION 44 (1) OF THE LAND TITLES ACT, EXCEPT PARAGRAPHS 11 AND 14, PROVINCIAL SUCCESSION DUTIES AND ESCHEATS OR FORFEITURE TO THE CROWN UP TO THE DATE OF CONVERSION AND EXCEPT PARAGRAPHS 3 AND 14 THEREAF
18327	0015	SUBJECT ON THE DATE OF REGISTRATION 99/08/09 TO SUBSECTION 44 (1) OF THE LAND TITLES ACT, EXCEPT PARAGRAPHS 11 AND 14, PROVINCIAL SUCCESSION DUTIES AND ESCHEATS OR FORFEITURE TO THE CROWN UP TO THE DATE OF CONVERSION AND EXCEPT PARAGRAPHS 3 AND 14 THEREAF
18327	0016	SUBJECT ON THE DATE OF REGISTRATION 99/08/09 TO SUBSECTION 44 (1) OF THE LAND TITLES ACT, EXCEPT PARAGRAPHS 11 AND 14, PROVINCIAL SUCCESSION DUTIES AND ESCHEATS OR FORFEITURE TO THE CROWN UP TO THE DATE OF CONVERSION AND EXCEPT PARAGRAPHS 3 AND 14 THEREAF
18327	0017	SUBJECT ON THE DATE OF REGISTRATION 99/08/09 TO SUBSECTION 44 (1) OF THE LAND TITLES ACT, EXCEPT PARAGRAPHS 11 AND 14, PROVINCIAL SUCCESSION DUTIES AND ESCHEATS OR FORFEITURE TO THE CROWN UP TO THE DATE OF CONVERSION AND EXCEPT PARAGRAPHS 3 AND 14 THEREAF
18327	0018	SUBJECT ON THE DATE OF REGISTRATION 99/08/09 TO SUBSECTION 44 (1) OF THE LAND TITLES ACT, EXCEPT PARAGRAPHS 11 AND 14, PROVINCIAL SUCCESSION DUTIES AND ESCHEATS OR FORFEITURE TO THE CROWN UP TO THE DATE OF CONVERSION AND EXCEPT PARAGRAPHS 3 AND 14 THEREAF
18327	0019	SUBJECT ON THE DATE OF REGISTRATION 99/08/09 TO SUBSECTION 44 (1) OF THE LAND TITLES ACT, EXCEPT PARAGRAPHS 11 AND 14, PROVINCIAL SUCCESSION DUTIES AND ESCHEATS OR FORFEITURE TO THE CROWN UP TO THE DATE OF CONVERSION AND EXCEPT PARAGRAPHS 3 AND 14 THEREAF
18327	0020	SUBJECT ON THE DATE OF REGISTRATION 99/08/09 TO SUBSECTION 44 (1) OF THE LAND TITLES ACT, EXCEPT PARAGRAPHS 11 AND 14, PROVINCIAL SUCCESSION DUTIES AND ESCHEATS OR FORFEITURE TO THE CROWN UP TO THE DATE OF CONVERSION AND EXCEPT PARAGRAPHS 3 AND 14 THEREAF
18327	0021	SUBJECT ON THE DATE OF REGISTRATION 99/08/09 TO SUBSECTION 44 (1) OF THE LAND TITLES ACT, EXCEPT PARAGRAPHS 11 AND 14, PROVINCIAL SUCCESSION DUTIES AND ESCHEATS OR FORFEITURE TO THE CROWN UP TO THE DATE OF CONVERSION AND EXCEPT PARAGRAPHS 3 AND 14 THEREAF
18332	0008	SUBJECT TO SUBSECTION 44(1) OF THE LAND TITLES ACT, EXCEPT PARAGRAPHS 11 AND 14, PROVINCIAL SUCCESSION DUTIES AND ESCHEATS OR FORFEITURE TO THE CROWN UP TO THE DATE OF CONVERSION AND EXCEPT PARAGRAPHS 3 AND 14 THEREAFTER.
18332	0018	SUBJECT TO SUBSECTION 44(1) OF THE LAND TITLES ACT, EXCEPT PARAGRAPHS 11 AND 14, PROVINCIAL SUCCESSION DUTIES AND ESCHEATS OR FORFEITURE TO THE CROWN UP TO THE DATE OF CONVERSION AND EXCEPT PARAGRAPHS 3 AND 14 THEREAFTER.
18334	0005	SUBJECT TO SUBSECTION 44(1) OF THE LAND TITLES ACT, EXCEPT PARAGRAPHS 11 & 14, PROVINCIAL SUCCESSION DUTIES AND ESCHEATS OR FORFEITURE TO THE CROWN UP TO THE DATE OF CONVERSION, AND EXCEPT PARAGRAPHS 3 AND 14 THEREAFTER.
18334	0018	SUBJECT TO SUBSECTION 44(1) OF THE LAND TITLES ACT, EXCEPT PARAGRAPHS 11 & 14, PROVINCIAL SUCCESSION DUTIES AND ESCHEATS OR FORFEITURE TO THE CROWN UP TO THE DATE OF CONVERSION, AND EXCEPT PARAGRAPHS 3 AND 14 THEREAFTER.
18336	0001	SUBJECT TO SUBSECTION 44(1) OF THE LAND TITLES ACT, EXCEPT PARAGRAPHS 11 & 14, PROVINCIAL SUCCESSION DUTIES AND ESCHEATS OR FORFEITURE TO THE CROWN UP TO THE DATE OF CONVERSION AND EXCEPTS PARAGRAPHS 3 AND 14 THEREAFTER.
18336	0002	SUBJECT TO SUBSECTION 44(1) OF THE LAND TITLES ACT, EXCEPT PARAGRAPHS 11 & 14, PROVINCIAL SUCCESSION DUTIES AND ESCHEATS OR FORFEITURE TO THE CROWN UP TO THE DATE OF CONVERSION AND EXCEPTS PARAGRAPHS 3 AND 14 THEREAFTER.
18336	0003	SUBJECT TO SUBSECTION 44(1) OF THE LAND TITLES ACT, EXCEPT PARAGRAPHS 11 & 14, PROVINCIAL SUCCESSION DUTIES AND ESCHEATS OR FORFEITURE TO THE CROWN UP TO THE DATE OF CONVERSION AND EXCEPTS PARAGRAPHS 3 AND 14 THEREAFTER.
18336	0004	SUBJECT TO SUBSECTION 44(1) OF THE LAND TITLES ACT, EXCEPT PARAGRAPHS 11 & 14, PROVINCIAL SUCCESSION DUTIES AND ESCHEATS OR FORFEITURE TO THE CROWN UP TO THE DATE OF CONVERSION AND EXCEPTS PARAGRAPHS 3 AND 14 THEREAFTER.
18336	0005	SUBJECT TO SUBSECTION 44(1) OF THE LAND TITLES ACT, EXCEPT PARAGRAPHS 11 & 14, PROVINCIAL SUCCESSION DUTIES AND ESCHEATS OR FORFEITURE TO THE CROWN UP TO THE DATE OF CONVERSION AND EXCEPTS PARAGRAPHS 3 AND 14 THEREAFTER.
18336	0006	SUBJECT TO SUBSECTION 44(1) OF THE LAND TITLES ACT, EXCEPT PARAGRAPHS 11 & 14, PROVINCIAL SUCCESSION DUTIES AND ESCHEATS OR FORFEITURE TO THE CROWN UP TO THE DATE OF CONVERSION AND EXCEPTS PARAGRAPHS 3 AND 14 THEREAFTER.
18336	0007	SUBJECT TO SUBSECTION 44(1) OF THE LAND TITLES ACT, EXCEPT PARAGRAPHS 11 & 14, PROVINCIAL SUCCESSION DUTIES AND ESCHEATS OR FORFEITURE TO THE CROWN UP TO THE DATE OF CONVERSION AND EXCEPTS PARAGRAPHS 3 AND 14 THEREAFTER.
18336	0008	SUBJECT TO SUBSECTION 44(1) OF THE LAND TITLES ACT, EXCEPT PARAGRAPHS 11 & 14, PROVINCIAL SUCCESSION DUTIES AND ESCHEATS OR FORFEITURE TO THE CROWN UP TO THE DATE OF CONVERSION AND EXCEPTS PARAGRAPHS 3 AND 14 THEREAFTER.
18336	0009	SUBJECT TO SUBSECTION 44(1) OF THE LAND TITLES ACT, EXCEPT PARAGRAPHS 11 & 14, PROVINCIAL SUCCESSION DUTIES AND ESCHEATS OR FORFEITURE TO THE CROWN UP TO THE DATE OF CONVERSION AND EXCEPTS PARAGRAPHS 3 AND 14 THEREAFTER.
18336	0010	SUBJECT TO SUBSECTION 44(1) OF THE LAND TITLES ACT, EXCEPT PARAGRAPHS 11 & 14, PROVINCIAL SUCCESSION DUTIES AND ESCHEATS OR FORFEITURE TO THE CROWN UP TO THE DATE OF CONVERSION AND EXCEPTS PARAGRAPHS 3 AND 14 THEREAFTER.
18336	0011	SUBJECT TO SUBSECTION 44(1) OF THE LAND TITLES ACT, EXCEPT PARAGRAPHS 11 & 14, PROVINCIAL SUCCESSION DUTIES AND ESCHEATS OR FORFEITURE TO THE CROWN UP TO THE DATE OF CONVERSION AND EXCEPTS PARAGRAPHS 3 AND 14 THEREAFTER.
18336	0012	SUBJECT TO SUBSECTION 44(1) OF THE LAND TITLES ACT, EXCEPT PARAGRAPHS 11 & 14, PROVINCIAL SUCCESSION DUTIES AND ESCHEATS OR FORFEITURE TO THE CROWN UP TO THE DATE OF CONVERSION AND EXCEPTS PARAGRAPHS 3 AND 14 THEREAFTER.
18336	0013	SUBJECT TO SUBSECTION 44(1) OF THE LAND TITLES ACT, EXCEPT PARAGRAPHS 11 & 14, PROVINCIAL SUCCESSION DUTIES AND ESCHEATS OR FORFEITURE TO THE CROWN UP TO THE DATE OF CONVERSION AND EXCEPTS PARAGRAPHS 3 AND 14 THEREAFTER.
18336	0014	SUBJECT TO SUBSECTION 44(1) OF THE LAND TITLES ACT, EXCEPT PARAGRAPHS 11 & 14, PROVINCIAL SUCCESSION DUTIES AND ESCHEATS OR FORFEITURE TO THE CROWN UP TO THE DATE OF CONVERSION AND EXCEPTS PARAGRAPHS 3 AND 14 THEREAFTER.
18336	0015	SUBJECT TO SUBSECTION 44(1) OF THE LAND TITLES ACT, EXCEPT PARAGRAPHS 11 & 14, PROVINCIAL SUCCESSION DUTIES AND ESCHEATS OR FORFEITURE TO THE CROWN UP TO THE DATE OF CONVERSION AND EXCEPTS PARAGRAPHS 3 AND 14 THEREAFTER.
18336	0016	SUBJECT TO SUBSECTION 44(1) OF THE LAND TITLES ACT, EXCEPT PARAGRAPHS 11 & 14, PROVINCIAL SUCCESSION DUTIES AND ESCHEATS OR FORFEITURE TO THE CROWN UP TO THE DATE OF CONVERSION AND EXCEPTS PARAGRAPHS 3 AND 14 THEREAFTER.
18336	0017	SUBJECT TO SUBSECTION 44(1) OF THE LAND TITLES ACT, EXCEPT PARAGRAPHS 11 & 14, PROVINCIAL SUCCESSION DUTIES AND ESCHEATS OR FORFEITURE TO THE CROWN UP TO THE DATE OF CONVERSION AND EXCEPTS PARAGRAPHS 3 AND 14 THEREAFTER.
18336	0018	SUBJECT TO SUBSECTION 44(1) OF THE LAND TITLES ACT, EXCEPT PARAGRAPHS 11 & 14, PROVINCIAL SUCCESSION DUTIES AND ESCHEATS OR FORFEITURE TO THE CROWN UP TO THE DATE OF CONVERSION AND EXCEPTS PARAGRAPHS 3 AND 14 THEREAFTER.
18336	0019	SUBJECT TO SUBSECTION 44(1) OF THE LAND TITLES ACT, EXCEPT PARAGRAPHS 11 & 14, PROVINCIAL SUCCESSION DUTIES AND ESCHEATS OR FORFEITURE TO THE CROWN UP TO THE DATE OF CONVERSION AND EXCEPTS PARAGRAPHS 3 AND 14 THEREAFTER.
18336	0020	SUBJECT TO SUBSECTION 44(1) OF THE LAND TITLES ACT, EXCEPT PARAGRAPHS 11 & 14, PROVINCIAL SUCCESSION DUTIES AND ESCHEATS OR FORFEITURE TO THE CROWN UP TO THE DATE OF CONVERSION AND EXCEPTS PARAGRAPHS 3 AND 14 THEREAFTER.
18336	0021	SUBJECT TO SUBSECTION 44(1) OF THE LAND TITLES ACT, EXCEPT PARAGRAPHS 11 & 14, PROVINCIAL SUCCESSION DUTIES AND ESCHEATS OR FORFEITURE TO THE CROWN UP TO THE DATE OF CONVERSION AND EXCEPTS PARAGRAPHS 3 AND 14 THEREAFTER.
18336	0022	SUBJECT TO SUBSECTION 44(1) OF THE LAND TITLES ACT, EXCEPT PARAGRAPHS 11 & 14, PROVINCIAL SUCCESSION DUTIES AND ESCHEATS OR FORFEITURE TO THE CROWN UP TO THE DATE OF CONVERSION AND EXCEPTS PARAGRAPHS 3 AND 14 THEREAFTER.
18336	0023	SUBJECT TO SUBSECTION 44(1) OF THE LAND TITLES ACT, EXCEPT PARAGRAPHS 11 & 14, PROVINCIAL SUCCESSION DUTIES AND ESCHEATS OR FORFEITURE TO THE CROWN UP TO THE DATE OF CONVERSION AND EXCEPTS PARAGRAPHS 3 AND 14 THEREAFTER.
18336	0024	SUBJECT TO SUBSECTION 44(1) OF THE LAND TITLES ACT, EXCEPT PARAGRAPHS 11 & 14, PROVINCIAL SUCCESSION DUTIES AND ESCHEATS OR FORFEITURE TO THE CROWN UP TO THE DATE OF CONVERSION AND EXCEPTS PARAGRAPHS 3 AND 14 THEREAFTER.
18336	0025	SUBJECT TO SUBSECTION 44(1) OF THE LAND TITLES ACT, EXCEPT PARAGRAPHS 11 & 14, PROVINCIAL SUCCESSION DUTIES AND ESCHEATS OR FORFEITURE TO THE CROWN UP TO THE DATE OF CONVERSION AND EXCEPTS PARAGRAPHS 3 AND 14 THEREAFTER.
18336	0026	SUBJECT TO SUBSECTION 44(1) OF THE LAND TITLES ACT, EXCEPT PARAGRAPHS 11 & 14, PROVINCIAL SUCCESSION DUTIES AND ESCHEATS OR FORFEITURE TO THE CROWN UP TO THE DATE OF CONVERSION AND EXCEPTS PARAGRAPHS 3 AND 14 THEREAFTER.
18336	0027	SUBJECT TO SUBSECTION 44(1) OF THE LAND TITLES ACT, EXCEPT PARAGRAPHS 11 & 14, PROVINCIAL SUCCESSION DUTIES AND ESCHEATS OR FORFEITURE TO THE CROWN UP TO THE DATE OF CONVERSION AND EXCEPTS PARAGRAPHS 3 AND 14 THEREAFTER.
18336	0028	SUBJECT TO SUBSECTION 44(1) OF THE LAND TITLES ACT, EXCEPT PARAGRAPHS 11 & 14, PROVINCIAL SUCCESSION DUTIES AND ESCHEATS OR FORFEITURE TO THE CROWN UP TO THE DATE OF CONVERSION AND EXCEPTS PARAGRAPHS 3 AND 14 THEREAFTER.
18336	0029	SUBJECT TO SUBSECTION 44(1) OF THE LAND TITLES ACT, EXCEPT PARAGRAPHS 11 & 14, PROVINCIAL SUCCESSION DUTIES AND ESCHEATS OR FORFEITURE TO THE CROWN UP TO THE DATE OF CONVERSION AND EXCEPTS PARAGRAPHS 3 AND 14 THEREAFTER.
18336	0030	SUBJECT TO SUBSECTION 44(1) OF THE LAND TITLES ACT, EXCEPT PARAGRAPHS 11 & 14, PROVINCIAL SUCCESSION DUTIES AND ESCHEATS OR FORFEITURE TO THE CROWN UP TO THE DATE OF CONVERSION AND EXCEPTS PARAGRAPHS 3 AND 14 THEREAFTER.
18336	0031	SUBJECT TO SUBSECTION 44(1) OF THE LAND TITLES ACT, EXCEPT PARAGRAPHS 11 & 14, PROVINCIAL SUCCESSION DUTIES AND ESCHEATS OR FORFEITURE TO THE CROWN UP TO THE DATE OF CONVERSION AND EXCEPTS PARAGRAPHS 3 AND 14 THEREAFTER.
18336	0032	SUBJECT TO SUBSECTION 44(1) OF THE LAND TITLES ACT, EXCEPT PARAGRAPHS 11 & 14, PROVINCIAL SUCCESSION DUTIES AND ESCHEATS OR FORFEITURE TO THE CROWN UP TO THE DATE OF CONVERSION AND EXCEPTS PARAGRAPHS 3 AND 14 THEREAFTER.
18339	0009	CORRECTION: INSTRUMENT NUMBER WE76833 WAS OMITTED FROM THIS PROPERTY IN ERROR AND WAS ADDED AND CERTIFIED ON 2003/03/26 BY DORRIE MORLEY. CORRECTION: INSTRUMENT NUMBER WE76835 WAS OMITTED FROM THIS PROPERTY IN ERROR AND WAS ADDED AND CERTIFIED ON 2003/03/
18339	0010	CORRECTION: INSTRUMENT NUMBER WE76833 WAS OMITTED FROM THIS PROPERTY IN ERROR AND WAS ADDED AND CERTIFIED ON 2003/03/26 BY DORRIE MORLEY. CORRECTION: INSTRUMENT NUMBER WE76835 WAS OMITTED FROM THIS PROPERTY IN ERROR AND WAS ADDED AND CERTIFIED ON 2003/03/
18339	0011	CORRECTION: INSTRUMENT NUMBER WE76833 WAS OMITTED FROM THIS PROPERTY IN ERROR AND WAS ADDED AND CERTIFIED ON 2003/03/26 BY DORRIE MORLEY. CORRECTION: INSTRUMENT NUMBER WE76835 WAS OMITTED FROM THIS PROPERTY IN ERROR AND WAS ADDED AND CERTIFIED ON 2003/03/
18339	0012	CORRECTION: INSTRUMENT NUMBER WE76833 WAS OMITTED FROM THIS PROPERTY IN ERROR AND WAS ADDED AND CERTIFIED ON 2003/03/26 BY DORRIE MORLEY. CORRECTION: INSTRUMENT NUMBER WE76835 WAS OMITTED FROM THIS PROPERTY IN ERROR AND WAS ADDED AND CERTIFIED ON 2003/03/
18339	0013	CORRECTION: INSTRUMENT NUMBER WE76833 WAS OMITTED FROM THIS PROPERTY IN ERROR AND WAS ADDED AND CERTIFIED ON 2003/03/26 BY DORRIE MORLEY. CORRECTION: INSTRUMENT NUMBER WE76835 WAS OMITTED FROM THIS PROPERTY IN ERROR AND WAS ADDED AND CERTIFIED ON 2003/03/
18339	0014	CORRECTION: INSTRUMENT NUMBER WE76833 WAS OMITTED FROM THIS PROPERTY IN ERROR AND WAS ADDED AND CERTIFIED ON 2003/03/26 BY DORRIE MORLEY. CORRECTION: INSTRUMENT NUMBER WE76835 WAS OMITTED FROM THIS PROPERTY IN ERROR AND WAS ADDED AND CERTIFIED ON 2003/03/
18339	0016	CORRECTION: INSTRUMENT NUMBER WE76833 WAS OMITTED FROM THIS PROPERTY IN ERROR AND WAS ADDED AND CERTIFIED ON 2003/03/26 BY DORRIE MORLEY. CORRECTION: INSTRUMENT NUMBER WE76835 WAS OMITTED FROM THIS PROPERTY IN ERROR AND WAS ADDED AND CERTIFIED ON 2003/03/
18339	0017	CORRECTION: INSTRUMENT NUMBER WE76833 WAS OMITTED FROM THIS PROPERTY IN ERROR AND WAS ADDED AND CERTIFIED ON 2003/03/26 BY DORRIE MORLEY. CORRECTION: INSTRUMENT NUMBER WE76835 WAS OMITTED FROM THIS PROPERTY IN ERROR AND WAS ADDED AND CERTIFIED ON 2003/03/
18339	0018	CORRECTION: INSTRUMENT NUMBER WE76833 WAS OMITTED FROM THIS PROPERTY IN ERROR AND WAS ADDED AND CERTIFIED ON 2003/03/26 BY DORRIE MORLEY. CORRECTION: INSTRUMENT NUMBER WE76835 WAS OMITTED FROM THIS PROPERTY IN ERROR AND WAS ADDED AND CERTIFIED ON 2003/03/
18339	0019	CORRECTION: INSTRUMENT NUMBER WE76833 WAS OMITTED FROM THIS PROPERTY IN ERROR AND WAS ADDED AND CERTIFIED ON 2003/03/26 BY DORRIE MORLEY. CORRECTION: INSTRUMENT NUMBER WE76835 WAS OMITTED FROM THIS PROPERTY IN ERROR AND WAS ADDED AND CERTIFIED ON 2003/03/
18339	0020	CORRECTION: INSTRUMENT NUMBER WE76833 WAS OMITTED FROM THIS PROPERTY IN ERROR AND WAS ADDED AND CERTIFIED ON 2003/03/26 BY DORRIE MORLEY. CORRECTION: INSTRUMENT NUMBER WE76835 WAS OMITTED FROM THIS PROPERTY IN ERROR AND WAS ADDED AND CERTIFIED ON 2003/03/
18339	0021	CORRECTION: INSTRUMENT NUMBER WE76833 WAS OMITTED FROM THIS PROPERTY IN ERROR AND WAS ADDED AND CERTIFIED ON 2003/03/26 BY DORRIE MORLEY. CORRECTION: INSTRUMENT NUMBER WE76835 WAS OMITTED FROM THIS PROPERTY IN ERROR AND WAS ADDED AND CERTIFIED ON 2003/03/
18339	0022	CORRECTION: INSTRUMENT NUMBER WE76833 WAS OMITTED FROM THIS PROPERTY IN ERROR AND WAS ADDED AND CERTIFIED ON 2003/03/26 BY DORRIE MORLEY. CORRECTION: INSTRUMENT NUMBER WE76835 WAS OMITTED FROM THIS PROPERTY IN ERROR AND WAS ADDED AND CERTIFIED ON 2003/03/
18339	0023	CORRECTION: INSTRUMENT NUMBER WE76833 WAS OMITTED FROM THIS PROPERTY IN ERROR AND WAS ADDED AND CERTIFIED ON 2003/03/26 BY DORRIE MORLEY. CORRECTION: INSTRUMENT NUMBER WE76835 WAS OMITTED FROM THIS PROPERTY IN ERROR AND WAS ADDED AND CERTIFIED ON 2003/03/
18339	0024	CORRECTION: INSTRUMENT NUMBER WE76833 WAS OMITTED FROM THIS PROPERTY IN ERROR AND WAS ADDED AND CERTIFIED ON 2003/03/26 BY DORRIE MORLEY. CORRECTION: INSTRUMENT NUMBER WE76835 WAS OMITTED FROM THIS PROPERTY IN ERROR AND WAS ADDED AND CERTIFIED ON 2003/03/
18339	0025	CORRECTION: INSTRUMENT NUMBER WE76833 WAS OMITTED FROM THIS PROPERTY IN ERROR AND WAS ADDED AND CERTIFIED ON 2003/03/26 BY DORRIE MORLEY. CORRECTION: INSTRUMENT NUMBER WE76835 WAS OMITTED FROM THIS PROPERTY IN ERROR AND WAS ADDED AND CERTIFIED ON 2003/03/
18339	0026	CORRECTION: INSTRUMENT NUMBER WE76833 WAS OMITTED FROM THIS PROPERTY IN ERROR AND WAS ADDED AND CERTIFIED ON 2003/03/26 BY DORRIE MORLEY. CORRECTION: INSTRUMENT NUMBER WE76835 WAS OMITTED FROM THIS PROPERTY IN ERROR AND WAS ADDED AND CERTIFIED ON 2003/03/
18339	0027	CORRECTION: INSTRUMENT NUMBER WE76833 WAS OMITTED FROM THIS PROPERTY IN ERROR AND WAS ADDED AND CERTIFIED ON 2003/03/26 BY DORRIE MORLEY. CORRECTION: INSTRUMENT NUMBER WE76835 WAS OMITTED FROM THIS PROPERTY IN ERROR AND WAS ADDED AND CERTIFIED ON 2003/03/
18339	0029	CORRECTION: INSTRUMENT NUMBER WE76833 WAS OMITTED FROM THIS PROPERTY IN ERROR AND WAS ADDED AND CERTIFIED ON 2003/03/26 BY DORRIE MORLEY. CORRECTION: INSTRUMENT NUMBER WE76835 WAS OMITTED FROM THIS PROPERTY IN ERROR AND WAS ADDED AND CERTIFIED ON 2003/03/
18339	0030	CORRECTION: INSTRUMENT NUMBER WE76833 WAS OMITTED FROM THIS PROPERTY IN ERROR AND WAS ADDED AND CERTIFIED ON 2003/03/26 BY DORRIE MORLEY. CORRECTION: INSTRUMENT NUMBER WE76835 WAS OMITTED FROM THIS PROPERTY IN ERROR AND WAS ADDED AND CERTIFIED ON 2003/03/
18339	0031	CORRECTION: INSTRUMENT NUMBER WE76833 WAS OMITTED FROM THIS PROPERTY IN ERROR AND WAS ADDED AND CERTIFIED ON 2003/03/26 BY DORRIE MORLEY. CORRECTION: INSTRUMENT NUMBER WE76835 WAS OMITTED FROM THIS PROPERTY IN ERROR AND WAS ADDED AND CERTIFIED ON 2003/03/
18339	0032	CORRECTION: INSTRUMENT NUMBER WE76833 WAS OMITTED FROM THIS PROPERTY IN ERROR AND WAS ADDED AND CERTIFIED ON 2003/03/26 BY DORRIE MORLEY. CORRECTION: INSTRUMENT NUMBER WE76835 WAS OMITTED FROM THIS PROPERTY IN ERROR AND WAS ADDED AND CERTIFIED ON 2003/03/
18339	0033	CORRECTION: INSTRUMENT NUMBER WE76833 WAS OMITTED FROM THIS PROPERTY IN ERROR AND WAS ADDED AND CERTIFIED ON 2003/03/26 BY DORRIE MORLEY. CORRECTION: INSTRUMENT NUMBER WE76835 WAS OMITTED FROM THIS PROPERTY IN ERROR AND WAS ADDED AND CERTIFIED ON 2003/03/
18339	0034	CORRECTION: INSTRUMENT NUMBER WE76833 WAS OMITTED FROM THIS PROPERTY IN ERROR AND WAS ADDED AND CERTIFIED ON 2003/03/26 BY DORRIE MORLEY. CORRECTION: INSTRUMENT NUMBER WE76835 WAS OMITTED FROM THIS PROPERTY IN ERROR AND WAS ADDED AND CERTIFIED ON 2003/03/
18339	0035	CORRECTION: INSTRUMENT NUMBER WE76833 WAS OMITTED FROM THIS PROPERTY IN ERROR AND WAS ADDED AND CERTIFIED ON 2003/03/26 BY DORRIE MORLEY. CORRECTION: INSTRUMENT NUMBER WE76835 WAS OMITTED FROM THIS PROPERTY IN ERROR AND WAS ADDED AND CERTIFIED ON 2003/03/
18339	0036	CORRECTION: INSTRUMENT NUMBER WE76833 WAS OMITTED FROM THIS PROPERTY IN ERROR AND WAS ADDED AND CERTIFIED ON 2003/03/26 BY DORRIE MORLEY. CORRECTION: INSTRUMENT NUMBER WE76835 WAS OMITTED FROM THIS PROPERTY IN ERROR AND WAS ADDED AND CERTIFIED ON 2003/03/
18339	0037	CORRECTION: INSTRUMENT NUMBER WE76833 WAS OMITTED FROM THIS PROPERTY IN ERROR AND WAS ADDED AND CERTIFIED ON 2003/03/26 BY DORRIE MORLEY. CORRECTION: INSTRUMENT NUMBER WE76835 WAS OMITTED FROM THIS PROPERTY IN ERROR AND WAS ADDED AND CERTIFIED ON 2003/03/
18339	0038	CORRECTION: INSTRUMENT NUMBER WE76833 WAS OMITTED FROM THIS PROPERTY IN ERROR AND WAS ADDED AND CERTIFIED ON 2003/03/26 BY DORRIE MORLEY. CORRECTION: INSTRUMENT NUMBER WE76835 WAS OMITTED FROM THIS PROPERTY IN ERROR AND WAS ADDED AND CERTIFIED ON 2003/03/
18348	0022	CORRECTION: INSTRUMENT NUMBER WE120676 WAS OMITTED FROM THIS PROPERTY IN ERROR AND WAS ADDED AND CERTIFIED ON 2003/03/26 BY CHRISTINE HOARAN. CORRECTION: INSTRUMENT NUMBER WE120677 WAS OMITTED FROM THIS PROPERTY IN ERROR AND WAS ADDED AND CERTIFIED ON 200
18348	0023	CORRECTION: INSTRUMENT NUMBER WE120676 WAS OMITTED FROM THIS PROPERTY IN ERROR AND WAS ADDED AND CERTIFIED ON 2003/03/26 BY CHRISTINE HOARAN. CORRECTION: INSTRUMENT NUMBER WE120677 WAS OMITTED FROM THIS PROPERTY IN ERROR AND WAS ADDED AND CERTIFIED ON 200
18348	0024	CORRECTION: INSTRUMENT NUMBER WE120676 WAS OMITTED FROM THIS PROPERTY IN ERROR AND WAS ADDED AND CERTIFIED ON 2003/03/26 BY CHRISTINE HOARAN. CORRECTION: INSTRUMENT NUMBER WE120677 WAS OMITTED FROM THIS PROPERTY IN ERROR AND WAS ADDED AND CERTIFIED ON 200
18348	0025	CORRECTION: INSTRUMENT NUMBER WE120676 WAS OMITTED FROM THIS PROPERTY IN ERROR AND WAS ADDED AND CERTIFIED ON 2003/03/26 BY CHRISTINE HOARAN. CORRECTION: INSTRUMENT NUMBER WE120677 WAS OMITTED FROM THIS PROPERTY IN ERROR AND WAS ADDED AND CERTIFIED ON 200
18348	0026	CORRECTION: INSTRUMENT NUMBER WE120676 WAS OMITTED FROM THIS PROPERTY IN ERROR AND WAS ADDED AND CERTIFIED ON 2003/03/26 BY CHRISTINE HOARAN. CORRECTION: INSTRUMENT NUMBER WE120677 WAS OMITTED FROM THIS PROPERTY IN ERROR AND WAS ADDED AND CERTIFIED ON 200
18348	0027	CORRECTION: INSTRUMENT NUMBER WE120676 WAS OMITTED FROM THIS PROPERTY IN ERROR AND WAS ADDED AND CERTIFIED ON 2003/03/26 BY CHRISTINE HOARAN. CORRECTION: INSTRUMENT NUMBER WE120677 WAS OMITTED FROM THIS PROPERTY IN ERROR AND WAS ADDED AND CERTIFIED ON 200
18348	0028	CORRECTION: INSTRUMENT NUMBER WE120676 WAS OMITTED FROM THIS PROPERTY IN ERROR AND WAS ADDED AND CERTIFIED ON 2003/03/26 BY CHRISTINE HOARAN. CORRECTION: INSTRUMENT NUMBER WE120677 WAS OMITTED FROM THIS PROPERTY IN ERROR AND WAS ADDED AND CERTIFIED ON 200
18348	0029	CORRECTION: INSTRUMENT NUMBER WE120676 WAS OMITTED FROM THIS PROPERTY IN ERROR AND WAS ADDED AND CERTIFIED ON 2003/03/26 BY CHRISTINE HOARAN. CORRECTION: INSTRUMENT NUMBER WE120677 WAS OMITTED FROM THIS PROPERTY IN ERROR AND WAS ADDED AND CERTIFIED ON 200
18348	0030	CORRECTION: INSTRUMENT NUMBER WE120676 WAS OMITTED FROM THIS PROPERTY IN ERROR AND WAS ADDED AND CERTIFIED ON 2003/03/26 BY CHRISTINE HOARAN. CORRECTION: INSTRUMENT NUMBER WE120677 WAS OMITTED FROM THIS PROPERTY IN ERROR AND WAS ADDED AND CERTIFIED ON 200
18348	0031	CORRECTION: INSTRUMENT NUMBER WE120676 WAS OMITTED FROM THIS PROPERTY IN ERROR AND WAS ADDED AND CERTIFIED ON 2003/03/26 BY CHRISTINE HOARAN. CORRECTION: INSTRUMENT NUMBER WE120677 WAS OMITTED FROM THIS PROPERTY IN ERROR AND WAS ADDED AND CERTIFIED ON 200
18348	0032	CORRECTION: INSTRUMENT NUMBER WE120676 WAS OMITTED FROM THIS PROPERTY IN ERROR AND WAS ADDED AND CERTIFIED ON 2003/03/26 BY CHRISTINE HOARAN. CORRECTION: INSTRUMENT NUMBER WE120677 WAS OMITTED FROM THIS PROPERTY IN ERROR AND WAS ADDED AND CERTIFIED ON 200
18348	0033	CORRECTION: INSTRUMENT NUMBER WE120676 WAS OMITTED FROM THIS PROPERTY IN ERROR AND WAS ADDED AND CERTIFIED ON 2003/03/26 BY CHRISTINE HOARAN. CORRECTION: INSTRUMENT NUMBER WE120677 WAS OMITTED FROM THIS PROPERTY IN ERROR AND WAS ADDED AND CERTIFIED ON 200
18348	0034	CORRECTION: INSTRUMENT NUMBER WE120676 WAS OMITTED FROM THIS PROPERTY IN ERROR AND WAS ADDED AND CERTIFIED ON 2003/03/26 BY CHRISTINE HOARAN. CORRECTION: INSTRUMENT NUMBER WE120677 WAS OMITTED FROM THIS PROPERTY IN ERROR AND WAS ADDED AND CERTIFIED ON 200
18348	0035	CORRECTION: INSTRUMENT NUMBER WE120676 WAS OMITTED FROM THIS PROPERTY IN ERROR AND WAS ADDED AND CERTIFIED ON 2003/03/26 BY CHRISTINE HOARAN. CORRECTION: INSTRUMENT NUMBER WE120677 WAS OMITTED FROM THIS PROPERTY IN ERROR AND WAS ADDED AND CERTIFIED ON 200
18348	0036	CORRECTION: INSTRUMENT NUMBER WE120676 WAS OMITTED FROM THIS PROPERTY IN ERROR AND WAS ADDED AND CERTIFIED ON 2003/03/26 BY CHRISTINE HOARAN. CORRECTION: INSTRUMENT NUMBER WE120677 WAS OMITTED FROM THIS PROPERTY IN ERROR AND WAS ADDED AND CERTIFIED ON 200
18348	0037	CORRECTION: INSTRUMENT NUMBER WE120676 WAS OMITTED FROM THIS PROPERTY IN ERROR AND WAS ADDED AND CERTIFIED ON 2003/03/26 BY CHRISTINE HOARAN. CORRECTION: INSTRUMENT NUMBER WE120677 WAS OMITTED FROM THIS PROPERTY IN ERROR AND WAS ADDED AND CERTIFIED ON 200
18348	0039	CORRECTION: INSTRUMENT NUMBER WE118091 WAS OMITTED FROM THIS PROPERTY IN ERROR AND WAS ADDED AND CERTIFIED ON 2003/03/26 BY CHRISTINE HOARAN. CORRECTION: INSTRUMENT NUMBER WCP348 WAS OMITTED FROM THIS PROPERTY IN ERROR AND WAS ADDED AND CERTIFIED ON 2003/
18348	0040	CORRECTION: INSTRUMENT NUMBER WE118091 WAS OMITTED FROM THIS PROPERTY IN ERROR AND WAS ADDED AND CERTIFIED ON 2003/03/26 BY CHRISTINE HOARAN. CORRECTION: INSTRUMENT NUMBER WCP348 WAS OMITTED FROM THIS PROPERTY IN ERROR AND WAS ADDED AND CERTIFIED ON 2003/
18348	0041	CORRECTION: INSTRUMENT NUMBER WE118091 WAS OMITTED FROM THIS PROPERTY IN ERROR AND WAS ADDED AND CERTIFIED ON 2003/03/26 BY CHRISTINE HOARAN. CORRECTION: INSTRUMENT NUMBER WCP348 WAS OMITTED FROM THIS PROPERTY IN ERROR AND WAS ADDED AND CERTIFIED ON 2003/
18348	0042	CORRECTION: INSTRUMENT NUMBER WE118091 WAS OMITTED FROM THIS PROPERTY IN ERROR AND WAS ADDED AND CERTIFIED ON 2003/03/26 BY CHRISTINE HOARAN. CORRECTION: INSTRUMENT NUMBER WCP348 WAS OMITTED FROM THIS PROPERTY IN ERROR AND WAS ADDED AND CERTIFIED ON 2003/
18348	0043	CORRECTION: INSTRUMENT NUMBER WE118091 WAS OMITTED FROM THIS PROPERTY IN ERROR AND WAS ADDED AND CERTIFIED ON 2003/03/26 BY CHRISTINE HOARAN. CORRECTION: INSTRUMENT NUMBER WCP348 WAS OMITTED FROM THIS PROPERTY IN ERROR AND WAS ADDED AND CERTIFIED ON 2003/
18351	0018	SUBJECT TO SUBSECTION 44(1) OF THE LAND TITLES ACT, EXCEPT PARAGRAPH 11, PARAGRAPH 14, PROVINCIAL SUCCESSION DUTIES AND ESCHEATS OR FORFEITURE TO THE CROWN, UP TO THE DATE OF CONVERSION, AND EXCEPT PARAGRAPH 3 AND 14 THEREAFTER.
18351	0036	SUBJECT TO SUBSECTION 44(1) OF THE LAND TITLES ACT, EXCEPT PARAGRAPH 11, PARAGRAPH 14, PROVINCIAL SUCCESSION DUTIES AND ESCHEATS OR FORFEITURE TO THE CROWN, UP TO THE DATE OF CONVERSION, AND EXCEPT PARAGRAPH 3 AND 14 THEREAFTER.
18353	0001	SUBJECT TO SUBSECTION 44(1) OF THE LAND TITLES ACT, EXCEPT PARAGRAPHS 3 AND 14 AND PROVINCIAL SUCCESSION DUTIES AND EXCEPT PARAGRAPH 11 AND ESCHEATS OR FORFEITURE TO THE CROWN UP TO THE DATE OF REGISTRATION WITH AN ABSOLUTE TITLE.
18353	0002	SUBJECT TO SUBSECTION 44(1) OF THE LAND TITLES ACT, EXCEPT PARAGRAPHS 3 AND 14 AND PROVINCIAL SUCCESSION DUTIES AND EXCEPT PARAGRAPH 11 AND ESCHEATS OR FORFEITURE TO THE CROWN UP TO THE DATE OF REGISTRATION WITH AN ABSOLUTE TITLE.
18353	0003	SUBJECT TO SUBSECTION 44(1) OF THE LAND TITLES ACT, EXCEPT PARAGRAPHS 3 AND 14 AND PROVINCIAL SUCCESSION DUTIES AND EXCEPT PARAGRAPH 11 AND ESCHEATS OR FORFEITURE TO THE CROWN UP TO THE DATE OF REGISTRATION WITH AN ABSOLUTE TITLE.
18353	0004	SUBJECT TO SUBSECTION 44(1) OF THE LAND TITLES ACT, EXCEPT PARAGRAPHS 3 AND 14 AND PROVINCIAL SUCCESSION DUTIES AND EXCEPT PARAGRAPH 11 AND ESCHEATS OR FORFEITURE TO THE CROWN UP TO THE DATE OF REGISTRATION WITH AN ABSOLUTE TITLE.
18353	0005	SUBJECT TO SUBSECTION 44(1) OF THE LAND TITLES ACT, EXCEPT PARAGRAPHS 3 AND 14 AND PROVINCIAL SUCCESSION DUTIES AND EXCEPT PARAGRAPH 11 AND ESCHEATS OR FORFEITURE TO THE CROWN UP TO THE DATE OF REGISTRATION WITH AN ABSOLUTE TITLE.
18353	0006	SUBJECT TO SUBSECTION 44(1) OF THE LAND TITLES ACT, EXCEPT PARAGRAPHS 3 AND 14 AND PROVINCIAL SUCCESSION DUTIES AND EXCEPT PARAGRAPH 11 AND ESCHEATS OR FORFEITURE TO THE CROWN UP TO THE DATE OF REGISTRATION WITH AN ABSOLUTE TITLE.
18354	0005	SUBJECT TO SUBSECTION 44(1) OF THE LAND TITLES ACT, EXCEPT PARAGRAPHS 3 AND 14 AND PROVINCIAL SUCCESSION DUTIES AND EXCEPT PARAGRAPH 11 AND ESCHEATS OR FORFEITURE TO THE CROWN UP TO THE DATE OF REGISTRATION WITH AN ABSOLUTE TITLE.
18357	0001	SUBJECT TO SUBSECTION 44(1) OF THE LAND TITLES ACT, EXCEPT PARAGRAPHS 3 AND 14 THEREOF AND PROVINCIAL SUCCESSION DUTIES AND EXCEPT PARAGRAPH 11 AND ESCHEATS OR FORFEITURE TO THE CROWN UP TO THE DATE OF REGISTRATION WITH AN ABSOLUTE TITLE.
18357	0002	SUBJECT TO SUBSECTION 44(1) OF THE LAND TITLES ACT, EXCEPT PARAGRAPHS 3 AND 14 THEREOF AND PROVINCIAL SUCCESSION DUTIES AND EXCEPT PARAGRAPH 11 AND ESCHEATS OR FORFEITURE TO THE CROWN UP TO THE DATE OF REGISTRATION WITH AN ABSOLUTE TITLE.
18357	0003	SUBJECT TO SUBSECTION 44(1) OF THE LAND TITLES ACT, EXCEPT PARAGRAPHS 3 AND 14 THEREOF AND PROVINCIAL SUCCESSION DUTIES AND EXCEPT PARAGRAPH 11 AND ESCHEATS OR FORFEITURE TO THE CROWN UP TO THE DATE OF REGISTRATION WITH AN ABSOLUTE TITLE.
18357	0004	SUBJECT TO SUBSECTION 44(1) OF THE LAND TITLES ACT, EXCEPT PARAGRAPHS 3 AND 14 THEREOF AND PROVINCIAL SUCCESSION DUTIES AND EXCEPT PARAGRAPH 11 AND ESCHEATS OR FORFEITURE TO THE CROWN UP TO THE DATE OF REGISTRATION WITH AN ABSOLUTE TITLE.
18357	0005	SUBJECT TO SUBSECTION 44(1) OF THE LAND TITLES ACT, EXCEPT PARAGRAPHS 3 AND 14 THEREOF AND PROVINCIAL SUCCESSION DUTIES AND EXCEPT PARAGRAPH 11 AND ESCHEATS OR FORFEITURE TO THE CROWN UP TO THE DATE OF REGISTRATION WITH AN ABSOLUTE TITLE.
18357	0006	SUBJECT TO SUBSECTION 44(1) OF THE LAND TITLES ACT, EXCEPT PARAGRAPHS 3 AND 14 THEREOF AND PROVINCIAL SUCCESSION DUTIES AND EXCEPT PARAGRAPH 11 AND ESCHEATS OR FORFEITURE TO THE CROWN UP TO THE DATE OF REGISTRATION WITH AN ABSOLUTE TITLE.
18357	0007	SUBJECT TO SUBSECTION 44(1) OF THE LAND TITLES ACT, EXCEPT PARAGRAPHS 3 AND 14 THEREOF AND PROVINCIAL SUCCESSION DUTIES AND EXCEPT PARAGRAPH 11 AND ESCHEATS OR FORFEITURE TO THE CROWN UP TO THE DATE OF REGISTRATION WITH AN ABSOLUTE TITLE.
18357	0008	SUBJECT TO SUBSECTION 44(1) OF THE LAND TITLES ACT, EXCEPT PARAGRAPHS 3 AND 14 THEREOF AND PROVINCIAL SUCCESSION DUTIES AND EXCEPT PARAGRAPH 11 AND ESCHEATS OR FORFEITURE TO THE CROWN UP TO THE DATE OF REGISTRATION WITH AN ABSOLUTE TITLE.
18357	0009	SUBJECT TO SUBSECTION 44(1) OF THE LAND TITLES ACT, EXCEPT PARAGRAPHS 3 AND 14 THEREOF AND PROVINCIAL SUCCESSION DUTIES AND EXCEPT PARAGRAPH 11 AND ESCHEATS OR FORFEITURE TO THE CROWN UP TO THE DATE OF REGISTRATION WITH AN ABSOLUTE TITLE.
18357	0010	SUBJECT TO SUBSECTION 44(1) OF THE LAND TITLES ACT, EXCEPT PARAGRAPHS 3 AND 14 THEREOF AND PROVINCIAL SUCCESSION DUTIES AND EXCEPT PARAGRAPH 11 AND ESCHEATS OR FORFEITURE TO THE CROWN UP TO THE DATE OF REGISTRATION WITH AN ABSOLUTE TITLE.
18357	0011	SUBJECT TO SUBSECTION 44(1) OF THE LAND TITLES ACT, EXCEPT PARAGRAPHS 3 AND 14 THEREOF AND PROVINCIAL SUCCESSION DUTIES AND EXCEPT PARAGRAPH 11 AND ESCHEATS OR FORFEITURE TO THE CROWN UP TO THE DATE OF REGISTRATION WITH AN ABSOLUTE TITLE.
18357	0012	SUBJECT TO SUBSECTION 44(1) OF THE LAND TITLES ACT, EXCEPT PARAGRAPHS 3 AND 14 THEREOF AND PROVINCIAL SUCCESSION DUTIES AND EXCEPT PARAGRAPH 11 AND ESCHEATS OR FORFEITURE TO THE CROWN UP TO THE DATE OF REGISTRATION WITH AN ABSOLUTE TITLE.
18357	0013	SUBJECT TO SUBSECTION 44(1) OF THE LAND TITLES ACT, EXCEPT PARAGRAPHS 3 AND 14 THEREOF AND PROVINCIAL SUCCESSION DUTIES AND EXCEPT PARAGRAPH 11 AND ESCHEATS OR FORFEITURE TO THE CROWN UP TO THE DATE OF REGISTRATION WITH AN ABSOLUTE TITLE.
18357	0014	SUBJECT TO SUBSECTION 44(1) OF THE LAND TITLES ACT, EXCEPT PARAGRAPHS 3 AND 14 THEREOF AND PROVINCIAL SUCCESSION DUTIES AND EXCEPT PARAGRAPH 11 AND ESCHEATS OR FORFEITURE TO THE CROWN UP TO THE DATE OF REGISTRATION WITH AN ABSOLUTE TITLE.
18357	0015	SUBJECT TO SUBSECTION 44(1) OF THE LAND TITLES ACT, EXCEPT PARAGRAPHS 3 AND 14 THEREOF AND PROVINCIAL SUCCESSION DUTIES AND EXCEPT PARAGRAPH 11 AND ESCHEATS OR FORFEITURE TO THE CROWN UP TO THE DATE OF REGISTRATION WITH AN ABSOLUTE TITLE.
18360	0002	SUBJECT TO SUBSECTION 44(1) OF THE LAND TITLES ACT, EXCEPT PARAGRAPHS 3 AND 14 AND PROVINCIAL SUCCESSION DUTIES AND EXCEPT PARAGRAPH 11 AND ESCHEATS OR FORFEITURE TO THE CROWN UP TO THE DATE OF REGISTRATION WITH AN ABSOLUTE TITLE.
18361	0001	SUBJECT TO SUBSECTION 44 (1) OF THE LAND TITLES ACT, EXCEPT PARAGRAPHS 3 AND 14 THEREOF AND PROVINCIAL SUCCESSION DUTIES AND EXCEPT PARAGRAPH 11 AND ESCHEATS OR FORFEITURE TO THE CROWN UP TO THE DATE OF REGISTRATION WITH AN ABSOLUTE TITLE.
18361	0002	SUBJECT TO SUBSECTION 44 (1) OF THE LAND TITLES ACT, EXCEPT PARAGRAPHS 3 AND 14 THEREOF AND PROVINCIAL SUCCESSION DUTIES AND EXCEPT PARAGRAPH 11 AND ESCHEATS OR FORFEITURE TO THE CROWN UP TO THE DATE OF REGISTRATION WITH AN ABSOLUTE TITLE.
18361	0003	SUBJECT TO SUBSECTION 44 (1) OF THE LAND TITLES ACT, EXCEPT PARAGRAPHS 3 AND 14 THEREOF AND PROVINCIAL SUCCESSION DUTIES AND EXCEPT PARAGRAPH 11 AND ESCHEATS OR FORFEITURE TO THE CROWN UP TO THE DATE OF REGISTRATION WITH AN ABSOLUTE TITLE.
18361	0004	SUBJECT TO SUBSECTION 44 (1) OF THE LAND TITLES ACT, EXCEPT PARAGRAPHS 3 & 14 THEREOF AND PROVINCIAL SUCCESSION DUTIES AND EXCEPT PARAGRAPH 11 AND ESCHEATS OR FORFEITURE TO THE CROWN UP TO THE DATE OF REGISTRATION WITH AN ABSOLUTE TITLE.
18361	0005	SUBJECT TO SUBSECTION 44 ( 1) OF THE LAND TITLES ACT, EXCEPT PARAGRAPHS 3 AND 14 THEREOF AND PROVINCIAL SUCCESSION DUTIES AND EXCEPTPARAGRAPH 11 AND ESCHEATS OR FORFEITURE TO THE DROWN UP TO THE DATE OF REGISTRATION WITH AN ABSOLUTE TITLE.
18361	0006	SUBJECT TO SUBSECTION 44 (1) OF THE LAND TITLES ACT, EXCEPT PARAGRAPHS 3 AND 14 THEREOF AND PROVINCIAL SUCCESSION DUTIES AND EXCEPT PARAGRAPH 11 AND ESCHEATS OR FORFEITURE TO THE CROWN UP TO THE DATE OF REGISTRATION WITH AN ABSOLUTE TITLE.
18361	0007	SUBJECT TO SUBSECTION 44 (1) OF THE LAND TITLES ACT, EXCEPT PARAGRAPHS 3 AND 14 THEREOF AND PROVINCIAL SUCCESSION DUTIES AND EXCEPT PARAGRAPH 11 AND ESCHEATS OR FORFEITURE TO THE CROWN UP TO THE DATE OF REEGISTATION WITH AN ABSOLUTE TITLE.
18361	0008	SUBJECT TO SUBSECTION 44 ( 1) OF THE LAND TITLES ACT, EXCEPT PARAGRAPHS 3 AND 14 THEREOF AND PROVINCIAL SUCCESSION DUTIES AND EXCEPT PARAGRAPH 11 AND ESCHEATS OR FORFEITURE TO THE CROWN UP TO THE DATE OF REGISTRATION WITH AN ABSOLUTE TITLE.
18361	0009	SUBJECT TO SUBSECTION 44 ( 1) OF THE LAND TITLES ACT, EXCEPT PARAGRAPHS 3 AND 14 THEREOF AND PROVINCIAL SUCCESSION DUTIES AND ECEPT PARAGRAPH 11 AND ESCHEATS OR FORFEITURE TO THE CROWN UP TO THE DATE OF REGISTRATION WITH AN ABSOLUTE TITLE.
18361	0010	SUBJECT TO SUBSECTION 44 (1) OF THE LAND TITLES ACT, EXCEPT PARAGRAPHS 3 AND 14 THEREOF AND PROVINCIAL SUCCESSION DUTIES AND EXCEPT PARAGRAPH 11 AND ESCHEATS OR FORFEITURE TO THE CROWN UP TO THE DATE OF REGISTRATION WITH AN ABSOLUTE TITLE.
18361	0011	SUBJECT TO SUBSECTION 44 ( 1) OF THE LAND TITLES ACT, EXCEPT PARAGRAPHS 3 AND 14 THEREOF AND PROVINCIAL SUCCESSION DUTIES AND EXCEPT PARAGRAPH 11 AND ESCHEATS OR FORFEITURE TO THE CROWN UP TO THE DATE OF REGISTRATION WITH AN ABSOLUTE TITLE.
18361	0012	SUBJECT TO SUBSECTION 44 (1) OF THE LAND TITLES ACT, EXCEPT PARAGRAPHS 3 AND 14 THEREOF AND PROVINCIAL SUCCESSION DUTIES AND EXCEPT PARAGRAPH 11 AND ESCHEATS OR FORFEITURE TO THE CROWN UP TO THE DATE OF REGISTRATION WITH AN ABSOLUTE TITLE.
18361	0013	SUBJECT TO SUBSECTION 44 ( 1) OF THE LAND TITLES ACT, EXCEPT PARAGRAPHS 3 AND 14 THEREOF AND PROVINCIAL SUCCESSION DUTIES AND EXCEPT PARAGRAPH 11 AND ESCHEATS OR FORFEITURE TO THE CROWN UP TO THE DATE OF REGISTRATION WITH AN ABSOLUTE TITLE.
18361	0014	SUBJECT TO SUBSECTION 44 ( 1) OF THE LAND TITLES ACT, EXCEPT PARAGRAPHS 3 AND 14 THEREOF AND PROVINCIAL SUCCESSION DUTIES AND EXCEPT PARAGRAPH 11 AND ESCHEATS OR FORFEITURE TO THE CROWN UP TO THE DATE OF REGISTRATION WITH AN ABSOLUTE TITLE.
18361	0015	SUBJECT TO SUBSECTION 44(1) OF THE LAND TITLES ACT, EXCEPT PARAGRAPHS 3 AND 14 THEREOF AND PROVINCIAL SUCCESSION DUTIES AND EXCEPT PARAGRAPH 11 AND ESCHEATS OR FORFEITURE TO THE CROWN UP TO THE DATE OF REGISTRATION WITH AN ABSOLUTE TITLE.
18361	0016	SUBJECT TO SUBSECTION 44(1) OF THE LAND TITLES ACT, EXCEPT PARAGRAPHS 3 AND 14 THEREOF AND PROVINCIAL SUCCESSION DUTIES AND EXCEPT PARAGRAPH 11 AND ESCHEATS OR FORFEITURE TO THE CROWN UP TO THE DATE OF REGISTRATION WITH AN ABSOLUTE TITLE.
18361	0017	SUBJECT TO SUBSECTION 44(1) OF THE LAND TITLES ACT, EXCEPT PARAGRAPHS 3 AND 14 THEREOF AND PROVINCIAL SUCCESSION DUTIES AND EXCEPT PARAGRAPH 11 AND ESCHEATS OR FORFEITURE TO THE CROWN UP TO THE DATE OF REGISTRATION WITH AN ABSOLUTE TITLE.
18361	0018	SUBJECT TO SUBSECTION 44(1) OF THE LAND TITLES ACT, EXCEPT PARAGRAPHS 3 AND 14 THEREOF AND PROVINCIAL SUCCESSION DUTIES AND EXCEPT PARAGRAPH 11 AND ESCHEATS OR FORFEITURE TO THE CROWN UP TO THE DATE OF REGISTRATION WITH AN ABSOLUTE TITLE.
18361	0019	SUBJECT TO SUBSECTION 44(1) OF THE LAND TITLES ACT, EXCEPT PARAGRAPHS 3 AND 14 THEREOF AND PROVINCIAL SUCCESSION DUTIES AND EXCEPT PARAGRAPH 11 AND ESCHEATS OR FORFEITURE TO THE CROWN UP TO THE DATE OF REGISTRATION WITH AN ABSOLUTE TITLE.
18361	0020	SUBJECT TO SUBSECTION 44(1) OF THE LAND TITLES ACT, EXCEPT PARAGRAPHS 3 AND 14 THEREOF AND PROVINCIAL SUCCESSION DUTIES AND EXCEPT PARAGRAPH 11 AND ESCHEATS OR FORFEITURE TO THE CROWN UP TO THE DATE OF REGISTRAION WITH AN ABSOLUTE TITLE.
18361	0021	SUBJECT TO SUBSECTION 44(1) OF THE LAND TITLES ACT, EXCEPT PARAGRAPHS 3 AND 14 THEREOF AND PROVINCIAL SUCCESSION DUTIES AND EXCEPT PARAGRAPH 11 AND ESCHEATS OR FORFEITURE TO THE CROWN UP TO THE DATE OF REGISTRATION WITH AN ABSOLUTE TITLE.
18361	0022	SUBJECT TO SUBSECTION 44(1) OF THE LAND TITLES ACT, EXCEPT PARAGRAPHS 3 AND 14 THEREOF AND PROVINCIAL SUCCESSION DUTIES AND EXCEPT PARAGRAPH 11 AN ESCHEATS OR FORFEITURE TO THE CROWN UP TO THE DATE OF REGISTRATION WITH AN ABSOLUTE TITLE.
18361	0023	SUBJECT TO SUBSECTION 44(1) OF THE LAND TITLES ACT, EXCEPT PARAGRAPHS 3 AND 14 THEREOF AND PROVINCIAL SUCCESSION DUTIES AND EXCEPT PARAGRAPH 11 AND ESCHEATS OF FORFEITURE TO THE CROWN UP TO THE DATE OF REGISTRATION WITH AN ABSOLUTE TITLE.
18361	0024	SUBJECT TO SUBSECTION 44(1) OF THE LAND TITLES ACT, EXCEPT PARAGRAPHS 3 AND 14 THEREOF AND PROVINCIAL SUCCESSION DUTIES AND EXCEPT PARAGRAPH 11 AND ESCHEATS OR FORFEITURE TO THE CROWN UP TO THE DATE OF REGISTRATION WITH AN ABSOLUTE TITLE.
18361	0025	SUBJECT TO SUBSECTION 44(1) OF THE LAND TITLES ACT, EXCEPT PARAGRAPHS 3 AND 14 THEREOF AND PROVINCIAL SUCCESSION DUTIES AND EXCEPT PARAGRAPH 11 AND ESCHEAT OR FORFEITURE TO THE CROWN UP TO THE DATE OF REGISTRATION WITH AN ABSOLUTE TITLE.
18361	0026	SUBJECT TO SUBSECTION 44(1) OF THE LAND TITLES ACT, EXCEPT PARAGRAPHS 3 AND 14 THEREOF AND PROVINCIAL SUCCESSION DUTIES AND EXCEPT PARAGRAPH 11 AND ESCHEATS OR FORFEITURE TO THE CROWN UP TO THE DATE OF REGISTRATION WITH AN ABSOLUTE TITLE.
18361	0027	SUBJECT TO SUBSECTION 44(1) OF THE LAND TITLES ACT, EXCEPT PARAGRAPHS 3 AND 14 THEREOF AND PROVINCIAL SUCCESSION DUTIES AND EXCEPT PARAGRAPH 11 AND ESCHEATS OR FORFEITURE TO THE CROWN UP TO THE DATE OF REGISTRATION WITH AN ABSOLUTE TITLE.
18361	0028	SUBJECT TO SUBSECTION 44(1) OF THE LAND TITLES ACT, EXCEPT PARAGRAPHS 3 AND 14 THEREOF AND PROVINCIAL SUCCESSION DUTIES AND EXCEPT PARAGRAPH 11 AND ESCHEATS OR FORFEITURE TO THE CROWN UP TO THE DATE OF REGISTRATION WITH AN ABSOLUTE TITLE.
18361	0029	SUBJECT TO SUBSECTION 44(1) OF THE LAND TITLES ACT, EXCEPT PARAGRAPHS 3 AND 14 THEREOF AND PROVINCIAL SUCCESSION DUTIES AND EXCEPT PARAGRAPH 11 AND ESCHEATS OR FORFEITURE TO THE CROWN UP TO THE DATE OF REGISTRATION WITH AN ABSOLUTE TITLE.
18361	0030	SUBJECT TO SUBSECTION 44(1) OF THE LAND TITLES ACT, EXCEPT PARAGRAPHS 3 AND 14 THEREOF AND PROVINCIAL SUCCESSION DUTIES AND EXCEPT PARAGRAPH 11 AND ESCHEATS OR FORFEITURE TO THE CROWN UP TO THE DATE OF REGISTRATION WITH AN ABSOLUTE TITLE.
18361	0031	SUBJECT TO SUBSECTION 44(1) OF THE LAND TITLES ACT, EXCEPT PARAGRAPHS 3 AND 14 THEREOF AND PROVINCIAL SUCCESSION DUTIES AND EXCEPT PARAGRAPH 11 AND ESCHEATS OR FORFEITURE TO THE CROWN UP TO THE DATE OF REGISTRATION WITH AN ABSOLUTE TITLE.
18361	0032	SUBJECT TO SUBSECTION 44(1) OF THE LAND TITLES ACT, EXCEPT PARAGRAPHS 3 AND 14 THEREOF AND PROVINCIAL SUCCESSION DUTIES AND EXCEPT PARAGRAPH 11 AND ESCHEATS OR FORFEITURE TO THE CROWN UP TO THE DATE OF REGISTRATION WITH AN ABSOLUTE TITLE.
18361	0033	SUBJECT TO SUBSECTION 44(1) OF THE LAND TITLES ACT, EXCEPT PARAGRAPHS 3 AND 14 THEREOF AND PROVINCIAL SUCCESSION DUTIES AND EXCEPT PARAGRAPH 11 AND ESCHEATS OR FORFEITURE TO THE CROWN UP TO THE DATE OF REGISTRATION WITH AN ABSOLUTE TITLE.
18361	0034	SUBJECT TO SUBSECTION 44(1) OF THE LAND TITLES ACT, EXCEPT PARAGRAPHS 3 AND 14 THEREOF AND PROVINCIAL SUCCESSION DUTIES AND EXCEPT PARAGRAPH 11 AND ESCHEATS OR FORFEITURE TO THE CROWN UP TO THE DATE OF REGISTRATION WITH AN ABSOLUTE TITLE.
18361	0035	SUBJECT TO SUBSECTION 44(1) OF THE LAND TITLES ACT, EXCEPT PARAGRAPHS 3 AND 14 THEREOF AND PROVINCIAL SUCCESSION DUTIES AND EXCEPT PARAGRAPH 11 AND ESCHEATS OR FORFEITURE TO THE CROWN UP TO THE DATE OF REGISTRATION WITH AN ABSOLUTE TITLE.
18361	0036	SUBJECT TO SUBSECTION 44(1) OF THE LAND TITLES ACT, EXCEPT PARAGRAPHS 3 AND 14 THEREOF AND PROVINCIAL SUCCESSION DUTIES AND EXCEPT PARAGRAPH 11 AND ESCHEATS OR FORFEITURE TO THE CROWN UP TO THE DATE OF REGISTRATION WITH AN ABSOLUTE TITLE.
18361	0037	SUBJECT TO SUBSECTION 44 (1) OF THE LAND TITLES ACT, EXCEPT PARAGRAPHS 3 AND 14 THEREOF AND PROVINCIAL SUCCESSION DUTIES AND EXCEPT PARAGRAPH 11 AND ESCHEATS OR FORFEITURE TO THE CROWN UP TO THE DATE OF REGISTRATION WITH AN ABSOLUTE TITLE.
18361	0038	SUBJECT TO SUBSECTION 44(1) OF THE LAND TITLES ACT, EXCEPT PARAGRAPHS 3 AND 14 THEREOF AND PROVINCIAL SUCCESSION DUTIES AND EXCEPT PARAGRAPH 11 AND ESCHEATS OR FORFEITURE TO THE CROWN UP TO THE DATE OF REGISTRATION WITH AN ABSOLUTE TITLE.
18361	0039	SUBJECT TO SUBSECTION 44(1) OF THE LAND TITLES ACT, EXCEPT PARAGRAPHS 3 AND 14 THEREOF AND PROVINCIAL SUCCESSION DUTIES AND EXCEPT PARAGRAPH 11 AND ESCHEATS OR FORFEITURE TO THE CROWN UP TO THE DATE OF REGISTRATION WITH AN ABSOLUTE TITLE.
18361	0040	SUBJECT TO SUBSECTION 44(1) OF THE LAND TITLES ACT, EXCEPT PARAGRAPHS 3 AND 14 THEREOF AND PROVINCIAL SUCCESSION DUTIES AND EXCEPT PARAGRAPH 11 AND ESCHEATS OR FORFEITURE TO THE CROWN UP TO THE DATE OF REGISTRATION WITH AN ABSOLUTE TITLE.
18361	0041	SUBJECT TO SUBSECTION 44(1) OF THE LAND TITLES ACT, EXCEPT PARAGRAPHS 3 AND 14 THEREOF AND PROVINCIAL SUCCESSION DUTIES AND EXCEPT PARAGRAPH 11 AND ESCHEATS OR FORFEITURE TO THE CROWN UP TO THE DATE OF REGISTRATION WITH AN ABSOLUTE TITLE.
18361	0042	SUBJECT TO SUBSECTION 44(1) OF THE LAND TITLES ACT, EXCEPT PARAGRAPHS 3 AND 14 THEREOF AND PROVINCIAL SUCCESSION DUTIES AND EXCEPT PARAGRAPH 22 AND ESCHEATS OR FORFEITURE TO THE CROWN UP TO THE DATE OF REGISTRATION WITH AN ABSOLUTE TITLE.
18361	0043	SUBJECT TO SUBSECTION 44(1) OF THE LAND TITLES ACT, EXCEPT PARAGRAPHS 3 AND 14 THEREOF AND PROVINCIAL SUCCESSION DUTIES AND EXCEPT PARAGRAPH 11 AND ESCHEATS OR FORFEITURE TO THE CROWN UP TO THE DATE OF REGISTRATION WITH AN ABSOLUTE TITLE.
18362	0001	SUBJECT TO SUBSECTION 44(1) OF THE LAND TITLES ACT, EXCEPT PARAGRAPHS 3 AND 14 AND PROVINCIAL SUCCESSION DUTIES AND EXCEPT PARAGRAPH 11 AND ESCHEATS OR FORFEITURE TO THE CROWN UP TO THE DATE OF REGISTRATION WITH AN ABSOLUTE TITLE.
18362	0002	SUBJECT TO SUBSECTION 44(1) OF THE LAND TITLES ACT, EXCEPT PARAGRAPHS 3 AND 14 AND PROVINCIAL SUCCESSION DUTIES AND EXCEPT PARAGRAPH 11 AND ESCHEATS OR FORFEITURE TO THE CROWN UP TO THE DATE OF REGISTRATION WITH AN ABSOLUTE TITLE.
18362	0003	SUBJECT TO SUBSECTION 44(1) OF THE LAND TITLES ACT, EXCEPT PARAGRAPHS 3 AND 14 AND PROVINCIAL SUCCESSION DUTIES AND EXCEPT PARAGRAPH 11 AND ESCHEATS OR FORFEITURE TO THE CROWN UP TO THE DATE OF REGISTRATION WITH AN ABSOLUTE TITLE.
18362	0004	SUBJECT TO SUBSECTION 44(1) OF THE LAND TITLES ACT, EXCEPT PARAGRAPHS 3 AND 14 AND PROVINCIAL SUCCESSION DUTIES AND EXCEPT PARAGRAPH 11 AND ESCHEATS OR FORFEITURE TO THE CROWN UP TO THE DATE OF REGISTRATION WITH AN ABSOLUTE TITLE.
18362	0005	SUBJECT TO SUBSECTION 44(1) OF THE LAND TITLES ACT, EXCEPT PARAGRAPHS 3 AND 14 AND PROVINCIAL SUCCESSION DUTIES AND EXCEPT PARAGRAPH 11 AND ESCHEATS OR FORFEITURE TO THE CROWN UP TO THE DATE OF REGISTRATION WITH AN ABSOLUTE TITLE.
18362	0006	SUBJECT TO SUBSECTION 44(1) OF THE LAND TITLES ACT, EXCEPT PARAGRAPHS 3 AND 14 AND PROVINCIAL SUCCESSION DUTIES AND EXCEPT PARAGRAPH 11 AND ESCHEATS OR FORFEITURE TO THE CROWN UP TO THE DATE OF REGISTRATION WITH AN ABSOLUTE TITLE.
18362	0007	SUBJECT TO SUBSECTION 44(1) OF THE LAND TITLES ACT, EXCEPT PARAGRAPHS 3 AND 14 AND PROVINCIAL SUCCESSION DUTIES AND EXCEPT PARAGRAPH 11 AND ESCHEATS OR FORFEITURE TO THE CROWN UP TO THE DATE OF REGISTRATION WITH AN ABSOLUTE TITLE.
18362	0008	SUBJECT TO SUBSECTION 44(1) OF THE LAND TITLES ACT, EXCEPT PARAGRAPHS 3 AND 14 AND PROVINCIAL SUCCESSION DUTIES AND EXCEPT PARAGRAPH 11 AND ESCHEATS OR FORFEITURE TO THE CROWN UP TO THE DATE OF REGISTRATION WITH AN ABSOLUTE TITLE.
18362	0009	SUBJECT TO SUBSECTION 44(1) OF THE LAND TITLES ACT, EXCEPT PARAGRAPHS 3 AND 14 AND PROVINCIAL SUCCESSION DUTIES AND EXCEPT PARAGRAPH 11 AND ESCHEATS OR FORFEITURE TO THE CROWN UP TO THE DATE OF REGISTRATION WITH AN ABSOLUTE TITLE.
18362	0010	SUBJECT TO SUBSECTION 44(1) OF THE LAND TITLES ACT, EXCEPT PARAGRAPHS 3 AND 14 AND PROVINCIAL SUCCESSION DUTIES AND EXCEPT PARAGRAPH 11 AND ESCHEATS OR FORFEITURE TO THE CROWN UP TO THE DATE OF REGISTRATION WITH AN ABSOLUTE TITLE.
18362	0011	SUBJECT TO SUBSECTION 44(1) OF THE LAND TITLES ACT, EXCEPT PARAGRAPHS 3 AND 14 AND PROVINCIAL SUCCESSION DUTIES AND EXCEPT PARAGRAPH 11 AND ESCHEATS OR FORFEITURE TO THE CROWN UP TO THE DATE OF REGISTRATION WITH AN ABSOLUTE TITLE.
18362	0012	SUBJECT TO SUBSECTION 44(1) OF THE LAND TITLES ACT, EXCEPT PARAGRAPHS 3 AND 14 AND PROVINCIAL SUCCESSION DUTIES AND EXCEPT PARAGRAPH 11 AND ESCHEATS OR FORFEITURE TO THE CROWN UP TO THE DATE OF REGISTRATION WITH AN ABSOLUTE TITLE.
18363	0001	SUBJECT ON THE DATE OF REGISTRATION 99/09/03 TO SUBSECTION 44(1) OF THE LAND TITLES ACT, EXCEPT PARAGRAPHS 3 AND 14 AND PROVINCIAL SUCCESSIONDUTIES.
18363	0002	SUBJECT ON THE DATE OF REGISTRATION 99/09/03 TO SUBSECTION 44(1) OF THE LAND TITLES ACT, EXCEPT PARAGRAPHS 3 AND 14 AND PROVINCIAL SUCCESSIONDUTIES.
18363	0003	SUBJECT ON THE DATE OF REGISTRATION 99/09/03 TO SUBSECTION 44(1) OF THE LAND TITLES ACT, EXCEPT PARAGRAPHS 3 AND 14 AND PROVINCIAL SUCCESSIONDUTIES.
18363	0004	SUBJECT ON THE DATE OF REGISTRATION 99/09/03 TO SUBSECTION 44(1) OF THE LAND TITLES ACT, EXCEPT PARAGRAPHS 3 AND 14 AND PROVINCIAL SUCCESSIONDUTIES.
18363	0005	SUBJECT ON THE DATE OF REGISTRATION 99/09/03 TO SUBSECTION 44(1) OF THE LAND TITLES ACT, EXCEPT PARAGRAPHS 3 AND 14 AND PROVINCIAL SUCCESSIONDUTIES.
18363	0006	SUBJECT ON THE DATE OF REGISTRATION 99/09/03 TO SUBSECTION 44(1) OF THE LAND TITLES ACT, EXCEPT PARAGRAPHS 3 AND 14 AND PROVINCIAL SUCCESSIONDUTIES.
18363	0007	SUBJECT ON THE DATE OF REGISTRATION 99/09/03 TO SUBSECTION 44(1) OF THE LAND TITLES ACT, EXCEPT PARAGRAPHS 3 AND 14 AND PROVINCIAL SUCCESSIONDUTIES.
18363	0008	SUBJECT ON THE DATE OF REGISTRATION 99/09/03 TO SUBSECTION 44(1) OF THE LAND TITLES ACT, EXCEPT PARAGRAPHS 3 AND 14 AND PROVINCIAL SUCCESSIONDUTIES.
18363	0009	SUBJECT ON THE DATE OF REGISTRATION 99/09/03 TO SUBSECTION 44(1) OF THE LAND TITLES ACT, EXCEPT PARAGRAPHS 3 AND 14 AND PROVINCIAL SUCCESSIONDUTIES.
18363	0010	SUBJECT ON THE DATE OF REGISTRATION 99/09/03 TO SUBSECTION 44(1) OF THE LAND TITLES ACT, EXCEPT PARAGRAPHS 3 AND 14 AND PROVINCIAL SUCCESSIONDUTIES.
18363	0011	SUBJECT ON THE DATE OF REGISTRATION 99/09/03 TO SUBSECTION 44(1) OF THE LAND TITLES ACT, EXCEPT PARAGRAPHS 3 AND 14 AND PROVINCIAL SUCCESSIONDUTIES.
18363	0012	SUBJECT ON THE DATE OF REGISTRATION 99/09/03 TO SUBSECTION 44(1) OF THE LAND TITLES ACT, EXCEPT PARAGRAPHS 3 AND 14 AND PROVINCIAL SUCCESSIONDUTIES.
18363	0013	SUBJECT ON THE DATE OF REGISTRATION 99/09/03 TO SUBSECTION 44(1) OF THE LAND TITLES ACT, EXCEPT PARAGRAPHS 3 AND 14 AND PROVINCIAL SUCCESSIONDUTIES.
18363	0014	SUBJECT ON THE DATE OF REGISTRATION 99/09/03 TO SUBSECTION 44(1) OF THE LAND TITLES ACT, EXCEPT PARAGRAPHS 3 AND 14 AND PROVINCIAL SUCCESSIONDUTIES.
18363	0015	SUBJECT ON THE DATE OF REGISTRATION 99/09/03 TO SUBSECTION 44(1) OF THE LAND TITLES ACT, EXCEPT PARAGRAPHS 3 AND 14 AND PROVINCIAL SUCCESSIONDUTIES.
18363	0016	SUBJECT ON THE DATE OF REGISTRATION 99/09/03 TO SUBSECTION 44(1) OF THE LAND TITLES ACT, EXCEPT PARAGRAPHS 3 AND 14 AND PROVINCIAL SUCCESSIONDUTIES.
18363	0017	SUBJECT ON THE DATE OF REGISTRATION 99/09/03 TO SUBSECTION 44(1) OF THE LAND TITLES ACT, EXCEPT PARAGRAPHS 3 AND 14 AND PROVINCIAL SUCCESSIONDUTIES.
18363	0018	SUBJECT ON THE DATE OF REGISTRATION 99/09/03 TO SUBSECTION 44(1) OF THE LAND TITLES ACT, EXCEPT PARAGRAPHS 3 AND 14 AND PROVINCIAL SUCCESSIONDUTIES.
18363	0019	SUBJECT ON THE DATE OF REGISTRATION 99/09/03 TO SUBSECTION 44(1) OF THE LAND TITLES ACT, EXCEPT PARAGRAPHS 3 AND 14 AND PROVINCIAL SUCCESSIONDUTIES.
18363	0020	SUBJECT ON THE DATE OF REGISTRATION 99/09/03 TO SUBSECTION 44(1) OF THE LAND TITLES ACT, EXCEPT PARAGRAPHS 3 AND 14 AND PROVINCIAL SUCCESSIONDUTIES.
18363	0021	SUBJECT ON THE DATE OF REGISTRATION 99/09/03 TO SUBSECTION 44(1) OF THE LAND TITLES ACT, EXCEPT PARAGRAPHS 3 AND 14 AND PROVINCIAL SUCCESSIONDUTIES.
18363	0022	SUBJECT ON THE DATE OF REGISTRATION 99/09/03 TO SUBSECTION 44(1) OF THE LAND TITLES ACT, EXCEPT PARAGRAPHS 3 AND 14 AND PROVINCIAL SUCCESSIONDUTIES.
18363	0023	SUBJECT ON THE DATE OF REGISTRATION 99/09/03 TO SUBSECTION 44(1) OF THE LAND TITLES ACT, EXCEPT PARAGRAPHS 3 AND 14 AND PROVINCIAL SUCCESSIONDUTIES.
18363	0024	SUBJECT ON THE DATE OF REGISTRATION 99/09/03 TO SUBSECTION 44(1) OF THE LAND TITLES ACT, EXCEPT PARAGRAPHS 3 AND 14 AND PROVINCIAL SUCCESSIONDUTIES.
18363	0025	SUBJECT ON THE DATE OF REGISTRATION 99/09/03 TO SUBSECTION 44(1) OF THE LAND TITLES ACT, EXCEPT PARAGRAPHS 3 AND 14 AND PROVINCIAL SUCCESSIONDUTIES.
18363	0026	SUBJECT ON THE DATE OF REGISTRATION 99/09/03 TO SUBSECTION 44(1) OF THE LAND TITLES ACT, EXCEPT PARAGRAPHS 3 AND 14 AND PROVINCIAL SUCCESSIONDUTIES.
18363	0027	SUBJECT ON THE DATE OF REGISTRATION 99/09/03 TO SUBSECTION 44(1) OF THE LAND TITLES ACT, EXCEPT PARAGRAPHS 3 AND 14 AND PROVINCIAL SUCCESSIONDUTIES.
18363	0028	SUBJECT ON THE DATE OF REGISTRATION 99/09/03 TO SUBSECTION 44(1) OF THE LAND TITLES ACT, EXCEPT PARAGRAPHS 3 AND 14 AND PROVINCIAL SUCCESSIONDUTIES.
18363	0029	SUBJECT ON THE DATE OF REGISTRATION 99/09/03 TO SUBSECTION 44(1) OF THE LAND TITLES ACT, EXCEPT PARAGRAPHS 3 AND 14 AND PROVINCIAL SUCCESSIONDUTIES.
18363	0030	SUBJECT ON THE DATE OF REGISTRATION 99/09/03 TO SUBSECTION 44(1) OF THE LAND TITLES ACT, EXCEPT PARAGRAPHS 3 AND 14 AND PROVINCIAL SUCCESSIONDUTIES.
18363	0031	SUBJECT ON THE DATE OF REGISTRATION 99/09/03 TO SUBSECTION 44(1) OF THE LAND TITLES ACT, EXCEPT PARAGRAPHS 3 AND 14 AND PROVINCIAL SUCCESSIONDUTIES.
18363	0032	SUBJECT ON THE DATE OF REGISTRATION 99/09/03 TO SUBSECTION 44(1) OF THE LAND TITLES ACT, EXCEPT PARAGRAPHS 3 AND 14 AND PROVINCIAL SUCCESSIONDUTIES.
18363	0033	SUBJECT ON THE DATE OF REGISTRATION 99/09/03 TO SUBSECTION 44(1) OF THE LAND TITLES ACT, EXCEPT PARAGRAPHS 3 AND 14 AND PROVINCIAL SUCCESSIONDUTIES.
18363	0034	SUBJECT ON THE DATE OF REGISTRATION 99/09/03 TO SUBSECTION 44(1) OF THE LAND TITLES ACT, EXCEPT PARAGRAPHS 3 AND 14 AND PROVINCIAL SUCCESSIONDUTIES.
18363	0035	SUBJECT ON THE DATE OF REGISTRATION 99/09/03 TO SUBSECTION 44(1) OF THE LAND TITLES ACT, EXCEPT PARAGRAPHS 3 AND 14 AND PROVINCIAL SUCCESSIONDUTIES.
18363	0036	SUBJECT ON THE DATE OF REGISTRATION 99/09/03 TO SUBSECTION 44(1) OF THE LAND TITLES ACT, EXCEPT PARAGRAPHS 3 AND 14 AND PROVINCIAL SUCCESSIONDUTIES. CORRECTION: INSTRUMENT NUMBER WE171128 WAS OMITTED FROM THIS PROPERTY IN ERROR AND WAS ADDED AND CERTIFIED
18363	0037	SUBJECT ON THE DATE OF REGISTRATION 99/09/03 TO SUBSECTION 44(1) OF THE LAND TITLES ACT, EXCEPT PARAGRAPHS 3 AND 14 AND PROVINCIAL SUCCESSIONDUTIES.
18363	0038	SUBJECT ON THE DATE OF REGISTRATION 99/09/03 TO SUBSECTION 44(1) OF THE LAND TITLES ACT, EXCEPT PARAGRAPHS 3 AND 14 AND PROVINCIAL SUCCESSIONDUTIES.
18363	0039	SUBJECT ON THE DATE OF REGISTRATION 99/09/03 TO SUBSECTION 44(1) OF THE LAND TITLES ACT, EXCEPT PARAGRAPHS 3 AND 14 AND PROVINCIAL SUCCESSIONDUTIES.
18365	0001	CORRECTION: INSTRUMENT NUMBER WE216497 WAS OMITTED FROM THIS PROPERTY IN ERROR AND WAS ADDED AND CERTIFIED ON 2004/02/19 BY DORRIE MORLEY. CORRECTION: INSTRUMENT NUMBER LT605133 WAS ENTERED IN ERROR AGAINST THIS PROPERTY AND WAS REMOVED AND CERTIFIED ON 2
18365	0002	CORRECTION: INSTRUMENT NUMBER WE216497 WAS OMITTED FROM THIS PROPERTY IN ERROR AND WAS ADDED AND CERTIFIED ON 2004/02/19 BY DORRIE MORLEY. CORRECTION: INSTRUMENT NUMBER LT605133 WAS ENTERED IN ERROR AGAINST THIS PROPERTY AND WAS REMOVED AND CERTIFIED ON 2
18365	0003	CORRECTION: INSTRUMENT NUMBER WE216497 WAS OMITTED FROM THIS PROPERTY IN ERROR AND WAS ADDED AND CERTIFIED ON 2004/02/19 BY DORRIE MORLEY. CORRECTION: INSTRUMENT NUMBER LT605133 WAS ENTERED IN ERROR AGAINST THIS PROPERTY AND WAS REMOVED AND CERTIFIED ON 2
18365	0004	CORRECTION: INSTRUMENT NUMBER WE216497 WAS OMITTED FROM THIS PROPERTY IN ERROR AND WAS ADDED AND CERTIFIED ON 2004/02/19 BY DORRIE MORLEY. CORRECTION: INSTRUMENT NUMBER LT605133 WAS ENTERED IN ERROR AGAINST THIS PROPERTY AND WAS REMOVED AND CERTIFIED ON 2
18365	0005	CORRECTION: INSTRUMENT NUMBER WE216497 WAS OMITTED FROM THIS PROPERTY IN ERROR AND WAS ADDED AND CERTIFIED ON 2004/02/19 BY DORRIE MORLEY. CORRECTION: INSTRUMENT NUMBER LT605133 WAS ENTERED IN ERROR AGAINST THIS PROPERTY AND WAS REMOVED AND CERTIFIED ON 2
18365	0006	CORRECTION: INSTRUMENT NUMBER WE216497 WAS OMITTED FROM THIS PROPERTY IN ERROR AND WAS ADDED AND CERTIFIED ON 2004/02/19 BY DORRIE MORLEY. CORRECTION: INSTRUMENT NUMBER LT605133 WAS ENTERED IN ERROR AGAINST THIS PROPERTY AND WAS REMOVED AND CERTIFIED ON 2
18365	0007	CORRECTION: INSTRUMENT NUMBER WE216497 WAS OMITTED FROM THIS PROPERTY IN ERROR AND WAS ADDED AND CERTIFIED ON 2004/02/19 BY DORRIE MORLEY. CORRECTION: INSTRUMENT NUMBER LT605133 WAS ENTERED IN ERROR AGAINST THIS PROPERTY AND WAS REMOVED AND CERTIFIED ON 2
18365	0008	CORRECTION: INSTRUMENT NUMBER WE216497 WAS OMITTED FROM THIS PROPERTY IN ERROR AND WAS ADDED AND CERTIFIED ON 2004/02/19 BY DORRIE MORLEY. CORRECTION: INSTRUMENT NUMBER LT605133 WAS ENTERED IN ERROR AGAINST THIS PROPERTY AND WAS REMOVED AND CERTIFIED ON 2
18365	0009	CORRECTION: INSTRUMENT NUMBER WE216497 WAS OMITTED FROM THIS PROPERTY IN ERROR AND WAS ADDED AND CERTIFIED ON 2004/02/19 BY DORRIE MORLEY. CORRECTION: INSTRUMENT NUMBER LT605133 WAS ENTERED IN ERROR AGAINST THIS PROPERTY AND WAS REMOVED AND CERTIFIED ON 2
18365	0010	CORRECTION: INSTRUMENT NUMBER WE216497 WAS OMITTED FROM THIS PROPERTY IN ERROR AND WAS ADDED AND CERTIFIED ON 2004/02/19 BY DORRIE MORLEY. CORRECTION: INSTRUMENT NUMBER LT605133 WAS ENTERED IN ERROR AGAINST THIS PROPERTY AND WAS REMOVED AND CERTIFIED ON 2
18365	0012	CORRECTION: INSTRUMENT NUMBER LT605133 WAS ENTERED IN ERROR AGAINST THIS PROPERTY AND WAS REMOVED AND CERTIFIED ON 2005/07/12 BY CRISSY DELDUCA.
18365	0013	CORRECTION: INSTRUMENT NUMBER LT605133 WAS ENTERED IN ERROR AGAINST THIS PROPERTY AND WAS REMOVED AND CERTIFIED ON 2005/07/12 BY CRISSY DELDUCA.
18365	0014	CORRECTION: INSTRUMENT NUMBER LT605133 WAS ENTERED IN ERROR AGAINST THIS PROPERTY AND WAS REMOVED AND CERTIFIED ON 2005/07/12 BY CRISSY DELDUCA.
18365	0015	CORRECTION: INSTRUMENT NUMBER LT605133 WAS ENTERED IN ERROR AGAINST THIS PROPERTY AND WAS REMOVED AND CERTIFIED ON 2005/07/12 BY CRISSY DELDUCA.
18365	0016	CORRECTION: INSTRUMENT NUMBER LT605133 WAS ENTERED IN ERROR AGAINST THIS PROPERTY AND WAS REMOVED AND CERTIFIED ON 2005/07/12 BY CRISSY DELDUCA.
18365	0017	CORRECTION: INSTRUMENT NUMBER LT605133 WAS ENTERED IN ERROR AGAINST THIS PROPERTY AND WAS REMOVED AND CERTIFIED ON 2005/07/12 BY CRISSY DELDUCA.
18365	0018	CORRECTION: INSTRUMENT NUMBER LT605133 WAS ENTERED IN ERROR AGAINST THIS PROPERTY AND WAS REMOVED AND CERTIFIED ON 2005/07/12 BY CRISSY DELDUCA.
18365	0019	CORRECTION: INSTRUMENT NUMBER LT605133 WAS ENTERED IN ERROR AGAINST THIS PROPERTY AND WAS REMOVED AND CERTIFIED ON 2005/07/12 BY CRISSY DELDUCA.
18365	0020	CORRECTION: INSTRUMENT NUMBER LT605133 WAS ENTERED IN ERROR AGAINST THIS PROPERTY AND WAS REMOVED AND CERTIFIED ON 2005/07/12 BY CRISSY DELDUCA.
18365	0021	CORRECTION: INSTRUMENT NUMBER LT605133 WAS ENTERED IN ERROR AGAINST THIS PROPERTY AND WAS REMOVED AND CERTIFIED ON 2005/07/12 BY CRISSY DELDUCA.
18365	0022	CORRECTION: INSTRUMENT NUMBER LT605133 WAS ENTERED IN ERROR AGAINST THIS PROPERTY AND WAS REMOVED AND CERTIFIED ON 2005/07/12 BY CRISSY DELDUCA.
18365	0023	CORRECTION: INSTRUMENT NUMBER LT605133 WAS ENTERED IN ERROR AGAINST THIS PROPERTY AND WAS REMOVED AND CERTIFIED ON 2005/07/12 BY CRISSY DELDUCA.
18365	0024	CORRECTION: INSTRUMENT NUMBER LT605133 WAS ENTERED IN ERROR AGAINST THIS PROPERTY AND WAS REMOVED AND CERTIFIED ON 2005/07/12 BY CRISSY DELDUCA.
18365	0025	CORRECTION: INSTRUMENT NUMBER LT605133 WAS ENTERED IN ERROR AGAINST THIS PROPERTY AND WAS REMOVED AND CERTIFIED ON 2005/07/12 BY CRISSY DELDUCA.
18365	0026	CORRECTION: INSTRUMENT NUMBER LT605133 WAS ENTERED IN ERROR AGAINST THIS PROPERTY AND WAS REMOVED AND CERTIFIED ON 2005/07/12 BY CRISSY DELDUCA.
18365	0027	CORRECTION: INSTRUMENT NUMBER LT605133 WAS ENTERED IN ERROR AGAINST THIS PROPERTY AND WAS REMOVED AND CERTIFIED ON 2005/07/12 BY CRISSY DELDUCA.
18365	0028	CORRECTION: INSTRUMENT NUMBER LT605133 WAS ENTERED IN ERROR AGAINST THIS PROPERTY AND WAS REMOVED AND CERTIFIED ON 2005/07/12 BY CRISSY DELDUCA.
18365	0029	CORRECTION: INSTRUMENT NUMBER LT605133 WAS ENTERED IN ERROR AGAINST THIS PROPERTY AND WAS REMOVED AND CERTIFIED ON 2005/07/12 BY CRISSY DELDUCA.
18365	0030	CORRECTION: INSTRUMENT NUMBER LT605133 WAS ENTERED IN ERROR AGAINST THIS PROPERTY AND WAS REMOVED AND CERTIFIED ON 2005/07/12 BY CRISSY DELDUCA.
18365	0031	CORRECTION: INSTRUMENT NUMBER LT605133 WAS ENTERED IN ERROR AGAINST THIS PROPERTY AND WAS REMOVED AND CERTIFIED ON 2005/07/12 BY CRISSY DELDUCA.
18365	0032	CORRECTION: INSTRUMENT NUMBER LT605133 WAS ENTERED IN ERROR AGAINST THIS PROPERTY AND WAS REMOVED AND CERTIFIED ON 2005/07/12 BY CRISSY DELDUCA.
18365	0033	CORRECTION: INSTRUMENT NUMBER LT605133 WAS ENTERED IN ERROR AGAINST THIS PROPERTY AND WAS REMOVED AND CERTIFIED ON 2005/07/12 BY CRISSY DELDUCA.
18365	0034	CORRECTION: INSTRUMENT NUMBER LT605133 WAS ENTERED IN ERROR AGAINST THIS PROPERTY AND WAS REMOVED AND CERTIFIED ON 2005/07/12 BY CRISSY DELDUCA.
18365	0035	CORRECTION: INSTRUMENT NUMBER LT605133 WAS ENTERED IN ERROR AGAINST THIS PROPERTY AND WAS REMOVED AND CERTIFIED ON 2005/07/12 BY CRISSY DELDUCA.
18365	0036	CORRECTION: INSTRUMENT NUMBER LT605133 WAS ENTERED IN ERROR AGAINST THIS PROPERTY AND WAS REMOVED AND CERTIFIED ON 2005/07/12 BY CRISSY DELDUCA.
18365	0037	CORRECTION: INSTRUMENT NUMBER LT605133 WAS ENTERED IN ERROR AGAINST THIS PROPERTY AND WAS REMOVED AND CERTIFIED ON 2005/07/12 BY CRISSY DELDUCA.
18365	0038	CORRECTION: INSTRUMENT NUMBER LT605133 WAS ENTERED IN ERROR AGAINST THIS PROPERTY AND WAS REMOVED AND CERTIFIED ON 2005/07/12 BY CRISSY DELDUCA.
18365	0039	CORRECTION: INSTRUMENT NUMBER LT605133 WAS ENTERED IN ERROR AGAINST THIS PROPERTY AND WAS REMOVED AND CERTIFIED ON 2005/07/12 BY CRISSY DELDUCA.
18365	0040	CORRECTION: INSTRUMENT NUMBER LT605133 WAS ENTERED IN ERROR AGAINST THIS PROPERTY AND WAS REMOVED AND CERTIFIED ON 2005/07/12 BY CRISSY DELDUCA.
18365	0041	CORRECTION: INSTRUMENT NUMBER LT605133 WAS ENTERED IN ERROR AGAINST THIS PROPERTY AND WAS REMOVED AND CERTIFIED ON 2005/07/12 BY CRISSY DELDUCA.
18365	0042	CORRECTION: INSTRUMENT NUMBER LT605133 WAS ENTERED IN ERROR AGAINST THIS PROPERTY AND WAS REMOVED AND CERTIFIED ON 2005/07/12 BY CRISSY DELDUCA.
18365	0043	CORRECTION: INSTRUMENT NUMBER LT605133 WAS ENTERED IN ERROR AGAINST THIS PROPERTY AND WAS REMOVED AND CERTIFIED ON 2005/07/12 BY CRISSY DELDUCA.
18365	0044	CORRECTION: INSTRUMENT NUMBER LT605133 WAS ENTERED IN ERROR AGAINST THIS PROPERTY AND WAS REMOVED AND CERTIFIED ON 2005/07/12 BY CRISSY DELDUCA.
18365	0045	CORRECTION: INSTRUMENT NUMBER LT605133 WAS ENTERED IN ERROR AGAINST THIS PROPERTY AND WAS REMOVED AND CERTIFIED ON 2005/07/12 BY CRISSY DELDUCA.
18365	0046	CORRECTION: INSTRUMENT NUMBER LT605133 WAS ENTERED IN ERROR AGAINST THIS PROPERTY AND WAS REMOVED AND CERTIFIED ON 2005/07/12 BY CRISSY DELDUCA.
18365	0047	CORRECTION: INSTRUMENT NUMBER LT605133 WAS ENTERED IN ERROR AGAINST THIS PROPERTY AND WAS REMOVED AND CERTIFIED ON 2005/07/12 BY CRISSY DELDUCA.
18365	0048	CORRECTION: INSTRUMENT NUMBER LT605133 WAS ENTERED IN ERROR AGAINST THIS PROPERTY AND WAS REMOVED AND CERTIFIED ON 2005/07/12 BY CRISSY DELDUCA.
18365	0049	CORRECTION: INSTRUMENT NUMBER LT605133 WAS ENTERED IN ERROR AGAINST THIS PROPERTY AND WAS REMOVED AND CERTIFIED ON 2005/07/12 BY CRISSY DELDUCA.
18365	0050	CORRECTION: INSTRUMENT NUMBER LT605133 WAS ENTERED IN ERROR AGAINST THIS PROPERTY AND WAS REMOVED AND CERTIFIED ON 2005/07/12 BY CRISSY DELDUCA.
18365	0051	CORRECTION: INSTRUMENT NUMBER LT605133 WAS ENTERED IN ERROR AGAINST THIS PROPERTY AND WAS REMOVED AND CERTIFIED ON 2005/07/12 BY CRISSY DELDUCA.
18365	0052	CORRECTION: INSTRUMENT NUMBER LT605133 WAS ENTERED IN ERROR AGAINST THIS PROPERTY AND WAS REMOVED AND CERTIFIED ON 2005/07/12 BY CRISSY DELDUCA.
18365	0053	CORRECTION: INSTRUMENT NUMBER LT605133 WAS ENTERED IN ERROR AGAINST THIS PROPERTY AND WAS REMOVED AND CERTIFIED ON 2005/07/12 BY CRISSY DELDUCA.
18365	0054	CORRECTION: INSTRUMENT NUMBER LT605133 WAS ENTERED IN ERROR AGAINST THIS PROPERTY AND WAS REMOVED AND CERTIFIED ON 2005/07/12 BY CRISSY DELDUCA.
18365	0055	CORRECTION: INSTRUMENT NUMBER LT605133 WAS ENTERED IN ERROR AGAINST THIS PROPERTY AND WAS REMOVED AND CERTIFIED ON 2005/07/12 BY CRISSY DELDUCA.
18365	0056	CORRECTION: INSTRUMENT NUMBER LT605133 WAS ENTERED IN ERROR AGAINST THIS PROPERTY AND WAS REMOVED AND CERTIFIED ON 2005/07/12 BY CRISSY DELDUCA.
18365	0057	CORRECTION: INSTRUMENT NUMBER LT605133 WAS ENTERED IN ERROR AGAINST THIS PROPERTY AND WAS REMOVED AND CERTIFIED ON 2005/07/12 BY CRISSY DELDUCA.
18365	0058	CORRECTION: INSTRUMENT NUMBER LT605133 WAS ENTERED IN ERROR AGAINST THIS PROPERTY AND WAS REMOVED AND CERTIFIED ON 2005/07/12 BY CRISSY DELDUCA.
18365	0059	CORRECTION: INSTRUMENT NUMBER LT605133 WAS ENTERED IN ERROR AGAINST THIS PROPERTY AND WAS REMOVED AND CERTIFIED ON 2005/07/12 BY CRISSY DELDUCA.
18365	0060	CORRECTION: INSTRUMENT NUMBER LT605133 WAS ENTERED IN ERROR AGAINST THIS PROPERTY AND WAS REMOVED AND CERTIFIED ON 2005/07/12 BY CRISSY DELDUCA.
18365	0061	CORRECTION: INSTRUMENT NUMBER LT605133 WAS ENTERED IN ERROR AGAINST THIS PROPERTY AND WAS REMOVED AND CERTIFIED ON 2005/07/12 BY CRISSY DELDUCA.
18365	0062	CORRECTION: INSTRUMENT NUMBER LT605133 WAS ENTERED IN ERROR AGAINST THIS PROPERTY AND WAS REMOVED AND CERTIFIED ON 2005/07/12 BY CRISSY DELDUCA.
18365	0063	CORRECTION: INSTRUMENT NUMBER LT605133 WAS ENTERED IN ERROR AGAINST THIS PROPERTY AND WAS REMOVED AND CERTIFIED ON 2005/07/12 BY CRISSY DELDUCA.
18365	0064	CORRECTION: INSTRUMENT NUMBER LT605133 WAS ENTERED IN ERROR AGAINST THIS PROPERTY AND WAS REMOVED AND CERTIFIED ON 2005/07/12 BY CRISSY DELDUCA.
18365	0065	CORRECTION: INSTRUMENT NUMBER LT605133 WAS ENTERED IN ERROR AGAINST THIS PROPERTY AND WAS REMOVED AND CERTIFIED ON 2005/07/12 BY CRISSY DELDUCA.
18365	0066	CORRECTION: INSTRUMENT NUMBER LT605133 WAS ENTERED IN ERROR AGAINST THIS PROPERTY AND WAS REMOVED AND CERTIFIED ON 2005/07/12 BY CRISSY DELDUCA.
